
sftp:     file format elf64-x86-64


Disassembly of section .init:

0000000000000c98 <.init>:
 c98:	48 83 ec 08          	sub    $0x8,%rsp
 c9c:	48 8b 05 45 43 20 00 	mov    0x204345(%rip),%rax        # 204fe8 <__gmon_start__>
 ca3:	48 85 c0             	test   %rax,%rax
 ca6:	74 02                	je     caa <abort@plt-0x16>
 ca8:	ff d0                	callq  *%rax
 caa:	48 83 c4 08          	add    $0x8,%rsp
 cae:	c3                   	retq   

Disassembly of section .plt:

0000000000000cb0 <abort@plt-0x10>:
 cb0:	ff 35 52 43 20 00    	pushq  0x204352(%rip)        # 205008 <free@@Base+0x203e58>
 cb6:	ff 25 54 43 20 00    	jmpq   *0x204354(%rip)        # 205010 <free@@Base+0x203e60>
 cbc:	0f 1f 40 00          	nopl   0x0(%rax)

0000000000000cc0 <abort@plt>:
 cc0:	ff 25 52 43 20 00    	jmpq   *0x204352(%rip)        # 205018 <abort@GLIBC_2.2.5>
 cc6:	68 00 00 00 00       	pushq  $0x0
 ccb:	e9 e0 ff ff ff       	jmpq   cb0 <abort@plt-0x10>

0000000000000cd0 <strcpy@plt>:
 cd0:	ff 25 4a 43 20 00    	jmpq   *0x20434a(%rip)        # 205020 <strcpy@GLIBC_2.2.5>
 cd6:	68 01 00 00 00       	pushq  $0x1
 cdb:	e9 d0 ff ff ff       	jmpq   cb0 <abort@plt-0x10>

0000000000000ce0 <puts@plt>:
 ce0:	ff 25 42 43 20 00    	jmpq   *0x204342(%rip)        # 205028 <puts@GLIBC_2.2.5>
 ce6:	68 02 00 00 00       	pushq  $0x2
 ceb:	e9 c0 ff ff ff       	jmpq   cb0 <abort@plt-0x10>

0000000000000cf0 <fread@plt>:
 cf0:	ff 25 3a 43 20 00    	jmpq   *0x20433a(%rip)        # 205030 <fread@GLIBC_2.2.5>
 cf6:	68 03 00 00 00       	pushq  $0x3
 cfb:	e9 b0 ff ff ff       	jmpq   cb0 <abort@plt-0x10>

0000000000000d00 <strlen@plt>:
 d00:	ff 25 32 43 20 00    	jmpq   *0x204332(%rip)        # 205038 <strlen@GLIBC_2.2.5>
 d06:	68 04 00 00 00       	pushq  $0x4
 d0b:	e9 a0 ff ff ff       	jmpq   cb0 <abort@plt-0x10>

0000000000000d10 <__stack_chk_fail@plt>:
 d10:	ff 25 2a 43 20 00    	jmpq   *0x20432a(%rip)        # 205040 <__stack_chk_fail@GLIBC_2.4>
 d16:	68 05 00 00 00       	pushq  $0x5
 d1b:	e9 90 ff ff ff       	jmpq   cb0 <abort@plt-0x10>

0000000000000d20 <mmap@plt>:
 d20:	ff 25 22 43 20 00    	jmpq   *0x204322(%rip)        # 205048 <mmap@GLIBC_2.2.5>
 d26:	68 06 00 00 00       	pushq  $0x6
 d2b:	e9 80 ff ff ff       	jmpq   cb0 <abort@plt-0x10>

0000000000000d30 <setbuf@plt>:
 d30:	ff 25 1a 43 20 00    	jmpq   *0x20431a(%rip)        # 205050 <setbuf@GLIBC_2.2.5>
 d36:	68 07 00 00 00       	pushq  $0x7
 d3b:	e9 70 ff ff ff       	jmpq   cb0 <abort@plt-0x10>

0000000000000d40 <strrchr@plt>:
 d40:	ff 25 12 43 20 00    	jmpq   *0x204312(%rip)        # 205058 <strrchr@GLIBC_2.2.5>
 d46:	68 08 00 00 00       	pushq  $0x8
 d4b:	e9 60 ff ff ff       	jmpq   cb0 <abort@plt-0x10>

0000000000000d50 <memset@plt>:
 d50:	ff 25 0a 43 20 00    	jmpq   *0x20430a(%rip)        # 205060 <memset@GLIBC_2.2.5>
 d56:	68 09 00 00 00       	pushq  $0x9
 d5b:	e9 50 ff ff ff       	jmpq   cb0 <abort@plt-0x10>

0000000000000d60 <srand@plt>:
 d60:	ff 25 02 43 20 00    	jmpq   *0x204302(%rip)        # 205068 <srand@GLIBC_2.2.5>
 d66:	68 0a 00 00 00       	pushq  $0xa
 d6b:	e9 40 ff ff ff       	jmpq   cb0 <abort@plt-0x10>

0000000000000d70 <fgets@plt>:
 d70:	ff 25 fa 42 20 00    	jmpq   *0x2042fa(%rip)        # 205070 <fgets@GLIBC_2.2.5>
 d76:	68 0b 00 00 00       	pushq  $0xb
 d7b:	e9 30 ff ff ff       	jmpq   cb0 <abort@plt-0x10>

0000000000000d80 <strcmp@plt>:
 d80:	ff 25 f2 42 20 00    	jmpq   *0x2042f2(%rip)        # 205078 <strcmp@GLIBC_2.2.5>
 d86:	68 0c 00 00 00       	pushq  $0xc
 d8b:	e9 20 ff ff ff       	jmpq   cb0 <abort@plt-0x10>

0000000000000d90 <__memmove_chk@plt>:
 d90:	ff 25 ea 42 20 00    	jmpq   *0x2042ea(%rip)        # 205080 <__memmove_chk@GLIBC_2.3.4>
 d96:	68 0d 00 00 00       	pushq  $0xd
 d9b:	e9 10 ff ff ff       	jmpq   cb0 <abort@plt-0x10>

0000000000000da0 <memcpy@plt>:
 da0:	ff 25 e2 42 20 00    	jmpq   *0x2042e2(%rip)        # 205088 <memcpy@GLIBC_2.14>
 da6:	68 0e 00 00 00       	pushq  $0xe
 dab:	e9 00 ff ff ff       	jmpq   cb0 <abort@plt-0x10>

0000000000000db0 <time@plt>:
 db0:	ff 25 da 42 20 00    	jmpq   *0x2042da(%rip)        # 205090 <time@GLIBC_2.2.5>
 db6:	68 0f 00 00 00       	pushq  $0xf
 dbb:	e9 f0 fe ff ff       	jmpq   cb0 <abort@plt-0x10>

0000000000000dc0 <_IO_getc@plt>:
 dc0:	ff 25 d2 42 20 00    	jmpq   *0x2042d2(%rip)        # 205098 <_IO_getc@GLIBC_2.2.5>
 dc6:	68 10 00 00 00       	pushq  $0x10
 dcb:	e9 e0 fe ff ff       	jmpq   cb0 <abort@plt-0x10>

0000000000000dd0 <__isoc99_sscanf@plt>:
 dd0:	ff 25 ca 42 20 00    	jmpq   *0x2042ca(%rip)        # 2050a0 <__isoc99_sscanf@GLIBC_2.7>
 dd6:	68 11 00 00 00       	pushq  $0x11
 ddb:	e9 d0 fe ff ff       	jmpq   cb0 <abort@plt-0x10>

0000000000000de0 <__strcpy_chk@plt>:
 de0:	ff 25 c2 42 20 00    	jmpq   *0x2042c2(%rip)        # 2050a8 <__strcpy_chk@GLIBC_2.3.4>
 de6:	68 12 00 00 00       	pushq  $0x12
 deb:	e9 c0 fe ff ff       	jmpq   cb0 <abort@plt-0x10>

0000000000000df0 <__printf_chk@plt>:
 df0:	ff 25 ba 42 20 00    	jmpq   *0x2042ba(%rip)        # 2050b0 <__printf_chk@GLIBC_2.3.4>
 df6:	68 13 00 00 00       	pushq  $0x13
 dfb:	e9 b0 fe ff ff       	jmpq   cb0 <abort@plt-0x10>

0000000000000e00 <memmove@plt>:
 e00:	ff 25 b2 42 20 00    	jmpq   *0x2042b2(%rip)        # 2050b8 <memmove@GLIBC_2.2.5>
 e06:	68 14 00 00 00       	pushq  $0x14
 e0b:	e9 a0 fe ff ff       	jmpq   cb0 <abort@plt-0x10>

0000000000000e10 <strtok@plt>:
 e10:	ff 25 aa 42 20 00    	jmpq   *0x2042aa(%rip)        # 2050c0 <strtok@GLIBC_2.2.5>
 e16:	68 15 00 00 00       	pushq  $0x15
 e1b:	e9 90 fe ff ff       	jmpq   cb0 <abort@plt-0x10>

0000000000000e20 <__isoc99_scanf@plt>:
 e20:	ff 25 a2 42 20 00    	jmpq   *0x2042a2(%rip)        # 2050c8 <__isoc99_scanf@GLIBC_2.7>
 e26:	68 16 00 00 00       	pushq  $0x16
 e2b:	e9 80 fe ff ff       	jmpq   cb0 <abort@plt-0x10>

0000000000000e30 <exit@plt>:
 e30:	ff 25 9a 42 20 00    	jmpq   *0x20429a(%rip)        # 2050d0 <exit@GLIBC_2.2.5>
 e36:	68 17 00 00 00       	pushq  $0x17
 e3b:	e9 70 fe ff ff       	jmpq   cb0 <abort@plt-0x10>

0000000000000e40 <fwrite@plt>:
 e40:	ff 25 92 42 20 00    	jmpq   *0x204292(%rip)        # 2050d8 <fwrite@GLIBC_2.2.5>
 e46:	68 18 00 00 00       	pushq  $0x18
 e4b:	e9 60 fe ff ff       	jmpq   cb0 <abort@plt-0x10>

0000000000000e50 <rand@plt>:
 e50:	ff 25 8a 42 20 00    	jmpq   *0x20428a(%rip)        # 2050e0 <rand@GLIBC_2.2.5>
 e56:	68 19 00 00 00       	pushq  $0x19
 e5b:	e9 50 fe ff ff       	jmpq   cb0 <abort@plt-0x10>

Disassembly of section .plt.got:

0000000000000e60 <__cxa_finalize@plt>:
 e60:	ff 25 92 41 20 00    	jmpq   *0x204192(%rip)        # 204ff8 <__cxa_finalize@GLIBC_2.2.5>
 e66:	66 90                	xchg   %ax,%ax

Disassembly of section .text:

0000000000000e70 <malloc@@Base-0x310>:
     e70:	48 83 ec 08          	sub    $0x8,%rsp
     e74:	45 31 c9             	xor    %r9d,%r9d
     e77:	41 b8 ff ff ff ff    	mov    $0xffffffff,%r8d
     e7d:	b9 32 00 00 00       	mov    $0x32,%ecx
     e82:	ba 03 00 00 00       	mov    $0x3,%edx
     e87:	be ff ff 0f 20       	mov    $0x200fffff,%esi
     e8c:	bf 00 00 00 40       	mov    $0x40000000,%edi
     e91:	e8 8a fe ff ff       	callq  d20 <mmap@plt>
     e96:	48 3d 00 00 00 40    	cmp    $0x40000000,%rax
     e9c:	75 12                	jne    eb0 <__cxa_finalize@plt+0x50>
     e9e:	31 ff                	xor    %edi,%edi
     ea0:	e8 0b ff ff ff       	callq  db0 <time@plt>
     ea5:	48 83 c4 08          	add    $0x8,%rsp
     ea9:	89 c7                	mov    %eax,%edi
     eab:	e9 b0 fe ff ff       	jmpq   d60 <srand@plt>
     eb0:	e8 0b fe ff ff       	callq  cc0 <abort@plt>
     eb5:	90                   	nop
     eb6:	66 2e 0f 1f 84 00 00 	nopw   %cs:0x0(%rax,%rax,1)
     ebd:	00 00 00 
     ec0:	48 8b 3d c1 7c 20 00 	mov    0x207cc1(%rip),%rdi        # 208b88 <free@@Base+0x2079d8>
     ec7:	53                   	push   %rbx
     ec8:	48 8d 05 11 7d 20 00 	lea    0x207d11(%rip),%rax        # 208be0 <stderr@@GLIBC_2.2.5+0x20>
     ecf:	48 c7 05 06 7d 20 00 	movq   $0x0,0x207d06(%rip)        # 208be0 <stderr@@GLIBC_2.2.5+0x20>
     ed6:	00 00 00 00 
     eda:	c7 05 08 7d 20 00 68 	movl   $0x656d6f68,0x207d08(%rip)        # 208bec <stderr@@GLIBC_2.2.5+0x2c>
     ee1:	6f 6d 65 
     ee4:	48 89 05 ed 7c 20 00 	mov    %rax,0x207ced(%rip)        # 208bd8 <stderr@@GLIBC_2.2.5+0x18>
     eeb:	c6 05 fe 7c 20 00 00 	movb   $0x0,0x207cfe(%rip)        # 208bf0 <stderr@@GLIBC_2.2.5+0x30>
     ef2:	48 c7 05 03 7d 20 00 	movq   $0x1,0x207d03(%rip)        # 208c00 <stderr@@GLIBC_2.2.5+0x40>
     ef9:	01 00 00 00 
     efd:	48 c7 05 00 7d 20 00 	movq   $0x0,0x207d00(%rip)        # 208c08 <stderr@@GLIBC_2.2.5+0x48>
     f04:	00 00 00 00 
     f08:	48 89 05 c1 7c 20 00 	mov    %rax,0x207cc1(%rip)        # 208bd0 <stderr@@GLIBC_2.2.5+0x10>
     f0f:	e8 2c 0e 00 00       	callq  1d40 <free@@Base+0xb90>
     f14:	48 8d 3d ec 21 00 00 	lea    0x21ec(%rip),%rdi        # 3107 <free@@Base+0x1f57>
     f1b:	48 89 05 ae 7c 20 00 	mov    %rax,0x207cae(%rip)        # 208bd0 <stderr@@GLIBC_2.2.5+0x10>
     f22:	e8 99 0b 00 00       	callq  1ac0 <free@@Base+0x910>
     f27:	48 8b 18             	mov    (%rax),%rbx
     f2a:	48 8b 05 47 7c 20 00 	mov    0x207c47(%rip),%rax        # 208b78 <free@@Base+0x2079c8>
     f31:	c7 43 08 02 00 00 00 	movl   $0x2,0x8(%rbx)
     f38:	48 89 43 20          	mov    %rax,0x20(%rbx)
     f3c:	e8 0f ff ff ff       	callq  e50 <rand@plt>
     f41:	89 c7                	mov    %eax,%edi
     f43:	48 8b 15 2e 7c 20 00 	mov    0x207c2e(%rip),%rdx        # 208b78 <free@@Base+0x2079c8>
     f4a:	48 8d 35 17 7c 20 00 	lea    0x207c17(%rip),%rsi        # 208b68 <free@@Base+0x2079b8>
     f51:	81 e7 ff ff ff 1f    	and    $0x1fffffff,%edi
     f57:	48 81 cf 00 00 00 40 	or     $0x40000000,%rdi
     f5e:	48 89 7b 28          	mov    %rdi,0x28(%rbx)
     f62:	e8 39 fe ff ff       	callq  da0 <memcpy@plt>
     f67:	48 83 7b 20 00       	cmpq   $0x0,0x20(%rbx)
     f6c:	74 16                	je     f84 <__cxa_finalize@plt+0x124>
     f6e:	31 c0                	xor    %eax,%eax
     f70:	48 8b 53 28          	mov    0x28(%rbx),%rdx
     f74:	48 01 c2             	add    %rax,%rdx
     f77:	48 83 c0 01          	add    $0x1,%rax
     f7b:	80 32 89             	xorb   $0x89,(%rdx)
     f7e:	48 39 43 20          	cmp    %rax,0x20(%rbx)
     f82:	77 ec                	ja     f70 <__cxa_finalize@plt+0x110>
     f84:	48 8d 3d 81 21 00 00 	lea    0x2181(%rip),%rdi        # 310c <free@@Base+0x1f5c>
     f8b:	e8 b0 0d 00 00       	callq  1d40 <free@@Base+0xb90>
     f90:	48 8d 3d 79 21 00 00 	lea    0x2179(%rip),%rdi        # 3110 <free@@Base+0x1f60>
     f97:	e8 24 0b 00 00       	callq  1ac0 <free@@Base+0x910>
     f9c:	48 8b 18             	mov    (%rax),%rbx
     f9f:	48 8b 05 ba 7b 20 00 	mov    0x207bba(%rip),%rax        # 208b60 <free@@Base+0x2079b0>
     fa6:	c7 43 08 02 00 00 00 	movl   $0x2,0x8(%rbx)
     fad:	48 89 43 20          	mov    %rax,0x20(%rbx)
     fb1:	e8 9a fe ff ff       	callq  e50 <rand@plt>
     fb6:	89 c7                	mov    %eax,%edi
     fb8:	48 8b 15 a1 7b 20 00 	mov    0x207ba1(%rip),%rdx        # 208b60 <free@@Base+0x2079b0>
     fbf:	48 8d 35 5a 41 20 00 	lea    0x20415a(%rip),%rsi        # 205120 <free@@Base+0x203f70>
     fc6:	81 e7 ff ff ff 1f    	and    $0x1fffffff,%edi
     fcc:	48 81 cf 00 00 00 40 	or     $0x40000000,%rdi
     fd3:	48 89 7b 28          	mov    %rdi,0x28(%rbx)
     fd7:	e8 c4 fd ff ff       	callq  da0 <memcpy@plt>
     fdc:	48 83 7b 20 00       	cmpq   $0x0,0x20(%rbx)
     fe1:	74 19                	je     ffc <__cxa_finalize@plt+0x19c>
     fe3:	31 c0                	xor    %eax,%eax
     fe5:	0f 1f 00             	nopl   (%rax)
     fe8:	48 8b 53 28          	mov    0x28(%rbx),%rdx
     fec:	48 01 c2             	add    %rax,%rdx
     fef:	48 83 c0 01          	add    $0x1,%rax
     ff3:	80 32 37             	xorb   $0x37,(%rdx)
     ff6:	48 39 43 20          	cmp    %rax,0x20(%rbx)
     ffa:	77 ec                	ja     fe8 <__cxa_finalize@plt+0x188>
     ffc:	5b                   	pop    %rbx
     ffd:	c3                   	retq   
     ffe:	66 90                	xchg   %ax,%ax
    1000:	48 83 ec 08          	sub    $0x8,%rsp
    1004:	48 8b 3d a5 7b 20 00 	mov    0x207ba5(%rip),%rdi        # 208bb0 <stdin@@GLIBC_2.2.5>
    100b:	31 f6                	xor    %esi,%esi
    100d:	e8 1e fd ff ff       	callq  d30 <setbuf@plt>
    1012:	48 8b 3d 87 7b 20 00 	mov    0x207b87(%rip),%rdi        # 208ba0 <stdout@@GLIBC_2.2.5>
    1019:	31 f6                	xor    %esi,%esi
    101b:	e8 10 fd ff ff       	callq  d30 <setbuf@plt>
    1020:	48 8b 3d 99 7b 20 00 	mov    0x207b99(%rip),%rdi        # 208bc0 <stderr@@GLIBC_2.2.5>
    1027:	31 f6                	xor    %esi,%esi
    1029:	e8 02 fd ff ff       	callq  d30 <setbuf@plt>
    102e:	31 c0                	xor    %eax,%eax
    1030:	e8 bb 03 00 00       	callq  13f0 <free@@Base+0x240>
    1035:	84 c0                	test   %al,%al
    1037:	75 07                	jne    1040 <__cxa_finalize@plt+0x1e0>
    1039:	31 c0                	xor    %eax,%eax
    103b:	48 83 c4 08          	add    $0x8,%rsp
    103f:	c3                   	retq   
    1040:	48 8b 15 39 7b 20 00 	mov    0x207b39(%rip),%rdx        # 208b80 <free@@Base+0x2079d0>
    1047:	48 8d 35 eb 21 00 00 	lea    0x21eb(%rip),%rsi        # 3239 <free@@Base+0x2089>
    104e:	bf 01 00 00 00       	mov    $0x1,%edi
    1053:	31 c0                	xor    %eax,%eax
    1055:	e8 96 fd ff ff       	callq  df0 <__printf_chk@plt>
    105a:	66 0f 1f 44 00 00    	nopw   0x0(%rax,%rax,1)
    1060:	31 c0                	xor    %eax,%eax
    1062:	e8 49 16 00 00       	callq  26b0 <free@@Base+0x1500>
    1067:	84 c0                	test   %al,%al
    1069:	75 f5                	jne    1060 <__cxa_finalize@plt+0x200>
    106b:	eb cc                	jmp    1039 <__cxa_finalize@plt+0x1d9>
    106d:	0f 1f 00             	nopl   (%rax)
    1070:	31 ed                	xor    %ebp,%ebp
    1072:	49 89 d1             	mov    %rdx,%r9
    1075:	5e                   	pop    %rsi
    1076:	48 89 e2             	mov    %rsp,%rdx
    1079:	48 83 e4 f0          	and    $0xfffffffffffffff0,%rsp
    107d:	50                   	push   %rax
    107e:	54                   	push   %rsp
    107f:	4c 8d 05 4a 20 00 00 	lea    0x204a(%rip),%r8        # 30d0 <free@@Base+0x1f20>
    1086:	48 8d 0d d3 1f 00 00 	lea    0x1fd3(%rip),%rcx        # 3060 <free@@Base+0x1eb0>
    108d:	48 8d 3d 6c ff ff ff 	lea    -0x94(%rip),%rdi        # 1000 <__cxa_finalize@plt+0x1a0>
    1094:	ff 15 46 3f 20 00    	callq  *0x203f46(%rip)        # 204fe0 <free@@Base+0x203e30>
    109a:	f4                   	hlt    
    109b:	0f 1f 44 00 00       	nopl   0x0(%rax,%rax,1)
    10a0:	48 8d 3d e9 7a 20 00 	lea    0x207ae9(%rip),%rdi        # 208b90 <free@@Base+0x2079e0>
    10a7:	55                   	push   %rbp
    10a8:	48 8d 05 e1 7a 20 00 	lea    0x207ae1(%rip),%rax        # 208b90 <free@@Base+0x2079e0>
    10af:	48 39 f8             	cmp    %rdi,%rax
    10b2:	48 89 e5             	mov    %rsp,%rbp
    10b5:	74 19                	je     10d0 <__cxa_finalize@plt+0x270>
    10b7:	48 8b 05 1a 3f 20 00 	mov    0x203f1a(%rip),%rax        # 204fd8 <free@@Base+0x203e28>
    10be:	48 85 c0             	test   %rax,%rax
    10c1:	74 0d                	je     10d0 <__cxa_finalize@plt+0x270>
    10c3:	5d                   	pop    %rbp
    10c4:	ff e0                	jmpq   *%rax
    10c6:	66 2e 0f 1f 84 00 00 	nopw   %cs:0x0(%rax,%rax,1)
    10cd:	00 00 00 
    10d0:	5d                   	pop    %rbp
    10d1:	c3                   	retq   
    10d2:	0f 1f 40 00          	nopl   0x0(%rax)
    10d6:	66 2e 0f 1f 84 00 00 	nopw   %cs:0x0(%rax,%rax,1)
    10dd:	00 00 00 
    10e0:	48 8d 3d a9 7a 20 00 	lea    0x207aa9(%rip),%rdi        # 208b90 <free@@Base+0x2079e0>
    10e7:	48 8d 35 a2 7a 20 00 	lea    0x207aa2(%rip),%rsi        # 208b90 <free@@Base+0x2079e0>
    10ee:	55                   	push   %rbp
    10ef:	48 29 fe             	sub    %rdi,%rsi
    10f2:	48 89 e5             	mov    %rsp,%rbp
    10f5:	48 c1 fe 03          	sar    $0x3,%rsi
    10f9:	48 89 f0             	mov    %rsi,%rax
    10fc:	48 c1 e8 3f          	shr    $0x3f,%rax
    1100:	48 01 c6             	add    %rax,%rsi
    1103:	48 d1 fe             	sar    %rsi
    1106:	74 18                	je     1120 <__cxa_finalize@plt+0x2c0>
    1108:	48 8b 05 e1 3e 20 00 	mov    0x203ee1(%rip),%rax        # 204ff0 <free@@Base+0x203e40>
    110f:	48 85 c0             	test   %rax,%rax
    1112:	74 0c                	je     1120 <__cxa_finalize@plt+0x2c0>
    1114:	5d                   	pop    %rbp
    1115:	ff e0                	jmpq   *%rax
    1117:	66 0f 1f 84 00 00 00 	nopw   0x0(%rax,%rax,1)
    111e:	00 00 
    1120:	5d                   	pop    %rbp
    1121:	c3                   	retq   
    1122:	0f 1f 40 00          	nopl   0x0(%rax)
    1126:	66 2e 0f 1f 84 00 00 	nopw   %cs:0x0(%rax,%rax,1)
    112d:	00 00 00 
    1130:	80 3d 91 7a 20 00 00 	cmpb   $0x0,0x207a91(%rip)        # 208bc8 <stderr@@GLIBC_2.2.5+0x8>
    1137:	75 2f                	jne    1168 <__cxa_finalize@plt+0x308>
    1139:	48 83 3d b7 3e 20 00 	cmpq   $0x0,0x203eb7(%rip)        # 204ff8 <free@@Base+0x203e48>
    1140:	00 
    1141:	55                   	push   %rbp
    1142:	48 89 e5             	mov    %rsp,%rbp
    1145:	74 0c                	je     1153 <__cxa_finalize@plt+0x2f3>
    1147:	48 8b 3d ba 3f 20 00 	mov    0x203fba(%rip),%rdi        # 205108 <free@@Base+0x203f58>
    114e:	e8 0d fd ff ff       	callq  e60 <__cxa_finalize@plt>
    1153:	e8 48 ff ff ff       	callq  10a0 <__cxa_finalize@plt+0x240>
    1158:	c6 05 69 7a 20 00 01 	movb   $0x1,0x207a69(%rip)        # 208bc8 <stderr@@GLIBC_2.2.5+0x8>
    115f:	5d                   	pop    %rbp
    1160:	c3                   	retq   
    1161:	0f 1f 80 00 00 00 00 	nopl   0x0(%rax)
    1168:	f3 c3                	repz retq 
    116a:	66 0f 1f 44 00 00    	nopw   0x0(%rax,%rax,1)
    1170:	55                   	push   %rbp
    1171:	48 89 e5             	mov    %rsp,%rbp
    1174:	5d                   	pop    %rbp
    1175:	e9 66 ff ff ff       	jmpq   10e0 <__cxa_finalize@plt+0x280>
    117a:	66 0f 1f 44 00 00    	nopw   0x0(%rax,%rax,1)

0000000000001180 <malloc@@Base>:
    1180:	48 83 ec 08          	sub    $0x8,%rsp
    1184:	e8 c7 fc ff ff       	callq  e50 <rand@plt>
    1189:	25 ff ff ff 1f       	and    $0x1fffffff,%eax
    118e:	48 83 c4 08          	add    $0x8,%rsp
    1192:	48 0d 00 00 00 40    	or     $0x40000000,%rax
    1198:	c3                   	retq   
    1199:	0f 1f 80 00 00 00 00 	nopl   0x0(%rax)

00000000000011a0 <realloc@@Base>:
    11a0:	48 89 f8             	mov    %rdi,%rax
    11a3:	c3                   	retq   
    11a4:	66 90                	xchg   %ax,%ax
    11a6:	66 2e 0f 1f 84 00 00 	nopw   %cs:0x0(%rax,%rax,1)
    11ad:	00 00 00 

00000000000011b0 <free@@Base>:
    11b0:	f3 c3                	repz retq 
    11b2:	0f 1f 40 00          	nopl   0x0(%rax)
    11b6:	66 2e 0f 1f 84 00 00 	nopw   %cs:0x0(%rax,%rax,1)
    11bd:	00 00 00 
    11c0:	48 85 f6             	test   %rsi,%rsi
    11c3:	74 3f                	je     1204 <free@@Base+0x54>
    11c5:	55                   	push   %rbp
    11c6:	53                   	push   %rbx
    11c7:	48 89 fd             	mov    %rdi,%rbp
    11ca:	48 89 f3             	mov    %rsi,%rbx
    11cd:	48 83 ec 08          	sub    $0x8,%rsp
    11d1:	0f 1f 80 00 00 00 00 	nopl   0x0(%rax)
    11d8:	48 8b 0d d1 79 20 00 	mov    0x2079d1(%rip),%rcx        # 208bb0 <stdin@@GLIBC_2.2.5>
    11df:	48 89 da             	mov    %rbx,%rdx
    11e2:	be 01 00 00 00       	mov    $0x1,%esi
    11e7:	48 89 ef             	mov    %rbp,%rdi
    11ea:	e8 01 fb ff ff       	callq  cf0 <fread@plt>
    11ef:	85 c0                	test   %eax,%eax
    11f1:	78 13                	js     1206 <free@@Base+0x56>
    11f3:	48 98                	cltq   
    11f5:	48 01 c5             	add    %rax,%rbp
    11f8:	48 29 c3             	sub    %rax,%rbx
    11fb:	75 db                	jne    11d8 <free@@Base+0x28>
    11fd:	48 83 c4 08          	add    $0x8,%rsp
    1201:	5b                   	pop    %rbx
    1202:	5d                   	pop    %rbp
    1203:	c3                   	retq   
    1204:	f3 c3                	repz retq 
    1206:	e8 b5 fa ff ff       	callq  cc0 <abort@plt>
    120b:	0f 1f 44 00 00       	nopl   0x0(%rax,%rax,1)
    1210:	48 85 f6             	test   %rsi,%rsi
    1213:	74 3f                	je     1254 <free@@Base+0xa4>
    1215:	55                   	push   %rbp
    1216:	53                   	push   %rbx
    1217:	48 89 fd             	mov    %rdi,%rbp
    121a:	48 89 f3             	mov    %rsi,%rbx
    121d:	48 83 ec 08          	sub    $0x8,%rsp
    1221:	0f 1f 80 00 00 00 00 	nopl   0x0(%rax)
    1228:	48 8b 0d 71 79 20 00 	mov    0x207971(%rip),%rcx        # 208ba0 <stdout@@GLIBC_2.2.5>
    122f:	48 89 da             	mov    %rbx,%rdx
    1232:	be 01 00 00 00       	mov    $0x1,%esi
    1237:	48 89 ef             	mov    %rbp,%rdi
    123a:	e8 01 fc ff ff       	callq  e40 <fwrite@plt>
    123f:	85 c0                	test   %eax,%eax
    1241:	78 13                	js     1256 <free@@Base+0xa6>
    1243:	48 98                	cltq   
    1245:	48 01 c5             	add    %rax,%rbp
    1248:	48 29 c3             	sub    %rax,%rbx
    124b:	75 db                	jne    1228 <free@@Base+0x78>
    124d:	48 83 c4 08          	add    $0x8,%rsp
    1251:	5b                   	pop    %rbx
    1252:	5d                   	pop    %rbp
    1253:	c3                   	retq   
    1254:	f3 c3                	repz retq 
    1256:	e8 65 fa ff ff       	callq  cc0 <abort@plt>
    125b:	0f 1f 44 00 00       	nopl   0x0(%rax,%rax,1)
    1260:	55                   	push   %rbp
    1261:	53                   	push   %rbx
    1262:	48 8d 35 7b 1e 00 00 	lea    0x1e7b(%rip),%rsi        # 30e4 <free@@Base+0x1f34>
    1269:	bf 01 00 00 00       	mov    $0x1,%edi
    126e:	31 ed                	xor    %ebp,%ebp
    1270:	48 83 ec 28          	sub    $0x28,%rsp
    1274:	48 8b 0d 05 79 20 00 	mov    0x207905(%rip),%rcx        # 208b80 <free@@Base+0x2079d0>
    127b:	48 8b 15 06 79 20 00 	mov    0x207906(%rip),%rdx        # 208b88 <free@@Base+0x2079d8>
    1282:	64 48 8b 04 25 28 00 	mov    %fs:0x28,%rax
    1289:	00 00 
    128b:	48 89 44 24 18       	mov    %rax,0x18(%rsp)
    1290:	31 c0                	xor    %eax,%eax
    1292:	48 89 e3             	mov    %rsp,%rbx
    1295:	e8 56 fb ff ff       	callq  df0 <__printf_chk@plt>
    129a:	48 8d 3d 56 1e 00 00 	lea    0x1e56(%rip),%rdi        # 30f7 <free@@Base+0x1f47>
    12a1:	31 c0                	xor    %eax,%eax
    12a3:	48 89 de             	mov    %rbx,%rsi
    12a6:	e8 75 fb ff ff       	callq  e20 <__isoc99_scanf@plt>
    12ab:	85 c0                	test   %eax,%eax
    12ad:	75 21                	jne    12d0 <free@@Base+0x120>
    12af:	48 8b 4c 24 18       	mov    0x18(%rsp),%rcx
    12b4:	64 48 33 0c 25 28 00 	xor    %fs:0x28,%rcx
    12bb:	00 00 
    12bd:	89 e8                	mov    %ebp,%eax
    12bf:	75 4b                	jne    130c <free@@Base+0x15c>
    12c1:	48 83 c4 28          	add    $0x28,%rsp
    12c5:	5b                   	pop    %rbx
    12c6:	5d                   	pop    %rbp
    12c7:	c3                   	retq   
    12c8:	0f 1f 84 00 00 00 00 	nopl   0x0(%rax,%rax,1)
    12cf:	00 
    12d0:	48 8b 3d d9 78 20 00 	mov    0x2078d9(%rip),%rdi        # 208bb0 <stdin@@GLIBC_2.2.5>
    12d7:	e8 e4 fa ff ff       	callq  dc0 <_IO_getc@plt>
    12dc:	66 0f be 04 24       	movsbw (%rsp),%ax
    12e1:	84 c0                	test   %al,%al
    12e3:	74 ca                	je     12af <free@@Base+0xff>
    12e5:	48 89 de             	mov    %rbx,%rsi
    12e8:	ba 17 54 00 00       	mov    $0x5417,%edx
    12ed:	0f 1f 00             	nopl   (%rax)
    12f0:	31 d0                	xor    %edx,%eax
    12f2:	48 83 c6 01          	add    $0x1,%rsi
    12f6:	8d 14 00             	lea    (%rax,%rax,1),%edx
    12f9:	66 0f be 06          	movsbw (%rsi),%ax
    12fd:	84 c0                	test   %al,%al
    12ff:	75 ef                	jne    12f0 <free@@Base+0x140>
    1301:	66 81 fa fa 8d       	cmp    $0x8dfa,%dx
    1306:	40 0f 94 c5          	sete   %bpl
    130a:	eb a3                	jmp    12af <free@@Base+0xff>
    130c:	e8 ff f9 ff ff       	callq  d10 <__stack_chk_fail@plt>
    1311:	0f 1f 44 00 00       	nopl   0x0(%rax,%rax,1)
    1316:	66 2e 0f 1f 84 00 00 	nopw   %cs:0x0(%rax,%rax,1)
    131d:	00 00 00 
    1320:	48 83 ec 18          	sub    $0x18,%rsp
    1324:	48 8b 15 55 78 20 00 	mov    0x207855(%rip),%rdx        # 208b80 <free@@Base+0x2079d0>
    132b:	48 8d 35 36 1f 00 00 	lea    0x1f36(%rip),%rsi        # 3268 <free@@Base+0x20b8>
    1332:	64 48 8b 04 25 28 00 	mov    %fs:0x28,%rax
    1339:	00 00 
    133b:	48 89 44 24 08       	mov    %rax,0x8(%rsp)
    1340:	31 c0                	xor    %eax,%eax
    1342:	bf 01 00 00 00       	mov    $0x1,%edi
    1347:	e8 a4 fa ff ff       	callq  df0 <__printf_chk@plt>
    134c:	48 8d 3d 55 1f 00 00 	lea    0x1f55(%rip),%rdi        # 32a8 <free@@Base+0x20f8>
    1353:	e8 88 f9 ff ff       	callq  ce0 <puts@plt>
    1358:	48 8d 35 99 1f 00 00 	lea    0x1f99(%rip),%rsi        # 32f8 <free@@Base+0x2148>
    135f:	bf 01 00 00 00       	mov    $0x1,%edi
    1364:	31 c0                	xor    %eax,%eax
    1366:	e8 85 fa ff ff       	callq  df0 <__printf_chk@plt>
    136b:	48 8d 74 24 04       	lea    0x4(%rsp),%rsi
    1370:	48 8d 3d 85 1d 00 00 	lea    0x1d85(%rip),%rdi        # 30fc <free@@Base+0x1f4c>
    1377:	31 c0                	xor    %eax,%eax
    1379:	e8 a2 fa ff ff       	callq  e20 <__isoc99_scanf@plt>
    137e:	31 d2                	xor    %edx,%edx
    1380:	85 c0                	test   %eax,%eax
    1382:	74 07                	je     138b <free@@Base+0x1db>
    1384:	80 7c 24 04 79       	cmpb   $0x79,0x4(%rsp)
    1389:	74 1d                	je     13a8 <free@@Base+0x1f8>
    138b:	48 8b 4c 24 08       	mov    0x8(%rsp),%rcx
    1390:	64 48 33 0c 25 28 00 	xor    %fs:0x28,%rcx
    1397:	00 00 
    1399:	89 d0                	mov    %edx,%eax
    139b:	75 41                	jne    13de <free@@Base+0x22e>
    139d:	48 83 c4 18          	add    $0x18,%rsp
    13a1:	c3                   	retq   
    13a2:	66 0f 1f 44 00 00    	nopw   0x0(%rax,%rax,1)
    13a8:	80 7c 24 05 65       	cmpb   $0x65,0x5(%rsp)
    13ad:	75 dc                	jne    138b <free@@Base+0x1db>
    13af:	80 7c 24 06 73       	cmpb   $0x73,0x6(%rsp)
    13b4:	75 d5                	jne    138b <free@@Base+0x1db>
    13b6:	80 7c 24 07 00       	cmpb   $0x0,0x7(%rsp)
    13bb:	75 ce                	jne    138b <free@@Base+0x1db>
    13bd:	48 8b 15 bc 77 20 00 	mov    0x2077bc(%rip),%rdx        # 208b80 <free@@Base+0x2079d0>
    13c4:	48 8d 35 65 1f 00 00 	lea    0x1f65(%rip),%rsi        # 3330 <free@@Base+0x2180>
    13cb:	bf 01 00 00 00       	mov    $0x1,%edi
    13d0:	31 c0                	xor    %eax,%eax
    13d2:	e8 19 fa ff ff       	callq  df0 <__printf_chk@plt>
    13d7:	ba 01 00 00 00       	mov    $0x1,%edx
    13dc:	eb ad                	jmp    138b <free@@Base+0x1db>
    13de:	e8 2d f9 ff ff       	callq  d10 <__stack_chk_fail@plt>
    13e3:	0f 1f 00             	nopl   (%rax)
    13e6:	66 2e 0f 1f 84 00 00 	nopw   %cs:0x0(%rax,%rax,1)
    13ed:	00 00 00 
    13f0:	53                   	push   %rbx
    13f1:	48 8d 35 70 1e 00 00 	lea    0x1e70(%rip),%rsi        # 3268 <free@@Base+0x20b8>
    13f8:	bf 01 00 00 00       	mov    $0x1,%edi
    13fd:	48 83 ec 20          	sub    $0x20,%rsp
    1401:	48 8b 15 78 77 20 00 	mov    0x207778(%rip),%rdx        # 208b80 <free@@Base+0x2079d0>
    1408:	64 48 8b 04 25 28 00 	mov    %fs:0x28,%rax
    140f:	00 00 
    1411:	48 89 44 24 18       	mov    %rax,0x18(%rsp)
    1416:	31 c0                	xor    %eax,%eax
    1418:	48 89 e3             	mov    %rsp,%rbx
    141b:	e8 d0 f9 ff ff       	callq  df0 <__printf_chk@plt>
    1420:	48 8d 3d 81 1e 00 00 	lea    0x1e81(%rip),%rdi        # 32a8 <free@@Base+0x20f8>
    1427:	e8 b4 f8 ff ff       	callq  ce0 <puts@plt>
    142c:	48 8d 35 c5 1e 00 00 	lea    0x1ec5(%rip),%rsi        # 32f8 <free@@Base+0x2148>
    1433:	bf 01 00 00 00       	mov    $0x1,%edi
    1438:	31 c0                	xor    %eax,%eax
    143a:	e8 b1 f9 ff ff       	callq  df0 <__printf_chk@plt>
    143f:	48 8d 3d b6 1c 00 00 	lea    0x1cb6(%rip),%rdi        # 30fc <free@@Base+0x1f4c>
    1446:	31 c0                	xor    %eax,%eax
    1448:	48 89 de             	mov    %rbx,%rsi
    144b:	e8 d0 f9 ff ff       	callq  e20 <__isoc99_scanf@plt>
    1450:	85 c0                	test   %eax,%eax
    1452:	74 06                	je     145a <free@@Base+0x2aa>
    1454:	80 3c 24 79          	cmpb   $0x79,(%rsp)
    1458:	74 26                	je     1480 <free@@Base+0x2d0>
    145a:	31 c0                	xor    %eax,%eax
    145c:	48 8b 4c 24 18       	mov    0x18(%rsp),%rcx
    1461:	64 48 33 0c 25 28 00 	xor    %fs:0x28,%rcx
    1468:	00 00 
    146a:	0f 85 c6 00 00 00    	jne    1536 <free@@Base+0x386>
    1470:	48 83 c4 20          	add    $0x20,%rsp
    1474:	5b                   	pop    %rbx
    1475:	c3                   	retq   
    1476:	66 2e 0f 1f 84 00 00 	nopw   %cs:0x0(%rax,%rax,1)
    147d:	00 00 00 
    1480:	80 7c 24 01 65       	cmpb   $0x65,0x1(%rsp)
    1485:	75 d3                	jne    145a <free@@Base+0x2aa>
    1487:	80 7c 24 02 73       	cmpb   $0x73,0x2(%rsp)
    148c:	75 cc                	jne    145a <free@@Base+0x2aa>
    148e:	80 7c 24 03 00       	cmpb   $0x0,0x3(%rsp)
    1493:	75 c5                	jne    145a <free@@Base+0x2aa>
    1495:	48 8b 15 e4 76 20 00 	mov    0x2076e4(%rip),%rdx        # 208b80 <free@@Base+0x2079d0>
    149c:	48 8d 35 8d 1e 00 00 	lea    0x1e8d(%rip),%rsi        # 3330 <free@@Base+0x2180>
    14a3:	bf 01 00 00 00       	mov    $0x1,%edi
    14a8:	31 c0                	xor    %eax,%eax
    14aa:	e8 41 f9 ff ff       	callq  df0 <__printf_chk@plt>
    14af:	48 8b 0d ca 76 20 00 	mov    0x2076ca(%rip),%rcx        # 208b80 <free@@Base+0x2079d0>
    14b6:	48 8b 15 cb 76 20 00 	mov    0x2076cb(%rip),%rdx        # 208b88 <free@@Base+0x2079d8>
    14bd:	48 8d 35 20 1c 00 00 	lea    0x1c20(%rip),%rsi        # 30e4 <free@@Base+0x1f34>
    14c4:	bf 01 00 00 00       	mov    $0x1,%edi
    14c9:	31 c0                	xor    %eax,%eax
    14cb:	e8 20 f9 ff ff       	callq  df0 <__printf_chk@plt>
    14d0:	48 8d 3d 20 1c 00 00 	lea    0x1c20(%rip),%rdi        # 30f7 <free@@Base+0x1f47>
    14d7:	31 c0                	xor    %eax,%eax
    14d9:	48 89 de             	mov    %rbx,%rsi
    14dc:	e8 3f f9 ff ff       	callq  e20 <__isoc99_scanf@plt>
    14e1:	85 c0                	test   %eax,%eax
    14e3:	0f 84 71 ff ff ff    	je     145a <free@@Base+0x2aa>
    14e9:	48 8b 3d c0 76 20 00 	mov    0x2076c0(%rip),%rdi        # 208bb0 <stdin@@GLIBC_2.2.5>
    14f0:	e8 cb f8 ff ff       	callq  dc0 <_IO_getc@plt>
    14f5:	66 0f be 04 24       	movsbw (%rsp),%ax
    14fa:	84 c0                	test   %al,%al
    14fc:	0f 84 58 ff ff ff    	je     145a <free@@Base+0x2aa>
    1502:	ba 17 54 00 00       	mov    $0x5417,%edx
    1507:	66 0f 1f 84 00 00 00 	nopw   0x0(%rax,%rax,1)
    150e:	00 00 
    1510:	31 d0                	xor    %edx,%eax
    1512:	48 83 c3 01          	add    $0x1,%rbx
    1516:	8d 14 00             	lea    (%rax,%rax,1),%edx
    1519:	66 0f be 03          	movsbw (%rbx),%ax
    151d:	84 c0                	test   %al,%al
    151f:	75 ef                	jne    1510 <free@@Base+0x360>
    1521:	66 81 fa fa 8d       	cmp    $0x8dfa,%dx
    1526:	b8 01 00 00 00       	mov    $0x1,%eax
    152b:	0f 85 29 ff ff ff    	jne    145a <free@@Base+0x2aa>
    1531:	e9 26 ff ff ff       	jmpq   145c <free@@Base+0x2ac>
    1536:	e8 d5 f7 ff ff       	callq  d10 <__stack_chk_fail@plt>
    153b:	0f 1f 44 00 00       	nopl   0x0(%rax,%rax,1)
    1540:	80 3f 2f             	cmpb   $0x2f,(%rdi)
    1543:	0f 94 c0             	sete   %al
    1546:	c3                   	retq   
    1547:	66 0f 1f 84 00 00 00 	nopw   0x0(%rax,%rax,1)
    154e:	00 00 
    1550:	55                   	push   %rbp
    1551:	53                   	push   %rbx
    1552:	48 83 ec 08          	sub    $0x8,%rsp
    1556:	48 85 ff             	test   %rdi,%rdi
    1559:	74 25                	je     1580 <free@@Base+0x3d0>
    155b:	48 89 fb             	mov    %rdi,%rbx
    155e:	31 ed                	xor    %ebp,%ebp
    1560:	48 8d 7b 0c          	lea    0xc(%rbx),%rdi
    1564:	e8 97 f7 ff ff       	callq  d00 <strlen@plt>
    1569:	48 8b 1b             	mov    (%rbx),%rbx
    156c:	48 8d 6c 05 01       	lea    0x1(%rbp,%rax,1),%rbp
    1571:	48 85 db             	test   %rbx,%rbx
    1574:	75 ea                	jne    1560 <free@@Base+0x3b0>
    1576:	48 83 c4 08          	add    $0x8,%rsp
    157a:	48 89 e8             	mov    %rbp,%rax
    157d:	5b                   	pop    %rbx
    157e:	5d                   	pop    %rbp
    157f:	c3                   	retq   
    1580:	31 ed                	xor    %ebp,%ebp
    1582:	48 83 c4 08          	add    $0x8,%rsp
    1586:	48 89 e8             	mov    %rbp,%rax
    1589:	5b                   	pop    %rbx
    158a:	5d                   	pop    %rbp
    158b:	c3                   	retq   
    158c:	0f 1f 40 00          	nopl   0x0(%rax)
    1590:	41 55                	push   %r13
    1592:	41 54                	push   %r12
    1594:	48 89 f1             	mov    %rsi,%rcx
    1597:	55                   	push   %rbp
    1598:	53                   	push   %rbx
    1599:	48 89 fb             	mov    %rdi,%rbx
    159c:	48 8d 7e 08          	lea    0x8(%rsi),%rdi
    15a0:	31 c0                	xor    %eax,%eax
    15a2:	49 89 f4             	mov    %rsi,%r12
    15a5:	48 83 ec 08          	sub    $0x8,%rsp
    15a9:	48 8d ae ff 0f 00 00 	lea    0xfff(%rsi),%rbp
    15b0:	48 c7 06 00 00 00 00 	movq   $0x0,(%rsi)
    15b7:	48 83 e7 f8          	and    $0xfffffffffffffff8,%rdi
    15bb:	48 c7 86 f8 0f 00 00 	movq   $0x0,0xff8(%rsi)
    15c2:	00 00 00 00 
    15c6:	48 29 f9             	sub    %rdi,%rcx
    15c9:	81 c1 00 10 00 00    	add    $0x1000,%ecx
    15cf:	c1 e9 03             	shr    $0x3,%ecx
    15d2:	48 85 db             	test   %rbx,%rbx
    15d5:	f3 48 ab             	rep stos %rax,%es:(%rdi)
    15d8:	75 21                	jne    15fb <free@@Base+0x44b>
    15da:	eb 4c                	jmp    1628 <free@@Base+0x478>
    15dc:	0f 1f 40 00          	nopl   0x0(%rax)
    15e0:	4c 89 ee             	mov    %r13,%rsi
    15e3:	48 89 cf             	mov    %rcx,%rdi
    15e6:	e8 b5 f7 ff ff       	callq  da0 <memcpy@plt>
    15eb:	c6 40 ff 2f          	movb   $0x2f,-0x1(%rax)
    15ef:	48 8b 1b             	mov    (%rbx),%rbx
    15f2:	48 8d 68 ff          	lea    -0x1(%rax),%rbp
    15f6:	48 85 db             	test   %rbx,%rbx
    15f9:	74 2d                	je     1628 <free@@Base+0x478>
    15fb:	4c 8d 6b 0c          	lea    0xc(%rbx),%r13
    15ff:	4c 89 ef             	mov    %r13,%rdi
    1602:	e8 f9 f6 ff ff       	callq  d00 <strlen@plt>
    1607:	48 8d 50 01          	lea    0x1(%rax),%rdx
    160b:	48 f7 d0             	not    %rax
    160e:	48 8d 4c 05 00       	lea    0x0(%rbp,%rax,1),%rcx
    1613:	4c 39 e1             	cmp    %r12,%rcx
    1616:	73 c8                	jae    15e0 <free@@Base+0x430>
    1618:	48 83 c4 08          	add    $0x8,%rsp
    161c:	5b                   	pop    %rbx
    161d:	5d                   	pop    %rbp
    161e:	41 5c                	pop    %r12
    1620:	41 5d                	pop    %r13
    1622:	c3                   	retq   
    1623:	0f 1f 44 00 00       	nopl   0x0(%rax,%rax,1)
    1628:	48 89 ef             	mov    %rbp,%rdi
    162b:	e8 d0 f6 ff ff       	callq  d00 <strlen@plt>
    1630:	48 83 c4 08          	add    $0x8,%rsp
    1634:	48 89 ee             	mov    %rbp,%rsi
    1637:	4c 89 e7             	mov    %r12,%rdi
    163a:	5b                   	pop    %rbx
    163b:	5d                   	pop    %rbp
    163c:	41 5c                	pop    %r12
    163e:	41 5d                	pop    %r13
    1640:	48 89 c2             	mov    %rax,%rdx
    1643:	e9 b8 f7 ff ff       	jmpq   e00 <memmove@plt>
    1648:	0f 1f 84 00 00 00 00 	nopl   0x0(%rax,%rax,1)
    164f:	00 
    1650:	41 56                	push   %r14
    1652:	41 55                	push   %r13
    1654:	48 89 fe             	mov    %rdi,%rsi
    1657:	41 54                	push   %r12
    1659:	55                   	push   %rbp
    165a:	ba 00 10 00 00       	mov    $0x1000,%edx
    165f:	53                   	push   %rbx
    1660:	48 81 ec 10 10 00 00 	sub    $0x1010,%rsp
    1667:	48 8b 2d 62 75 20 00 	mov    0x207562(%rip),%rbp        # 208bd0 <stderr@@GLIBC_2.2.5+0x10>
    166e:	48 89 e3             	mov    %rsp,%rbx
    1671:	48 89 df             	mov    %rbx,%rdi
    1674:	64 48 8b 04 25 28 00 	mov    %fs:0x28,%rax
    167b:	00 00 
    167d:	48 89 84 24 08 10 00 	mov    %rax,0x1008(%rsp)
    1684:	00 
    1685:	31 c0                	xor    %eax,%eax
    1687:	e8 54 f7 ff ff       	callq  de0 <__strcpy_chk@plt>
    168c:	48 8d 3d 6d 1a 00 00 	lea    0x1a6d(%rip),%rdi        # 3100 <free@@Base+0x1f50>
    1693:	b9 06 00 00 00       	mov    $0x6,%ecx
    1698:	48 89 de             	mov    %rbx,%rsi
    169b:	f3 a6                	repz cmpsb %es:(%rdi),%ds:(%rsi)
    169d:	75 0b                	jne    16aa <free@@Base+0x4fa>
    169f:	48 8b 2d 32 75 20 00 	mov    0x207532(%rip),%rbp        # 208bd8 <stderr@@GLIBC_2.2.5+0x18>
    16a6:	48 83 c3 05          	add    $0x5,%rbx
    16aa:	48 8d 35 54 1a 00 00 	lea    0x1a54(%rip),%rsi        # 3105 <free@@Base+0x1f55>
    16b1:	48 89 df             	mov    %rbx,%rdi
    16b4:	4c 8d 2d 4a 1a 00 00 	lea    0x1a4a(%rip),%r13        # 3105 <free@@Base+0x1f55>
    16bb:	e8 50 f7 ff ff       	callq  e10 <strtok@plt>
    16c0:	48 85 c0             	test   %rax,%rax
    16c3:	49 89 c4             	mov    %rax,%r12
    16c6:	4c 0f 44 e3          	cmove  %rbx,%r12
    16ca:	31 db                	xor    %ebx,%ebx
    16cc:	eb 06                	jmp    16d4 <free@@Base+0x524>
    16ce:	66 90                	xchg   %ax,%ax
    16d0:	48 83 c3 01          	add    $0x1,%rbx
    16d4:	48 39 5d 20          	cmp    %rbx,0x20(%rbp)
    16d8:	76 56                	jbe    1730 <free@@Base+0x580>
    16da:	4c 8d 74 dd 00       	lea    0x0(%rbp,%rbx,8),%r14
    16df:	49 8b 7e 28          	mov    0x28(%r14),%rdi
    16e3:	48 85 ff             	test   %rdi,%rdi
    16e6:	74 e8                	je     16d0 <free@@Base+0x520>
    16e8:	48 83 c7 0c          	add    $0xc,%rdi
    16ec:	4c 89 e6             	mov    %r12,%rsi
    16ef:	e8 8c f6 ff ff       	callq  d80 <strcmp@plt>
    16f4:	85 c0                	test   %eax,%eax
    16f6:	75 d8                	jne    16d0 <free@@Base+0x520>
    16f8:	31 ff                	xor    %edi,%edi
    16fa:	4c 89 ee             	mov    %r13,%rsi
    16fd:	e8 0e f7 ff ff       	callq  e10 <strtok@plt>
    1702:	48 85 c0             	test   %rax,%rax
    1705:	49 89 c4             	mov    %rax,%r12
    1708:	74 5e                	je     1768 <free@@Base+0x5b8>
    170a:	49 8b 56 28          	mov    0x28(%r14),%rdx
    170e:	8b 42 08             	mov    0x8(%rdx),%eax
    1711:	83 f8 01             	cmp    $0x1,%eax
    1714:	74 42                	je     1758 <free@@Base+0x5a8>
    1716:	83 f8 05             	cmp    $0x5,%eax
    1719:	75 b5                	jne    16d0 <free@@Base+0x520>
    171b:	48 8b 6a 20          	mov    0x20(%rdx),%rbp
    171f:	31 db                	xor    %ebx,%ebx
    1721:	48 39 5d 20          	cmp    %rbx,0x20(%rbp)
    1725:	77 b3                	ja     16da <free@@Base+0x52a>
    1727:	66 0f 1f 84 00 00 00 	nopw   0x0(%rax,%rax,1)
    172e:	00 00 
    1730:	31 c0                	xor    %eax,%eax
    1732:	48 8b 8c 24 08 10 00 	mov    0x1008(%rsp),%rcx
    1739:	00 
    173a:	64 48 33 0c 25 28 00 	xor    %fs:0x28,%rcx
    1741:	00 00 
    1743:	75 2a                	jne    176f <free@@Base+0x5bf>
    1745:	48 81 c4 10 10 00 00 	add    $0x1010,%rsp
    174c:	5b                   	pop    %rbx
    174d:	5d                   	pop    %rbp
    174e:	41 5c                	pop    %r12
    1750:	41 5d                	pop    %r13
    1752:	41 5e                	pop    %r14
    1754:	c3                   	retq   
    1755:	0f 1f 00             	nopl   (%rax)
    1758:	48 89 d5             	mov    %rdx,%rbp
    175b:	31 db                	xor    %ebx,%ebx
    175d:	e9 72 ff ff ff       	jmpq   16d4 <free@@Base+0x524>
    1762:	66 0f 1f 44 00 00    	nopw   0x0(%rax,%rax,1)
    1768:	48 8b 44 dd 28       	mov    0x28(%rbp,%rbx,8),%rax
    176d:	eb c3                	jmp    1732 <free@@Base+0x582>
    176f:	e8 9c f5 ff ff       	callq  d10 <__stack_chk_fail@plt>
    1774:	66 90                	xchg   %ax,%ax
    1776:	66 2e 0f 1f 84 00 00 	nopw   %cs:0x0(%rax,%rax,1)
    177d:	00 00 00 
    1780:	48 8b 4f 20          	mov    0x20(%rdi),%rcx
    1784:	48 85 c9             	test   %rcx,%rcx
    1787:	74 67                	je     17f0 <free@@Base+0x640>
    1789:	41 55                	push   %r13
    178b:	41 54                	push   %r12
    178d:	49 89 d5             	mov    %rdx,%r13
    1790:	55                   	push   %rbp
    1791:	53                   	push   %rbx
    1792:	49 89 f4             	mov    %rsi,%r12
    1795:	48 89 fd             	mov    %rdi,%rbp
    1798:	31 db                	xor    %ebx,%ebx
    179a:	48 83 ec 08          	sub    $0x8,%rsp
    179e:	48 8b 44 dd 28       	mov    0x28(%rbp,%rbx,8),%rax
    17a3:	48 85 c0             	test   %rax,%rax
    17a6:	74 0f                	je     17b7 <free@@Base+0x607>
    17a8:	8b 78 08             	mov    0x8(%rax),%edi
    17ab:	40 f6 c7 04          	test   $0x4,%dil
    17af:	74 1f                	je     17d0 <free@@Base+0x620>
    17b1:	4c 39 60 20          	cmp    %r12,0x20(%rax)
    17b5:	74 41                	je     17f8 <free@@Base+0x648>
    17b7:	48 83 c3 01          	add    $0x1,%rbx
    17bb:	48 39 cb             	cmp    %rcx,%rbx
    17be:	72 de                	jb     179e <free@@Base+0x5ee>
    17c0:	48 83 c4 08          	add    $0x8,%rsp
    17c4:	5b                   	pop    %rbx
    17c5:	5d                   	pop    %rbp
    17c6:	41 5c                	pop    %r12
    17c8:	41 5d                	pop    %r13
    17ca:	c3                   	retq   
    17cb:	0f 1f 44 00 00       	nopl   0x0(%rax,%rax,1)
    17d0:	83 ff 01             	cmp    $0x1,%edi
    17d3:	75 e2                	jne    17b7 <free@@Base+0x607>
    17d5:	4c 89 ea             	mov    %r13,%rdx
    17d8:	4c 89 e6             	mov    %r12,%rsi
    17db:	48 89 c7             	mov    %rax,%rdi
    17de:	e8 9d ff ff ff       	callq  1780 <free@@Base+0x5d0>
    17e3:	48 8b 4d 20          	mov    0x20(%rbp),%rcx
    17e7:	eb ce                	jmp    17b7 <free@@Base+0x607>
    17e9:	0f 1f 80 00 00 00 00 	nopl   0x0(%rax)
    17f0:	f3 c3                	repz retq 
    17f2:	66 0f 1f 44 00 00    	nopw   0x0(%rax,%rax,1)
    17f8:	4c 89 68 20          	mov    %r13,0x20(%rax)
    17fc:	eb b9                	jmp    17b7 <free@@Base+0x607>
    17fe:	66 90                	xchg   %ax,%ax
    1800:	4c 8b 15 d1 73 20 00 	mov    0x2073d1(%rip),%r10        # 208bd8 <stderr@@GLIBC_2.2.5+0x18>
    1807:	49 8b 42 20          	mov    0x20(%r10),%rax
    180b:	48 85 c0             	test   %rax,%rax
    180e:	0f 84 84 00 00 00    	je     1898 <free@@Base+0x6e8>
    1814:	41 55                	push   %r13
    1816:	41 54                	push   %r12
    1818:	49 89 fb             	mov    %rdi,%r11
    181b:	55                   	push   %rbp
    181c:	53                   	push   %rbx
    181d:	45 31 c0             	xor    %r8d,%r8d
    1820:	48 89 f3             	mov    %rsi,%rbx
    1823:	48 83 ec 08          	sub    $0x8,%rsp
    1827:	4f 8b 4c c2 28       	mov    0x28(%r10,%r8,8),%r9
    182c:	4d 85 c9             	test   %r9,%r9
    182f:	74 0f                	je     1840 <free@@Base+0x690>
    1831:	41 8b 51 08          	mov    0x8(%r9),%edx
    1835:	f6 c2 04             	test   $0x4,%dl
    1838:	74 1e                	je     1858 <free@@Base+0x6a8>
    183a:	4d 3b 59 20          	cmp    0x20(%r9),%r11
    183e:	74 60                	je     18a0 <free@@Base+0x6f0>
    1840:	49 83 c0 01          	add    $0x1,%r8
    1844:	4c 39 c0             	cmp    %r8,%rax
    1847:	77 de                	ja     1827 <free@@Base+0x677>
    1849:	48 83 c4 08          	add    $0x8,%rsp
    184d:	5b                   	pop    %rbx
    184e:	5d                   	pop    %rbp
    184f:	41 5c                	pop    %r12
    1851:	41 5d                	pop    %r13
    1853:	c3                   	retq   
    1854:	0f 1f 40 00          	nopl   0x0(%rax)
    1858:	83 fa 01             	cmp    $0x1,%edx
    185b:	75 e3                	jne    1840 <free@@Base+0x690>
    185d:	49 8b 51 20          	mov    0x20(%r9),%rdx
    1861:	48 85 d2             	test   %rdx,%rdx
    1864:	74 da                	je     1840 <free@@Base+0x690>
    1866:	31 ed                	xor    %ebp,%ebp
    1868:	4d 8b 64 e9 28       	mov    0x28(%r9,%rbp,8),%r12
    186d:	4d 85 e4             	test   %r12,%r12
    1870:	74 10                	je     1882 <free@@Base+0x6d2>
    1872:	41 8b 44 24 08       	mov    0x8(%r12),%eax
    1877:	a8 04                	test   $0x4,%al
    1879:	74 35                	je     18b0 <free@@Base+0x700>
    187b:	4d 3b 5c 24 20       	cmp    0x20(%r12),%r11
    1880:	74 6b                	je     18ed <free@@Base+0x73d>
    1882:	48 83 c5 01          	add    $0x1,%rbp
    1886:	48 39 d5             	cmp    %rdx,%rbp
    1889:	72 dd                	jb     1868 <free@@Base+0x6b8>
    188b:	49 8b 42 20          	mov    0x20(%r10),%rax
    188f:	eb af                	jmp    1840 <free@@Base+0x690>
    1891:	0f 1f 80 00 00 00 00 	nopl   0x0(%rax)
    1898:	f3 c3                	repz retq 
    189a:	66 0f 1f 44 00 00    	nopw   0x0(%rax,%rax,1)
    18a0:	49 89 59 20          	mov    %rbx,0x20(%r9)
    18a4:	eb 9a                	jmp    1840 <free@@Base+0x690>
    18a6:	66 2e 0f 1f 84 00 00 	nopw   %cs:0x0(%rax,%rax,1)
    18ad:	00 00 00 
    18b0:	83 f8 01             	cmp    $0x1,%eax
    18b3:	75 cd                	jne    1882 <free@@Base+0x6d2>
    18b5:	49 8b 44 24 20       	mov    0x20(%r12),%rax
    18ba:	48 85 c0             	test   %rax,%rax
    18bd:	74 c3                	je     1882 <free@@Base+0x6d2>
    18bf:	45 31 ed             	xor    %r13d,%r13d
    18c2:	4b 8b 7c ec 28       	mov    0x28(%r12,%r13,8),%rdi
    18c7:	48 85 ff             	test   %rdi,%rdi
    18ca:	74 12                	je     18de <free@@Base+0x72e>
    18cc:	8b 57 08             	mov    0x8(%rdi),%edx
    18cf:	f6 c2 04             	test   $0x4,%dl
    18d2:	74 20                	je     18f4 <free@@Base+0x744>
    18d4:	4c 3b 5f 20          	cmp    0x20(%rdi),%r11
    18d8:	75 04                	jne    18de <free@@Base+0x72e>
    18da:	48 89 5f 20          	mov    %rbx,0x20(%rdi)
    18de:	49 83 c5 01          	add    $0x1,%r13
    18e2:	49 39 c5             	cmp    %rax,%r13
    18e5:	72 db                	jb     18c2 <free@@Base+0x712>
    18e7:	49 8b 51 20          	mov    0x20(%r9),%rdx
    18eb:	eb 95                	jmp    1882 <free@@Base+0x6d2>
    18ed:	49 89 5c 24 20       	mov    %rbx,0x20(%r12)
    18f2:	eb 8e                	jmp    1882 <free@@Base+0x6d2>
    18f4:	83 fa 01             	cmp    $0x1,%edx
    18f7:	75 e5                	jne    18de <free@@Base+0x72e>
    18f9:	48 89 da             	mov    %rbx,%rdx
    18fc:	4c 89 de             	mov    %r11,%rsi
    18ff:	e8 7c fe ff ff       	callq  1780 <free@@Base+0x5d0>
    1904:	49 8b 44 24 20       	mov    0x20(%r12),%rax
    1909:	eb d3                	jmp    18de <free@@Base+0x72e>
    190b:	0f 1f 44 00 00       	nopl   0x0(%rax,%rax,1)
    1910:	48 8b 17             	mov    (%rdi),%rdx
    1913:	48 8b 4a 20          	mov    0x20(%rdx),%rcx
    1917:	48 85 c9             	test   %rcx,%rcx
    191a:	74 24                	je     1940 <free@@Base+0x790>
    191c:	31 c0                	xor    %eax,%eax
    191e:	48 3b 7a 28          	cmp    0x28(%rdx),%rdi
    1922:	75 13                	jne    1937 <free@@Base+0x787>
    1924:	eb 5a                	jmp    1980 <free@@Base+0x7d0>
    1926:	66 2e 0f 1f 84 00 00 	nopw   %cs:0x0(%rax,%rax,1)
    192d:	00 00 00 
    1930:	48 39 7c c2 28       	cmp    %rdi,0x28(%rdx,%rax,8)
    1935:	74 49                	je     1980 <free@@Base+0x7d0>
    1937:	48 83 c0 01          	add    $0x1,%rax
    193b:	48 39 c8             	cmp    %rcx,%rax
    193e:	75 f0                	jne    1930 <free@@Base+0x780>
    1940:	4c 8b 1d 91 72 20 00 	mov    0x207291(%rip),%r11        # 208bd8 <stderr@@GLIBC_2.2.5+0x18>
    1947:	49 8b 43 20          	mov    0x20(%r11),%rax
    194b:	48 85 c0             	test   %rax,%rax
    194e:	74 49                	je     1999 <free@@Base+0x7e9>
    1950:	49 89 f9             	mov    %rdi,%r9
    1953:	45 31 c0             	xor    %r8d,%r8d
    1956:	4f 8b 54 c3 28       	mov    0x28(%r11,%r8,8),%r10
    195b:	4d 85 d2             	test   %r10,%r10
    195e:	74 13                	je     1973 <free@@Base+0x7c3>
    1960:	41 8b 52 08          	mov    0x8(%r10),%edx
    1964:	f6 c2 04             	test   $0x4,%dl
    1967:	74 37                	je     19a0 <free@@Base+0x7f0>
    1969:	4d 3b 4a 20          	cmp    0x20(%r10),%r9
    196d:	0f 84 ad 00 00 00    	je     1a20 <free@@Base+0x870>
    1973:	49 83 c0 01          	add    $0x1,%r8
    1977:	49 39 c0             	cmp    %rax,%r8
    197a:	72 da                	jb     1956 <free@@Base+0x7a6>
    197c:	f3 c3                	repz retq 
    197e:	66 90                	xchg   %ax,%ax
    1980:	4c 8b 1d 51 72 20 00 	mov    0x207251(%rip),%r11        # 208bd8 <stderr@@GLIBC_2.2.5+0x18>
    1987:	48 c7 44 c2 28 00 00 	movq   $0x0,0x28(%rdx,%rax,8)
    198e:	00 00 
    1990:	49 8b 43 20          	mov    0x20(%r11),%rax
    1994:	48 85 c0             	test   %rax,%rax
    1997:	75 b7                	jne    1950 <free@@Base+0x7a0>
    1999:	f3 c3                	repz retq 
    199b:	0f 1f 44 00 00       	nopl   0x0(%rax,%rax,1)
    19a0:	83 fa 01             	cmp    $0x1,%edx
    19a3:	75 ce                	jne    1973 <free@@Base+0x7c3>
    19a5:	49 8b 52 20          	mov    0x20(%r10),%rdx
    19a9:	48 85 d2             	test   %rdx,%rdx
    19ac:	74 c5                	je     1973 <free@@Base+0x7c3>
    19ae:	41 54                	push   %r12
    19b0:	55                   	push   %rbp
    19b1:	53                   	push   %rbx
    19b2:	31 db                	xor    %ebx,%ebx
    19b4:	49 8b 6c da 28       	mov    0x28(%r10,%rbx,8),%rbp
    19b9:	48 85 ed             	test   %rbp,%rbp
    19bc:	74 15                	je     19d3 <free@@Base+0x823>
    19be:	8b 45 08             	mov    0x8(%rbp),%eax
    19c1:	a8 04                	test   $0x4,%al
    19c3:	0f 84 7f 00 00 00    	je     1a48 <free@@Base+0x898>
    19c9:	4c 3b 4d 20          	cmp    0x20(%rbp),%r9
    19cd:	0f 84 bc 00 00 00    	je     1a8f <free@@Base+0x8df>
    19d3:	48 83 c3 01          	add    $0x1,%rbx
    19d7:	48 39 d3             	cmp    %rdx,%rbx
    19da:	72 d8                	jb     19b4 <free@@Base+0x804>
    19dc:	49 8b 43 20          	mov    0x20(%r11),%rax
    19e0:	49 83 c0 01          	add    $0x1,%r8
    19e4:	49 39 c0             	cmp    %rax,%r8
    19e7:	73 2a                	jae    1a13 <free@@Base+0x863>
    19e9:	4f 8b 54 c3 28       	mov    0x28(%r11,%r8,8),%r10
    19ee:	4d 85 d2             	test   %r10,%r10
    19f1:	74 ed                	je     19e0 <free@@Base+0x830>
    19f3:	41 8b 52 08          	mov    0x8(%r10),%edx
    19f7:	f6 c2 04             	test   $0x4,%dl
    19fa:	74 34                	je     1a30 <free@@Base+0x880>
    19fc:	4d 3b 4a 20          	cmp    0x20(%r10),%r9
    1a00:	75 de                	jne    19e0 <free@@Base+0x830>
    1a02:	49 83 c0 01          	add    $0x1,%r8
    1a06:	49 c7 42 20 00 00 00 	movq   $0x0,0x20(%r10)
    1a0d:	00 
    1a0e:	49 39 c0             	cmp    %rax,%r8
    1a11:	72 d6                	jb     19e9 <free@@Base+0x839>
    1a13:	5b                   	pop    %rbx
    1a14:	5d                   	pop    %rbp
    1a15:	41 5c                	pop    %r12
    1a17:	c3                   	retq   
    1a18:	0f 1f 84 00 00 00 00 	nopl   0x0(%rax,%rax,1)
    1a1f:	00 
    1a20:	49 c7 42 20 00 00 00 	movq   $0x0,0x20(%r10)
    1a27:	00 
    1a28:	e9 46 ff ff ff       	jmpq   1973 <free@@Base+0x7c3>
    1a2d:	0f 1f 00             	nopl   (%rax)
    1a30:	83 fa 01             	cmp    $0x1,%edx
    1a33:	75 ab                	jne    19e0 <free@@Base+0x830>
    1a35:	49 8b 52 20          	mov    0x20(%r10),%rdx
    1a39:	48 85 d2             	test   %rdx,%rdx
    1a3c:	0f 85 70 ff ff ff    	jne    19b2 <free@@Base+0x802>
    1a42:	eb 9c                	jmp    19e0 <free@@Base+0x830>
    1a44:	0f 1f 40 00          	nopl   0x0(%rax)
    1a48:	83 f8 01             	cmp    $0x1,%eax
    1a4b:	75 86                	jne    19d3 <free@@Base+0x823>
    1a4d:	48 8b 45 20          	mov    0x20(%rbp),%rax
    1a51:	48 85 c0             	test   %rax,%rax
    1a54:	0f 84 79 ff ff ff    	je     19d3 <free@@Base+0x823>
    1a5a:	45 31 e4             	xor    %r12d,%r12d
    1a5d:	4a 8b 7c e5 28       	mov    0x28(%rbp,%r12,8),%rdi
    1a62:	48 85 ff             	test   %rdi,%rdi
    1a65:	74 16                	je     1a7d <free@@Base+0x8cd>
    1a67:	8b 57 08             	mov    0x8(%rdi),%edx
    1a6a:	f6 c2 04             	test   $0x4,%dl
    1a6d:	74 2d                	je     1a9c <free@@Base+0x8ec>
    1a6f:	4c 3b 4f 20          	cmp    0x20(%rdi),%r9
    1a73:	75 08                	jne    1a7d <free@@Base+0x8cd>
    1a75:	48 c7 47 20 00 00 00 	movq   $0x0,0x20(%rdi)
    1a7c:	00 
    1a7d:	49 83 c4 01          	add    $0x1,%r12
    1a81:	49 39 c4             	cmp    %rax,%r12
    1a84:	72 d7                	jb     1a5d <free@@Base+0x8ad>
    1a86:	49 8b 52 20          	mov    0x20(%r10),%rdx
    1a8a:	e9 44 ff ff ff       	jmpq   19d3 <free@@Base+0x823>
    1a8f:	48 c7 45 20 00 00 00 	movq   $0x0,0x20(%rbp)
    1a96:	00 
    1a97:	e9 37 ff ff ff       	jmpq   19d3 <free@@Base+0x823>
    1a9c:	83 fa 01             	cmp    $0x1,%edx
    1a9f:	75 dc                	jne    1a7d <free@@Base+0x8cd>
    1aa1:	31 d2                	xor    %edx,%edx
    1aa3:	4c 89 ce             	mov    %r9,%rsi
    1aa6:	e8 d5 fc ff ff       	callq  1780 <free@@Base+0x5d0>
    1aab:	48 8b 45 20          	mov    0x20(%rbp),%rax
    1aaf:	eb cc                	jmp    1a7d <free@@Base+0x8cd>
    1ab1:	0f 1f 44 00 00       	nopl   0x0(%rax,%rax,1)
    1ab6:	66 2e 0f 1f 84 00 00 	nopw   %cs:0x0(%rax,%rax,1)
    1abd:	00 00 00 
    1ac0:	41 55                	push   %r13
    1ac2:	41 54                	push   %r12
    1ac4:	48 89 fe             	mov    %rdi,%rsi
    1ac7:	55                   	push   %rbp
    1ac8:	53                   	push   %rbx
    1ac9:	ba 00 10 00 00       	mov    $0x1000,%edx
    1ace:	48 81 ec 18 10 00 00 	sub    $0x1018,%rsp
    1ad5:	49 89 e4             	mov    %rsp,%r12
    1ad8:	4c 89 e7             	mov    %r12,%rdi
    1adb:	64 48 8b 04 25 28 00 	mov    %fs:0x28,%rax
    1ae2:	00 00 
    1ae4:	48 89 84 24 08 10 00 	mov    %rax,0x1008(%rsp)
    1aeb:	00 
    1aec:	31 c0                	xor    %eax,%eax
    1aee:	e8 ed f2 ff ff       	callq  de0 <__strcpy_chk@plt>
    1af3:	be 2f 00 00 00       	mov    $0x2f,%esi
    1af8:	4c 89 e7             	mov    %r12,%rdi
    1afb:	e8 40 f2 ff ff       	callq  d40 <strrchr@plt>
    1b00:	48 85 c0             	test   %rax,%rax
    1b03:	0f 84 27 01 00 00    	je     1c30 <free@@Base+0xa80>
    1b09:	c6 00 00             	movb   $0x0,(%rax)
    1b0c:	4c 89 e7             	mov    %r12,%rdi
    1b0f:	48 8d 68 01          	lea    0x1(%rax),%rbp
    1b13:	e8 38 fb ff ff       	callq  1650 <free@@Base+0x4a0>
    1b18:	48 85 c0             	test   %rax,%rax
    1b1b:	48 89 c3             	mov    %rax,%rbx
    1b1e:	0f 84 fc 00 00 00    	je     1c20 <free@@Base+0xa70>
    1b24:	8b 40 08             	mov    0x8(%rax),%eax
    1b27:	83 f8 05             	cmp    $0x5,%eax
    1b2a:	0f 84 20 01 00 00    	je     1c50 <free@@Base+0xaa0>
    1b30:	83 f8 01             	cmp    $0x1,%eax
    1b33:	0f 85 e7 00 00 00    	jne    1c20 <free@@Base+0xa70>
    1b39:	48 8b 4b 20          	mov    0x20(%rbx),%rcx
    1b3d:	48 85 c9             	test   %rcx,%rcx
    1b40:	0f 84 1a 01 00 00    	je     1c60 <free@@Base+0xab0>
    1b46:	48 83 7b 28 00       	cmpq   $0x0,0x28(%rbx)
    1b4b:	0f 84 1f 01 00 00    	je     1c70 <free@@Base+0xac0>
    1b51:	31 d2                	xor    %edx,%edx
    1b53:	eb 12                	jmp    1b67 <free@@Base+0x9b7>
    1b55:	0f 1f 00             	nopl   (%rax)
    1b58:	48 83 7c c3 28 00    	cmpq   $0x0,0x28(%rbx,%rax,8)
    1b5e:	0f 84 dc 00 00 00    	je     1c40 <free@@Base+0xa90>
    1b64:	48 89 c2             	mov    %rax,%rdx
    1b67:	48 8d 42 01          	lea    0x1(%rdx),%rax
    1b6b:	48 39 c8             	cmp    %rcx,%rax
    1b6e:	75 e8                	jne    1b58 <free@@Base+0x9a8>
    1b70:	31 c9                	xor    %ecx,%ecx
    1b72:	48 8b 74 cb 28       	mov    0x28(%rbx,%rcx,8),%rsi
    1b77:	48 83 c1 01          	add    $0x1,%rcx
    1b7b:	48 39 c8             	cmp    %rcx,%rax
    1b7e:	48 89 1e             	mov    %rbx,(%rsi)
    1b81:	75 ef                	jne    1b72 <free@@Base+0x9c2>
    1b83:	48 8d 0c 00          	lea    (%rax,%rax,1),%rcx
    1b87:	4c 8d 24 d5 30 00 00 	lea    0x30(,%rdx,8),%r12
    1b8e:	00 
    1b8f:	49 01 dc             	add    %rbx,%r12
    1b92:	48 89 4b 20          	mov    %rcx,0x20(%rbx)
    1b96:	e8 b5 f2 ff ff       	callq  e50 <rand@plt>
    1b9b:	25 ff ff ff 1f       	and    $0x1fffffff,%eax
    1ba0:	48 89 ee             	mov    %rbp,%rsi
    1ba3:	48 0d 00 00 00 40    	or     $0x40000000,%rax
    1ba9:	48 8d 78 0c          	lea    0xc(%rax),%rdi
    1bad:	49 89 04 24          	mov    %rax,(%r12)
    1bb1:	48 89 18             	mov    %rbx,(%rax)
    1bb4:	c7 40 08 00 00 00 00 	movl   $0x0,0x8(%rax)
    1bbb:	e8 10 f1 ff ff       	callq  cd0 <strcpy@plt>
    1bc0:	4d 8b 2c 24          	mov    (%r12),%r13
    1bc4:	4d 85 ed             	test   %r13,%r13
    1bc7:	74 2a                	je     1bf3 <free@@Base+0xa43>
    1bc9:	4c 89 eb             	mov    %r13,%rbx
    1bcc:	31 ed                	xor    %ebp,%ebp
    1bce:	66 90                	xchg   %ax,%ax
    1bd0:	48 8d 7b 0c          	lea    0xc(%rbx),%rdi
    1bd4:	e8 27 f1 ff ff       	callq  d00 <strlen@plt>
    1bd9:	48 8b 1b             	mov    (%rbx),%rbx
    1bdc:	48 8d 6c 05 01       	lea    0x1(%rbp,%rax,1),%rbp
    1be1:	48 85 db             	test   %rbx,%rbx
    1be4:	75 ea                	jne    1bd0 <free@@Base+0xa20>
    1be6:	48 81 fd ff 0f 00 00 	cmp    $0xfff,%rbp
    1bed:	0f 87 85 00 00 00    	ja     1c78 <free@@Base+0xac8>
    1bf3:	48 8b b4 24 08 10 00 	mov    0x1008(%rsp),%rsi
    1bfa:	00 
    1bfb:	64 48 33 34 25 28 00 	xor    %fs:0x28,%rsi
    1c02:	00 00 
    1c04:	4c 89 e0             	mov    %r12,%rax
    1c07:	75 7f                	jne    1c88 <free@@Base+0xad8>
    1c09:	48 81 c4 18 10 00 00 	add    $0x1018,%rsp
    1c10:	5b                   	pop    %rbx
    1c11:	5d                   	pop    %rbp
    1c12:	41 5c                	pop    %r12
    1c14:	41 5d                	pop    %r13
    1c16:	c3                   	retq   
    1c17:	66 0f 1f 84 00 00 00 	nopw   0x0(%rax,%rax,1)
    1c1e:	00 00 
    1c20:	48 8b 04 25 20 00 00 	mov    0x20,%rax
    1c27:	00 
    1c28:	0f 0b                	ud2    
    1c2a:	66 0f 1f 44 00 00    	nopw   0x0(%rax,%rax,1)
    1c30:	48 8b 1d 99 6f 20 00 	mov    0x206f99(%rip),%rbx        # 208bd0 <stderr@@GLIBC_2.2.5+0x10>
    1c37:	4c 89 e5             	mov    %r12,%rbp
    1c3a:	e9 fa fe ff ff       	jmpq   1b39 <free@@Base+0x989>
    1c3f:	90                   	nop
    1c40:	4c 8d 24 d5 30 00 00 	lea    0x30(,%rdx,8),%r12
    1c47:	00 
    1c48:	49 01 dc             	add    %rbx,%r12
    1c4b:	e9 46 ff ff ff       	jmpq   1b96 <free@@Base+0x9e6>
    1c50:	48 8b 5b 20          	mov    0x20(%rbx),%rbx
    1c54:	e9 e0 fe ff ff       	jmpq   1b39 <free@@Base+0x989>
    1c59:	0f 1f 80 00 00 00 00 	nopl   0x0(%rax)
    1c60:	41 bc 28 00 00 00    	mov    $0x28,%r12d
    1c66:	e9 24 ff ff ff       	jmpq   1b8f <free@@Base+0x9df>
    1c6b:	0f 1f 44 00 00       	nopl   0x0(%rax,%rax,1)
    1c70:	41 bc 28 00 00 00    	mov    $0x28,%r12d
    1c76:	eb d0                	jmp    1c48 <free@@Base+0xa98>
    1c78:	4c 89 ef             	mov    %r13,%rdi
    1c7b:	45 31 e4             	xor    %r12d,%r12d
    1c7e:	e8 8d fc ff ff       	callq  1910 <free@@Base+0x760>
    1c83:	e9 6b ff ff ff       	jmpq   1bf3 <free@@Base+0xa43>
    1c88:	e8 83 f0 ff ff       	callq  d10 <__stack_chk_fail@plt>
    1c8d:	0f 1f 00             	nopl   (%rax)
    1c90:	48 85 ff             	test   %rdi,%rdi
    1c93:	74 2b                	je     1cc0 <free@@Base+0xb10>
    1c95:	48 83 ec 08          	sub    $0x8,%rsp
    1c99:	e8 b2 f9 ff ff       	callq  1650 <free@@Base+0x4a0>
    1c9e:	48 85 c0             	test   %rax,%rax
    1ca1:	74 14                	je     1cb7 <free@@Base+0xb07>
    1ca3:	8b 50 08             	mov    0x8(%rax),%edx
    1ca6:	83 fa 05             	cmp    $0x5,%edx
    1ca9:	74 25                	je     1cd0 <free@@Base+0xb20>
    1cab:	83 fa 01             	cmp    $0x1,%edx
    1cae:	ba 00 00 00 00       	mov    $0x0,%edx
    1cb3:	48 0f 45 c2          	cmovne %rdx,%rax
    1cb7:	48 83 c4 08          	add    $0x8,%rsp
    1cbb:	c3                   	retq   
    1cbc:	0f 1f 40 00          	nopl   0x0(%rax)
    1cc0:	48 8b 05 09 6f 20 00 	mov    0x206f09(%rip),%rax        # 208bd0 <stderr@@GLIBC_2.2.5+0x10>
    1cc7:	c3                   	retq   
    1cc8:	0f 1f 84 00 00 00 00 	nopl   0x0(%rax,%rax,1)
    1ccf:	00 
    1cd0:	48 8b 40 20          	mov    0x20(%rax),%rax
    1cd4:	48 83 c4 08          	add    $0x8,%rsp
    1cd8:	c3                   	retq   
    1cd9:	0f 1f 80 00 00 00 00 	nopl   0x0(%rax)
    1ce0:	48 83 ec 08          	sub    $0x8,%rsp
    1ce4:	e8 67 f9 ff ff       	callq  1650 <free@@Base+0x4a0>
    1ce9:	48 85 c0             	test   %rax,%rax
    1cec:	74 14                	je     1d02 <free@@Base+0xb52>
    1cee:	8b 50 08             	mov    0x8(%rax),%edx
    1cf1:	83 fa 06             	cmp    $0x6,%edx
    1cf4:	74 1a                	je     1d10 <free@@Base+0xb60>
    1cf6:	83 fa 02             	cmp    $0x2,%edx
    1cf9:	ba 00 00 00 00       	mov    $0x0,%edx
    1cfe:	48 0f 45 c2          	cmovne %rdx,%rax
    1d02:	48 83 c4 08          	add    $0x8,%rsp
    1d06:	c3                   	retq   
    1d07:	66 0f 1f 84 00 00 00 	nopw   0x0(%rax,%rax,1)
    1d0e:	00 00 
    1d10:	48 8b 40 20          	mov    0x20(%rax),%rax
    1d14:	48 83 c4 08          	add    $0x8,%rsp
    1d18:	c3                   	retq   
    1d19:	0f 1f 80 00 00 00 00 	nopl   0x0(%rax)
    1d20:	48 83 ec 08          	sub    $0x8,%rsp
    1d24:	e8 27 f9 ff ff       	callq  1650 <free@@Base+0x4a0>
    1d29:	48 85 c0             	test   %rax,%rax
    1d2c:	74 0d                	je     1d3b <free@@Base+0xb8b>
    1d2e:	f6 40 08 04          	testb  $0x4,0x8(%rax)
    1d32:	ba 00 00 00 00       	mov    $0x0,%edx
    1d37:	48 0f 44 c2          	cmove  %rdx,%rax
    1d3b:	48 83 c4 08          	add    $0x8,%rsp
    1d3f:	c3                   	retq   
    1d40:	48 83 ec 08          	sub    $0x8,%rsp
    1d44:	e8 77 fd ff ff       	callq  1ac0 <free@@Base+0x910>
    1d49:	48 8b 10             	mov    (%rax),%rdx
    1d4c:	48 8d 7a 30          	lea    0x30(%rdx),%rdi
    1d50:	89 d0                	mov    %edx,%eax
    1d52:	c7 42 08 01 00 00 00 	movl   $0x1,0x8(%rdx)
    1d59:	48 c7 42 20 10 00 00 	movq   $0x10,0x20(%rdx)
    1d60:	00 
    1d61:	48 c7 42 28 00 00 00 	movq   $0x0,0x28(%rdx)
    1d68:	00 
    1d69:	48 83 e7 f8          	and    $0xfffffffffffffff8,%rdi
    1d6d:	48 c7 82 a0 00 00 00 	movq   $0x0,0xa0(%rdx)
    1d74:	00 00 00 00 
    1d78:	29 f8                	sub    %edi,%eax
    1d7a:	8d 88 a8 00 00 00    	lea    0xa8(%rax),%ecx
    1d80:	31 c0                	xor    %eax,%eax
    1d82:	c1 e9 03             	shr    $0x3,%ecx
    1d85:	f3 48 ab             	rep stos %rax,%es:(%rdi)
    1d88:	48 89 d0             	mov    %rdx,%rax
    1d8b:	48 83 c4 08          	add    $0x8,%rsp
    1d8f:	c3                   	retq   
    1d90:	48 83 ec 08          	sub    $0x8,%rsp
    1d94:	e8 27 fd ff ff       	callq  1ac0 <free@@Base+0x910>
    1d99:	48 8b 00             	mov    (%rax),%rax
    1d9c:	c7 40 08 02 00 00 00 	movl   $0x2,0x8(%rax)
    1da3:	48 c7 40 20 00 00 00 	movq   $0x0,0x20(%rax)
    1daa:	00 
    1dab:	48 83 c4 08          	add    $0x8,%rsp
    1daf:	c3                   	retq   
    1db0:	48 83 ec 08          	sub    $0x8,%rsp
    1db4:	e8 07 fd ff ff       	callq  1ac0 <free@@Base+0x910>
    1db9:	48 8b 00             	mov    (%rax),%rax
    1dbc:	c7 40 08 04 00 00 00 	movl   $0x4,0x8(%rax)
    1dc3:	48 c7 40 20 00 00 00 	movq   $0x0,0x20(%rax)
    1dca:	00 
    1dcb:	48 83 c4 08          	add    $0x8,%rsp
    1dcf:	c3                   	retq   
    1dd0:	48 83 ec 08          	sub    $0x8,%rsp
    1dd4:	31 ff                	xor    %edi,%edi
    1dd6:	e8 55 f0 ff ff       	callq  e30 <exit@plt>
    1ddb:	0f 1f 44 00 00       	nopl   0x0(%rax,%rax,1)
    1de0:	48 83 ec 08          	sub    $0x8,%rsp
    1de4:	48 85 ff             	test   %rdi,%rdi
    1de7:	48 8b 05 e2 6d 20 00 	mov    0x206de2(%rip),%rax        # 208bd0 <stderr@@GLIBC_2.2.5+0x10>
    1dee:	74 38                	je     1e28 <free@@Base+0xc78>
    1df0:	e8 5b f8 ff ff       	callq  1650 <free@@Base+0x4a0>
    1df5:	48 85 c0             	test   %rax,%rax
    1df8:	74 0d                	je     1e07 <free@@Base+0xc57>
    1dfa:	8b 50 08             	mov    0x8(%rax),%edx
    1dfd:	83 fa 05             	cmp    $0x5,%edx
    1e00:	74 1e                	je     1e20 <free@@Base+0xc70>
    1e02:	83 fa 01             	cmp    $0x1,%edx
    1e05:	74 26                	je     1e2d <free@@Base+0xc7d>
    1e07:	48 8d 3d 6a 15 00 00 	lea    0x156a(%rip),%rdi        # 3378 <free@@Base+0x21c8>
    1e0e:	e8 cd ee ff ff       	callq  ce0 <puts@plt>
    1e13:	b8 01 00 00 00       	mov    $0x1,%eax
    1e18:	48 83 c4 08          	add    $0x8,%rsp
    1e1c:	c3                   	retq   
    1e1d:	0f 1f 00             	nopl   (%rax)
    1e20:	48 8b 40 20          	mov    0x20(%rax),%rax
    1e24:	0f 1f 40 00          	nopl   0x0(%rax)
    1e28:	48 85 c0             	test   %rax,%rax
    1e2b:	74 da                	je     1e07 <free@@Base+0xc57>
    1e2d:	48 89 05 9c 6d 20 00 	mov    %rax,0x206d9c(%rip)        # 208bd0 <stderr@@GLIBC_2.2.5+0x10>
    1e34:	b8 01 00 00 00       	mov    $0x1,%eax
    1e39:	48 83 c4 08          	add    $0x8,%rsp
    1e3d:	c3                   	retq   
    1e3e:	66 90                	xchg   %ax,%ax
    1e40:	55                   	push   %rbp
    1e41:	53                   	push   %rbx
    1e42:	48 89 fb             	mov    %rdi,%rbx
    1e45:	48 83 ec 08          	sub    $0x8,%rsp
    1e49:	e8 02 f8 ff ff       	callq  1650 <free@@Base+0x4a0>
    1e4e:	48 85 c0             	test   %rax,%rax
    1e51:	74 7e                	je     1ed1 <free@@Base+0xd21>
    1e53:	48 89 c5             	mov    %rax,%rbp
    1e56:	8b 40 08             	mov    0x8(%rax),%eax
    1e59:	83 f8 06             	cmp    $0x6,%eax
    1e5c:	74 6a                	je     1ec8 <free@@Base+0xd18>
    1e5e:	83 f8 02             	cmp    $0x2,%eax
    1e61:	75 6e                	jne    1ed1 <free@@Base+0xd21>
    1e63:	48 8b 55 20          	mov    0x20(%rbp),%rdx
    1e67:	48 8d 35 ad 12 00 00 	lea    0x12ad(%rip),%rsi        # 311b <free@@Base+0x1f6b>
    1e6e:	31 c0                	xor    %eax,%eax
    1e70:	bf 01 00 00 00       	mov    $0x1,%edi
    1e75:	e8 76 ef ff ff       	callq  df0 <__printf_chk@plt>
    1e7a:	48 8b 5d 20          	mov    0x20(%rbp),%rbx
    1e7e:	48 8b 6d 28          	mov    0x28(%rbp),%rbp
    1e82:	48 85 db             	test   %rbx,%rbx
    1e85:	74 2e                	je     1eb5 <free@@Base+0xd05>
    1e87:	66 0f 1f 84 00 00 00 	nopw   0x0(%rax,%rax,1)
    1e8e:	00 00 
    1e90:	48 8b 0d 09 6d 20 00 	mov    0x206d09(%rip),%rcx        # 208ba0 <stdout@@GLIBC_2.2.5>
    1e97:	48 89 da             	mov    %rbx,%rdx
    1e9a:	be 01 00 00 00       	mov    $0x1,%esi
    1e9f:	48 89 ef             	mov    %rbp,%rdi
    1ea2:	e8 99 ef ff ff       	callq  e40 <fwrite@plt>
    1ea7:	85 c0                	test   %eax,%eax
    1ea9:	78 48                	js     1ef3 <free@@Base+0xd43>
    1eab:	48 98                	cltq   
    1ead:	48 01 c5             	add    %rax,%rbp
    1eb0:	48 29 c3             	sub    %rax,%rbx
    1eb3:	75 db                	jne    1e90 <free@@Base+0xce0>
    1eb5:	48 83 c4 08          	add    $0x8,%rsp
    1eb9:	b8 01 00 00 00       	mov    $0x1,%eax
    1ebe:	5b                   	pop    %rbx
    1ebf:	5d                   	pop    %rbp
    1ec0:	c3                   	retq   
    1ec1:	0f 1f 80 00 00 00 00 	nopl   0x0(%rax)
    1ec8:	48 8b 6d 20          	mov    0x20(%rbp),%rbp
    1ecc:	48 85 ed             	test   %rbp,%rbp
    1ecf:	75 92                	jne    1e63 <free@@Base+0xcb3>
    1ed1:	48 8d 35 48 12 00 00 	lea    0x1248(%rip),%rsi        # 3120 <free@@Base+0x1f70>
    1ed8:	48 89 da             	mov    %rbx,%rdx
    1edb:	bf 01 00 00 00       	mov    $0x1,%edi
    1ee0:	31 c0                	xor    %eax,%eax
    1ee2:	e8 09 ef ff ff       	callq  df0 <__printf_chk@plt>
    1ee7:	48 83 c4 08          	add    $0x8,%rsp
    1eeb:	b8 01 00 00 00       	mov    $0x1,%eax
    1ef0:	5b                   	pop    %rbx
    1ef1:	5d                   	pop    %rbp
    1ef2:	c3                   	retq   
    1ef3:	e8 c8 ed ff ff       	callq  cc0 <abort@plt>
    1ef8:	0f 1f 84 00 00 00 00 	nopl   0x0(%rax,%rax,1)
    1eff:	00 
    1f00:	48 8d 3d 2f 12 00 00 	lea    0x122f(%rip),%rdi        # 3136 <free@@Base+0x1f86>
    1f07:	48 83 ec 08          	sub    $0x8,%rsp
    1f0b:	e8 d0 ed ff ff       	callq  ce0 <puts@plt>
    1f10:	48 8d 3d 99 14 00 00 	lea    0x1499(%rip),%rdi        # 33b0 <free@@Base+0x2200>
    1f17:	e8 c4 ed ff ff       	callq  ce0 <puts@plt>
    1f1c:	48 8d 3d bd 14 00 00 	lea    0x14bd(%rip),%rdi        # 33e0 <free@@Base+0x2230>
    1f23:	e8 b8 ed ff ff       	callq  ce0 <puts@plt>
    1f28:	48 8d 3d f9 14 00 00 	lea    0x14f9(%rip),%rdi        # 3428 <free@@Base+0x2278>
    1f2f:	e8 ac ed ff ff       	callq  ce0 <puts@plt>
    1f34:	48 8d 3d 25 15 00 00 	lea    0x1525(%rip),%rdi        # 3460 <free@@Base+0x22b0>
    1f3b:	e8 a0 ed ff ff       	callq  ce0 <puts@plt>
    1f40:	48 8d 3d 61 15 00 00 	lea    0x1561(%rip),%rdi        # 34a8 <free@@Base+0x22f8>
    1f47:	e8 94 ed ff ff       	callq  ce0 <puts@plt>
    1f4c:	48 8d 3d 95 15 00 00 	lea    0x1595(%rip),%rdi        # 34e8 <free@@Base+0x2338>
    1f53:	e8 88 ed ff ff       	callq  ce0 <puts@plt>
    1f58:	48 8d 3d b9 15 00 00 	lea    0x15b9(%rip),%rdi        # 3518 <free@@Base+0x2368>
    1f5f:	e8 7c ed ff ff       	callq  ce0 <puts@plt>
    1f64:	48 8d 3d f5 15 00 00 	lea    0x15f5(%rip),%rdi        # 3560 <free@@Base+0x23b0>
    1f6b:	e8 70 ed ff ff       	callq  ce0 <puts@plt>
    1f70:	48 8d 3d 19 16 00 00 	lea    0x1619(%rip),%rdi        # 3590 <free@@Base+0x23e0>
    1f77:	e8 64 ed ff ff       	callq  ce0 <puts@plt>
    1f7c:	48 8d 3d 45 16 00 00 	lea    0x1645(%rip),%rdi        # 35c8 <free@@Base+0x2418>
    1f83:	e8 58 ed ff ff       	callq  ce0 <puts@plt>
    1f88:	48 8d 3d 79 16 00 00 	lea    0x1679(%rip),%rdi        # 3608 <free@@Base+0x2458>
    1f8f:	e8 4c ed ff ff       	callq  ce0 <puts@plt>
    1f94:	b8 01 00 00 00       	mov    $0x1,%eax
    1f99:	48 83 c4 08          	add    $0x8,%rsp
    1f9d:	c3                   	retq   
    1f9e:	66 90                	xchg   %ax,%ax
    1fa0:	55                   	push   %rbp
    1fa1:	53                   	push   %rbx
    1fa2:	48 89 fb             	mov    %rdi,%rbx
    1fa5:	48 83 ec 08          	sub    $0x8,%rsp
    1fa9:	48 85 ff             	test   %rdi,%rdi
    1fac:	74 62                	je     2010 <free@@Base+0xe60>
    1fae:	e8 9d f6 ff ff       	callq  1650 <free@@Base+0x4a0>
    1fb3:	48 85 c0             	test   %rax,%rax
    1fb6:	48 89 c5             	mov    %rax,%rbp
    1fb9:	74 61                	je     201c <free@@Base+0xe6c>
    1fbb:	8b 40 08             	mov    0x8(%rax),%eax
    1fbe:	83 f8 05             	cmp    $0x5,%eax
    1fc1:	0f 84 91 00 00 00    	je     2058 <free@@Base+0xea8>
    1fc7:	83 f8 01             	cmp    $0x1,%eax
    1fca:	75 50                	jne    201c <free@@Base+0xe6c>
    1fcc:	48 8b 45 20          	mov    0x20(%rbp),%rax
    1fd0:	31 db                	xor    %ebx,%ebx
    1fd2:	48 85 c0             	test   %rax,%rax
    1fd5:	74 29                	je     2000 <free@@Base+0xe50>
    1fd7:	66 0f 1f 84 00 00 00 	nopw   0x0(%rax,%rax,1)
    1fde:	00 00 
    1fe0:	48 8b 7c dd 28       	mov    0x28(%rbp,%rbx,8),%rdi
    1fe5:	48 85 ff             	test   %rdi,%rdi
    1fe8:	74 56                	je     2040 <free@@Base+0xe90>
    1fea:	48 83 c7 0c          	add    $0xc,%rdi
    1fee:	48 83 c3 01          	add    $0x1,%rbx
    1ff2:	e8 e9 ec ff ff       	callq  ce0 <puts@plt>
    1ff7:	48 8b 45 20          	mov    0x20(%rbp),%rax
    1ffb:	48 39 d8             	cmp    %rbx,%rax
    1ffe:	77 e0                	ja     1fe0 <free@@Base+0xe30>
    2000:	48 83 c4 08          	add    $0x8,%rsp
    2004:	b8 01 00 00 00       	mov    $0x1,%eax
    2009:	5b                   	pop    %rbx
    200a:	5d                   	pop    %rbp
    200b:	c3                   	retq   
    200c:	0f 1f 40 00          	nopl   0x0(%rax)
    2010:	48 8b 2d b9 6b 20 00 	mov    0x206bb9(%rip),%rbp        # 208bd0 <stderr@@GLIBC_2.2.5+0x10>
    2017:	48 85 ed             	test   %rbp,%rbp
    201a:	75 b0                	jne    1fcc <free@@Base+0xe1c>
    201c:	48 8d 35 27 11 00 00 	lea    0x1127(%rip),%rsi        # 314a <free@@Base+0x1f9a>
    2023:	48 89 da             	mov    %rbx,%rdx
    2026:	bf 01 00 00 00       	mov    $0x1,%edi
    202b:	31 c0                	xor    %eax,%eax
    202d:	e8 be ed ff ff       	callq  df0 <__printf_chk@plt>
    2032:	48 83 c4 08          	add    $0x8,%rsp
    2036:	b8 01 00 00 00       	mov    $0x1,%eax
    203b:	5b                   	pop    %rbx
    203c:	5d                   	pop    %rbp
    203d:	c3                   	retq   
    203e:	66 90                	xchg   %ax,%ax
    2040:	48 83 c3 01          	add    $0x1,%rbx
    2044:	48 39 c3             	cmp    %rax,%rbx
    2047:	72 97                	jb     1fe0 <free@@Base+0xe30>
    2049:	48 83 c4 08          	add    $0x8,%rsp
    204d:	b8 01 00 00 00       	mov    $0x1,%eax
    2052:	5b                   	pop    %rbx
    2053:	5d                   	pop    %rbp
    2054:	c3                   	retq   
    2055:	0f 1f 00             	nopl   (%rax)
    2058:	48 8b 6d 20          	mov    0x20(%rbp),%rbp
    205c:	eb b9                	jmp    2017 <free@@Base+0xe67>
    205e:	66 90                	xchg   %ax,%ax
    2060:	55                   	push   %rbp
    2061:	53                   	push   %rbx
    2062:	48 89 fd             	mov    %rdi,%rbp
    2065:	48 83 ec 08          	sub    $0x8,%rsp
    2069:	e8 e2 f5 ff ff       	callq  1650 <free@@Base+0x4a0>
    206e:	48 85 c0             	test   %rax,%rax
    2071:	74 1d                	je     2090 <free@@Base+0xee0>
    2073:	48 8d 3d c6 15 00 00 	lea    0x15c6(%rip),%rdi        # 3640 <free@@Base+0x2490>
    207a:	e8 61 ec ff ff       	callq  ce0 <puts@plt>
    207f:	48 83 c4 08          	add    $0x8,%rsp
    2083:	b8 01 00 00 00       	mov    $0x1,%eax
    2088:	5b                   	pop    %rbx
    2089:	5d                   	pop    %rbp
    208a:	c3                   	retq   
    208b:	0f 1f 44 00 00       	nopl   0x0(%rax,%rax,1)
    2090:	48 89 ef             	mov    %rbp,%rdi
    2093:	48 89 c3             	mov    %rax,%rbx
    2096:	e8 25 fa ff ff       	callq  1ac0 <free@@Base+0x910>
    209b:	48 8b 00             	mov    (%rax),%rax
    209e:	48 8d 78 30          	lea    0x30(%rax),%rdi
    20a2:	c7 40 08 01 00 00 00 	movl   $0x1,0x8(%rax)
    20a9:	48 c7 40 20 10 00 00 	movq   $0x10,0x20(%rax)
    20b0:	00 
    20b1:	48 c7 40 28 00 00 00 	movq   $0x0,0x28(%rax)
    20b8:	00 
    20b9:	48 c7 80 a0 00 00 00 	movq   $0x0,0xa0(%rax)
    20c0:	00 00 00 00 
    20c4:	48 83 e7 f8          	and    $0xfffffffffffffff8,%rdi
    20c8:	29 f8                	sub    %edi,%eax
    20ca:	8d 88 a8 00 00 00    	lea    0xa8(%rax),%ecx
    20d0:	48 89 d8             	mov    %rbx,%rax
    20d3:	c1 e9 03             	shr    $0x3,%ecx
    20d6:	f3 48 ab             	rep stos %rax,%es:(%rdi)
    20d9:	48 83 c4 08          	add    $0x8,%rsp
    20dd:	b8 01 00 00 00       	mov    $0x1,%eax
    20e2:	5b                   	pop    %rbx
    20e3:	5d                   	pop    %rbp
    20e4:	c3                   	retq   
    20e5:	90                   	nop
    20e6:	66 2e 0f 1f 84 00 00 	nopw   %cs:0x0(%rax,%rax,1)
    20ed:	00 00 00 
    20f0:	41 54                	push   %r12
    20f2:	55                   	push   %rbp
    20f3:	53                   	push   %rbx
    20f4:	48 89 fb             	mov    %rdi,%rbx
    20f7:	48 83 ec 30          	sub    $0x30,%rsp
    20fb:	64 48 8b 04 25 28 00 	mov    %fs:0x28,%rax
    2102:	00 00 
    2104:	48 89 44 24 28       	mov    %rax,0x28(%rsp)
    2109:	31 c0                	xor    %eax,%eax
    210b:	e8 40 f5 ff ff       	callq  1650 <free@@Base+0x4a0>
    2110:	48 85 c0             	test   %rax,%rax
    2113:	48 89 df             	mov    %rbx,%rdi
    2116:	0f 84 0c 01 00 00    	je     2228 <free@@Base+0x1078>
    211c:	e8 2f f5 ff ff       	callq  1650 <free@@Base+0x4a0>
    2121:	48 85 c0             	test   %rax,%rax
    2124:	49 89 c4             	mov    %rax,%r12
    2127:	0f 84 c1 00 00 00    	je     21ee <free@@Base+0x103e>
    212d:	8b 40 08             	mov    0x8(%rax),%eax
    2130:	83 f8 06             	cmp    $0x6,%eax
    2133:	0f 84 a7 00 00 00    	je     21e0 <free@@Base+0x1030>
    2139:	83 f8 02             	cmp    $0x2,%eax
    213c:	0f 85 ac 00 00 00    	jne    21ee <free@@Base+0x103e>
    2142:	48 8d 5c 24 10       	lea    0x10(%rsp),%rbx
    2147:	48 8b 15 62 6a 20 00 	mov    0x206a62(%rip),%rdx        # 208bb0 <stdin@@GLIBC_2.2.5>
    214e:	be 10 00 00 00       	mov    $0x10,%esi
    2153:	48 89 df             	mov    %rbx,%rdi
    2156:	e8 15 ec ff ff       	callq  d70 <fgets@plt>
    215b:	48 85 c0             	test   %rax,%rax
    215e:	0f 84 a0 00 00 00    	je     2204 <free@@Base+0x1054>
    2164:	48 8d 54 24 08       	lea    0x8(%rsp),%rdx
    2169:	48 8d 35 f4 0f 00 00 	lea    0xff4(%rip),%rsi        # 3164 <free@@Base+0x1fb4>
    2170:	31 c0                	xor    %eax,%eax
    2172:	48 89 df             	mov    %rbx,%rdi
    2175:	e8 56 ec ff ff       	callq  dd0 <__isoc99_sscanf@plt>
    217a:	48 8b 54 24 08       	mov    0x8(%rsp),%rdx
    217f:	49 39 54 24 20       	cmp    %rdx,0x20(%r12)
    2184:	0f 82 c6 00 00 00    	jb     2250 <free@@Base+0x10a0>
    218a:	49 8b 7c 24 28       	mov    0x28(%r12),%rdi
    218f:	31 f6                	xor    %esi,%esi
    2191:	e8 ba eb ff ff       	callq  d50 <memset@plt>
    2196:	48 8b 5c 24 08       	mov    0x8(%rsp),%rbx
    219b:	49 8b 6c 24 28       	mov    0x28(%r12),%rbp
    21a0:	49 89 5c 24 20       	mov    %rbx,0x20(%r12)
    21a5:	48 85 db             	test   %rbx,%rbx
    21a8:	75 10                	jne    21ba <free@@Base+0x100a>
    21aa:	eb 58                	jmp    2204 <free@@Base+0x1054>
    21ac:	0f 1f 40 00          	nopl   0x0(%rax)
    21b0:	48 98                	cltq   
    21b2:	48 01 c5             	add    %rax,%rbp
    21b5:	48 29 c3             	sub    %rax,%rbx
    21b8:	74 4a                	je     2204 <free@@Base+0x1054>
    21ba:	48 8b 0d ef 69 20 00 	mov    0x2069ef(%rip),%rcx        # 208bb0 <stdin@@GLIBC_2.2.5>
    21c1:	48 89 da             	mov    %rbx,%rdx
    21c4:	be 01 00 00 00       	mov    $0x1,%esi
    21c9:	48 89 ef             	mov    %rbp,%rdi
    21cc:	e8 1f eb ff ff       	callq  cf0 <fread@plt>
    21d1:	85 c0                	test   %eax,%eax
    21d3:	79 db                	jns    21b0 <free@@Base+0x1000>
    21d5:	e8 e6 ea ff ff       	callq  cc0 <abort@plt>
    21da:	66 0f 1f 44 00 00    	nopw   0x0(%rax,%rax,1)
    21e0:	4d 8b 64 24 20       	mov    0x20(%r12),%r12
    21e5:	4d 85 e4             	test   %r12,%r12
    21e8:	0f 85 54 ff ff ff    	jne    2142 <free@@Base+0xf92>
    21ee:	48 8d 35 73 14 00 00 	lea    0x1473(%rip),%rsi        # 3668 <free@@Base+0x24b8>
    21f5:	48 89 da             	mov    %rbx,%rdx
    21f8:	bf 01 00 00 00       	mov    $0x1,%edi
    21fd:	31 c0                	xor    %eax,%eax
    21ff:	e8 ec eb ff ff       	callq  df0 <__printf_chk@plt>
    2204:	48 8b 4c 24 28       	mov    0x28(%rsp),%rcx
    2209:	64 48 33 0c 25 28 00 	xor    %fs:0x28,%rcx
    2210:	00 00 
    2212:	b8 01 00 00 00       	mov    $0x1,%eax
    2217:	75 7f                	jne    2298 <free@@Base+0x10e8>
    2219:	48 83 c4 30          	add    $0x30,%rsp
    221d:	5b                   	pop    %rbx
    221e:	5d                   	pop    %rbp
    221f:	41 5c                	pop    %r12
    2221:	c3                   	retq   
    2222:	66 0f 1f 44 00 00    	nopw   0x0(%rax,%rax,1)
    2228:	e8 93 f8 ff ff       	callq  1ac0 <free@@Base+0x910>
    222d:	4c 8b 20             	mov    (%rax),%r12
    2230:	41 c7 44 24 08 02 00 	movl   $0x2,0x8(%r12)
    2237:	00 00 
    2239:	49 c7 44 24 20 00 00 	movq   $0x0,0x20(%r12)
    2240:	00 00 
    2242:	e9 fb fe ff ff       	jmpq   2142 <free@@Base+0xf92>
    2247:	66 0f 1f 84 00 00 00 	nopw   0x0(%rax,%rax,1)
    224e:	00 00 
    2250:	48 81 fa ff ff 00 00 	cmp    $0xffff,%rdx
    2257:	76 17                	jbe    2270 <free@@Base+0x10c0>
    2259:	49 c7 44 24 28 00 00 	movq   $0x0,0x28(%r12)
    2260:	00 00 
    2262:	49 c7 44 24 20 00 00 	movq   $0x0,0x20(%r12)
    2269:	00 00 
    226b:	eb 97                	jmp    2204 <free@@Base+0x1054>
    226d:	0f 1f 00             	nopl   (%rax)
    2270:	e8 db eb ff ff       	callq  e50 <rand@plt>
    2275:	48 8b 5c 24 08       	mov    0x8(%rsp),%rbx
    227a:	89 c5                	mov    %eax,%ebp
    227c:	81 e5 ff ff ff 1f    	and    $0x1fffffff,%ebp
    2282:	48 81 cd 00 00 00 40 	or     $0x40000000,%rbp
    2289:	49 89 6c 24 28       	mov    %rbp,0x28(%r12)
    228e:	49 89 5c 24 20       	mov    %rbx,0x20(%r12)
    2293:	e9 0d ff ff ff       	jmpq   21a5 <free@@Base+0xff5>
    2298:	e8 73 ea ff ff       	callq  d10 <__stack_chk_fail@plt>
    229d:	0f 1f 00             	nopl   (%rax)
    22a0:	41 55                	push   %r13
    22a2:	41 54                	push   %r12
    22a4:	b9 00 02 00 00       	mov    $0x200,%ecx
    22a9:	55                   	push   %rbp
    22aa:	53                   	push   %rbx
    22ab:	48 81 ec 18 10 00 00 	sub    $0x1018,%rsp
    22b2:	48 8b 1d 17 69 20 00 	mov    0x206917(%rip),%rbx        # 208bd0 <stderr@@GLIBC_2.2.5+0x10>
    22b9:	64 48 8b 04 25 28 00 	mov    %fs:0x28,%rax
    22c0:	00 00 
    22c2:	48 89 84 24 08 10 00 	mov    %rax,0x1008(%rsp)
    22c9:	00 
    22ca:	31 c0                	xor    %eax,%eax
    22cc:	49 89 e4             	mov    %rsp,%r12
    22cf:	4c 89 e7             	mov    %r12,%rdi
    22d2:	48 85 db             	test   %rbx,%rbx
    22d5:	49 8d ac 24 ff 0f 00 	lea    0xfff(%r12),%rbp
    22dc:	00 
    22dd:	f3 48 ab             	rep stos %rax,%es:(%rdi)
    22e0:	75 21                	jne    2303 <free@@Base+0x1153>
    22e2:	eb 7c                	jmp    2360 <free@@Base+0x11b0>
    22e4:	0f 1f 40 00          	nopl   0x0(%rax)
    22e8:	4c 89 ee             	mov    %r13,%rsi
    22eb:	48 89 cf             	mov    %rcx,%rdi
    22ee:	e8 ad ea ff ff       	callq  da0 <memcpy@plt>
    22f3:	c6 40 ff 2f          	movb   $0x2f,-0x1(%rax)
    22f7:	48 8b 1b             	mov    (%rbx),%rbx
    22fa:	48 8d 68 ff          	lea    -0x1(%rax),%rbp
    22fe:	48 85 db             	test   %rbx,%rbx
    2301:	74 5d                	je     2360 <free@@Base+0x11b0>
    2303:	4c 8d 6b 0c          	lea    0xc(%rbx),%r13
    2307:	4c 89 ef             	mov    %r13,%rdi
    230a:	e8 f1 e9 ff ff       	callq  d00 <strlen@plt>
    230f:	48 8d 50 01          	lea    0x1(%rax),%rdx
    2313:	48 f7 d0             	not    %rax
    2316:	48 8d 4c 05 00       	lea    0x0(%rbp,%rax,1),%rcx
    231b:	4c 39 e1             	cmp    %r12,%rcx
    231e:	73 c8                	jae    22e8 <free@@Base+0x1138>
    2320:	48 8d 35 41 0e 00 00 	lea    0xe41(%rip),%rsi        # 3168 <free@@Base+0x1fb8>
    2327:	31 c0                	xor    %eax,%eax
    2329:	4c 89 e2             	mov    %r12,%rdx
    232c:	bf 01 00 00 00       	mov    $0x1,%edi
    2331:	e8 ba ea ff ff       	callq  df0 <__printf_chk@plt>
    2336:	48 8b b4 24 08 10 00 	mov    0x1008(%rsp),%rsi
    233d:	00 
    233e:	64 48 33 34 25 28 00 	xor    %fs:0x28,%rsi
    2345:	00 00 
    2347:	b8 01 00 00 00       	mov    $0x1,%eax
    234c:	75 2f                	jne    237d <free@@Base+0x11cd>
    234e:	48 81 c4 18 10 00 00 	add    $0x1018,%rsp
    2355:	5b                   	pop    %rbx
    2356:	5d                   	pop    %rbp
    2357:	41 5c                	pop    %r12
    2359:	41 5d                	pop    %r13
    235b:	c3                   	retq   
    235c:	0f 1f 40 00          	nopl   0x0(%rax)
    2360:	48 89 ef             	mov    %rbp,%rdi
    2363:	e8 98 e9 ff ff       	callq  d00 <strlen@plt>
    2368:	b9 00 10 00 00       	mov    $0x1000,%ecx
    236d:	48 89 c2             	mov    %rax,%rdx
    2370:	48 89 ee             	mov    %rbp,%rsi
    2373:	4c 89 e7             	mov    %r12,%rdi
    2376:	e8 15 ea ff ff       	callq  d90 <__memmove_chk@plt>
    237b:	eb a3                	jmp    2320 <free@@Base+0x1170>
    237d:	e8 8e e9 ff ff       	callq  d10 <__stack_chk_fail@plt>
    2382:	0f 1f 40 00          	nopl   0x0(%rax)
    2386:	66 2e 0f 1f 84 00 00 	nopw   %cs:0x0(%rax,%rax,1)
    238d:	00 00 00 
    2390:	53                   	push   %rbx
    2391:	48 89 fb             	mov    %rdi,%rbx
    2394:	e8 b7 f2 ff ff       	callq  1650 <free@@Base+0x4a0>
    2399:	48 85 c0             	test   %rax,%rax
    239c:	74 1a                	je     23b8 <free@@Base+0x1208>
    239e:	f6 40 08 04          	testb  $0x4,0x8(%rax)
    23a2:	74 14                	je     23b8 <free@@Base+0x1208>
    23a4:	48 89 c7             	mov    %rax,%rdi
    23a7:	e8 64 f5 ff ff       	callq  1910 <free@@Base+0x760>
    23ac:	b8 01 00 00 00       	mov    $0x1,%eax
    23b1:	5b                   	pop    %rbx
    23b2:	c3                   	retq   
    23b3:	0f 1f 44 00 00       	nopl   0x0(%rax,%rax,1)
    23b8:	48 89 df             	mov    %rbx,%rdi
    23bb:	e8 90 f2 ff ff       	callq  1650 <free@@Base+0x4a0>
    23c0:	48 85 c0             	test   %rax,%rax
    23c3:	74 0d                	je     23d2 <free@@Base+0x1222>
    23c5:	8b 50 08             	mov    0x8(%rax),%edx
    23c8:	83 fa 06             	cmp    $0x6,%edx
    23cb:	74 1b                	je     23e8 <free@@Base+0x1238>
    23cd:	83 fa 02             	cmp    $0x2,%edx
    23d0:	74 d2                	je     23a4 <free@@Base+0x11f4>
    23d2:	48 8d 3d bf 12 00 00 	lea    0x12bf(%rip),%rdi        # 3698 <free@@Base+0x24e8>
    23d9:	e8 02 e9 ff ff       	callq  ce0 <puts@plt>
    23de:	b8 01 00 00 00       	mov    $0x1,%eax
    23e3:	5b                   	pop    %rbx
    23e4:	c3                   	retq   
    23e5:	0f 1f 00             	nopl   (%rax)
    23e8:	48 8b 40 20          	mov    0x20(%rax),%rax
    23ec:	48 85 c0             	test   %rax,%rax
    23ef:	75 b3                	jne    23a4 <free@@Base+0x11f4>
    23f1:	eb df                	jmp    23d2 <free@@Base+0x1222>
    23f3:	0f 1f 00             	nopl   (%rax)
    23f6:	66 2e 0f 1f 84 00 00 	nopw   %cs:0x0(%rax,%rax,1)
    23fd:	00 00 00 
    2400:	55                   	push   %rbp
    2401:	53                   	push   %rbx
    2402:	48 83 ec 18          	sub    $0x18,%rsp
    2406:	48 85 ff             	test   %rdi,%rdi
    2409:	48 8b 05 c0 67 20 00 	mov    0x2067c0(%rip),%rax        # 208bd0 <stderr@@GLIBC_2.2.5+0x10>
    2410:	0f 84 aa 00 00 00    	je     24c0 <free@@Base+0x1310>
    2416:	e8 35 f2 ff ff       	callq  1650 <free@@Base+0x4a0>
    241b:	48 85 c0             	test   %rax,%rax
    241e:	0f 84 a5 00 00 00    	je     24c9 <free@@Base+0x1319>
    2424:	8b 50 08             	mov    0x8(%rax),%edx
    2427:	83 fa 05             	cmp    $0x5,%edx
    242a:	0f 84 88 00 00 00    	je     24b8 <free@@Base+0x1308>
    2430:	83 fa 01             	cmp    $0x1,%edx
    2433:	0f 85 90 00 00 00    	jne    24c9 <free@@Base+0x1319>
    2439:	48 8b 08             	mov    (%rax),%rcx
    243c:	48 8b 71 20          	mov    0x20(%rcx),%rsi
    2440:	48 85 f6             	test   %rsi,%rsi
    2443:	74 27                	je     246c <free@@Base+0x12bc>
    2445:	31 d2                	xor    %edx,%edx
    2447:	48 39 41 28          	cmp    %rax,0x28(%rcx)
    244b:	75 16                	jne    2463 <free@@Base+0x12b3>
    244d:	e9 de 00 00 00       	jmpq   2530 <free@@Base+0x1380>
    2452:	66 0f 1f 44 00 00    	nopw   0x0(%rax,%rax,1)
    2458:	48 39 44 d1 28       	cmp    %rax,0x28(%rcx,%rdx,8)
    245d:	0f 84 cd 00 00 00    	je     2530 <free@@Base+0x1380>
    2463:	48 83 c2 01          	add    $0x1,%rdx
    2467:	48 39 f2             	cmp    %rsi,%rdx
    246a:	75 ec                	jne    2458 <free@@Base+0x12a8>
    246c:	4c 8b 15 65 67 20 00 	mov    0x206765(%rip),%r10        # 208bd8 <stderr@@GLIBC_2.2.5+0x18>
    2473:	45 31 c0             	xor    %r8d,%r8d
    2476:	49 8b 52 20          	mov    0x20(%r10),%rdx
    247a:	48 85 d2             	test   %rdx,%rdx
    247d:	74 26                	je     24a5 <free@@Base+0x12f5>
    247f:	4f 8b 4c c2 28       	mov    0x28(%r10,%r8,8),%r9
    2484:	4d 85 c9             	test   %r9,%r9
    2487:	74 13                	je     249c <free@@Base+0x12ec>
    2489:	41 8b 49 08          	mov    0x8(%r9),%ecx
    248d:	f6 c1 04             	test   $0x4,%cl
    2490:	74 56                	je     24e8 <free@@Base+0x1338>
    2492:	49 39 41 20          	cmp    %rax,0x20(%r9)
    2496:	0f 84 a4 00 00 00    	je     2540 <free@@Base+0x1390>
    249c:	49 83 c0 01          	add    $0x1,%r8
    24a0:	49 39 d0             	cmp    %rdx,%r8
    24a3:	72 da                	jb     247f <free@@Base+0x12cf>
    24a5:	48 83 c4 18          	add    $0x18,%rsp
    24a9:	b8 01 00 00 00       	mov    $0x1,%eax
    24ae:	5b                   	pop    %rbx
    24af:	5d                   	pop    %rbp
    24b0:	c3                   	retq   
    24b1:	0f 1f 80 00 00 00 00 	nopl   0x0(%rax)
    24b8:	48 8b 40 20          	mov    0x20(%rax),%rax
    24bc:	0f 1f 40 00          	nopl   0x0(%rax)
    24c0:	48 85 c0             	test   %rax,%rax
    24c3:	0f 85 70 ff ff ff    	jne    2439 <free@@Base+0x1289>
    24c9:	48 8d 3d f8 11 00 00 	lea    0x11f8(%rip),%rdi        # 36c8 <free@@Base+0x2518>
    24d0:	e8 0b e8 ff ff       	callq  ce0 <puts@plt>
    24d5:	48 83 c4 18          	add    $0x18,%rsp
    24d9:	b8 01 00 00 00       	mov    $0x1,%eax
    24de:	5b                   	pop    %rbx
    24df:	5d                   	pop    %rbp
    24e0:	c3                   	retq   
    24e1:	0f 1f 80 00 00 00 00 	nopl   0x0(%rax)
    24e8:	83 f9 01             	cmp    $0x1,%ecx
    24eb:	75 af                	jne    249c <free@@Base+0x12ec>
    24ed:	49 8b 49 20          	mov    0x20(%r9),%rcx
    24f1:	48 85 c9             	test   %rcx,%rcx
    24f4:	74 a6                	je     249c <free@@Base+0x12ec>
    24f6:	45 31 db             	xor    %r11d,%r11d
    24f9:	4b 8b 5c d9 28       	mov    0x28(%r9,%r11,8),%rbx
    24fe:	48 85 db             	test   %rbx,%rbx
    2501:	74 12                	je     2515 <free@@Base+0x1365>
    2503:	8b 53 08             	mov    0x8(%rbx),%edx
    2506:	f6 c2 04             	test   $0x4,%dl
    2509:	74 55                	je     2560 <free@@Base+0x13b0>
    250b:	48 39 43 20          	cmp    %rax,0x20(%rbx)
    250f:	0f 84 8d 00 00 00    	je     25a2 <free@@Base+0x13f2>
    2515:	49 83 c3 01          	add    $0x1,%r11
    2519:	49 39 cb             	cmp    %rcx,%r11
    251c:	72 db                	jb     24f9 <free@@Base+0x1349>
    251e:	49 8b 52 20          	mov    0x20(%r10),%rdx
    2522:	e9 75 ff ff ff       	jmpq   249c <free@@Base+0x12ec>
    2527:	66 0f 1f 84 00 00 00 	nopw   0x0(%rax,%rax,1)
    252e:	00 00 
    2530:	48 c7 44 d1 28 00 00 	movq   $0x0,0x28(%rcx,%rdx,8)
    2537:	00 00 
    2539:	e9 2e ff ff ff       	jmpq   246c <free@@Base+0x12bc>
    253e:	66 90                	xchg   %ax,%ax
    2540:	49 83 c0 01          	add    $0x1,%r8
    2544:	49 c7 41 20 00 00 00 	movq   $0x0,0x20(%r9)
    254b:	00 
    254c:	49 39 d0             	cmp    %rdx,%r8
    254f:	0f 82 2a ff ff ff    	jb     247f <free@@Base+0x12cf>
    2555:	e9 4b ff ff ff       	jmpq   24a5 <free@@Base+0x12f5>
    255a:	66 0f 1f 44 00 00    	nopw   0x0(%rax,%rax,1)
    2560:	83 fa 01             	cmp    $0x1,%edx
    2563:	75 b0                	jne    2515 <free@@Base+0x1365>
    2565:	48 8b 53 20          	mov    0x20(%rbx),%rdx
    2569:	48 85 d2             	test   %rdx,%rdx
    256c:	74 a7                	je     2515 <free@@Base+0x1365>
    256e:	31 ed                	xor    %ebp,%ebp
    2570:	48 8b 7c eb 28       	mov    0x28(%rbx,%rbp,8),%rdi
    2575:	48 85 ff             	test   %rdi,%rdi
    2578:	74 16                	je     2590 <free@@Base+0x13e0>
    257a:	8b 4f 08             	mov    0x8(%rdi),%ecx
    257d:	f6 c1 04             	test   $0x4,%cl
    2580:	74 2d                	je     25af <free@@Base+0x13ff>
    2582:	48 39 47 20          	cmp    %rax,0x20(%rdi)
    2586:	75 08                	jne    2590 <free@@Base+0x13e0>
    2588:	48 c7 47 20 00 00 00 	movq   $0x0,0x20(%rdi)
    258f:	00 
    2590:	48 83 c5 01          	add    $0x1,%rbp
    2594:	48 39 d5             	cmp    %rdx,%rbp
    2597:	72 d7                	jb     2570 <free@@Base+0x13c0>
    2599:	49 8b 49 20          	mov    0x20(%r9),%rcx
    259d:	e9 73 ff ff ff       	jmpq   2515 <free@@Base+0x1365>
    25a2:	48 c7 43 20 00 00 00 	movq   $0x0,0x20(%rbx)
    25a9:	00 
    25aa:	e9 66 ff ff ff       	jmpq   2515 <free@@Base+0x1365>
    25af:	83 f9 01             	cmp    $0x1,%ecx
    25b2:	75 dc                	jne    2590 <free@@Base+0x13e0>
    25b4:	31 d2                	xor    %edx,%edx
    25b6:	48 89 c6             	mov    %rax,%rsi
    25b9:	48 89 44 24 08       	mov    %rax,0x8(%rsp)
    25be:	e8 bd f1 ff ff       	callq  1780 <free@@Base+0x5d0>
    25c3:	48 8b 53 20          	mov    0x20(%rbx),%rdx
    25c7:	48 8b 44 24 08       	mov    0x8(%rsp),%rax
    25cc:	eb c2                	jmp    2590 <free@@Base+0x13e0>
    25ce:	66 90                	xchg   %ax,%ax
    25d0:	41 54                	push   %r12
    25d2:	55                   	push   %rbp
    25d3:	48 89 fd             	mov    %rdi,%rbp
    25d6:	53                   	push   %rbx
    25d7:	48 89 f3             	mov    %rsi,%rbx
    25da:	e8 71 f0 ff ff       	callq  1650 <free@@Base+0x4a0>
    25df:	48 89 df             	mov    %rbx,%rdi
    25e2:	49 89 c4             	mov    %rax,%r12
    25e5:	e8 66 f0 ff ff       	callq  1650 <free@@Base+0x4a0>
    25ea:	48 85 c0             	test   %rax,%rax
    25ed:	74 31                	je     2620 <free@@Base+0x1470>
    25ef:	f6 40 08 04          	testb  $0x4,0x8(%rax)
    25f3:	75 45                	jne    263a <free@@Base+0x148a>
    25f5:	48 8d 35 04 11 00 00 	lea    0x1104(%rip),%rsi        # 3700 <free@@Base+0x2550>
    25fc:	48 89 d9             	mov    %rbx,%rcx
    25ff:	48 89 ea             	mov    %rbp,%rdx
    2602:	bf 01 00 00 00       	mov    $0x1,%edi
    2607:	31 c0                	xor    %eax,%eax
    2609:	e8 e2 e7 ff ff       	callq  df0 <__printf_chk@plt>
    260e:	5b                   	pop    %rbx
    260f:	b8 01 00 00 00       	mov    $0x1,%eax
    2614:	5d                   	pop    %rbp
    2615:	41 5c                	pop    %r12
    2617:	c3                   	retq   
    2618:	0f 1f 84 00 00 00 00 	nopl   0x0(%rax,%rax,1)
    261f:	00 
    2620:	48 89 df             	mov    %rbx,%rdi
    2623:	e8 98 f4 ff ff       	callq  1ac0 <free@@Base+0x910>
    2628:	48 8b 00             	mov    (%rax),%rax
    262b:	c7 40 08 04 00 00 00 	movl   $0x4,0x8(%rax)
    2632:	48 c7 40 20 00 00 00 	movq   $0x0,0x20(%rax)
    2639:	00 
    263a:	4d 85 e4             	test   %r12,%r12
    263d:	4c 89 60 20          	mov    %r12,0x20(%rax)
    2641:	74 0f                	je     2652 <free@@Base+0x14a2>
    2643:	41 8b 54 24 08       	mov    0x8(%r12),%edx
    2648:	83 fa 01             	cmp    $0x1,%edx
    264b:	74 2b                	je     2678 <free@@Base+0x14c8>
    264d:	83 fa 02             	cmp    $0x2,%edx
    2650:	74 16                	je     2668 <free@@Base+0x14b8>
    2652:	c7 40 08 04 00 00 00 	movl   $0x4,0x8(%rax)
    2659:	b8 01 00 00 00       	mov    $0x1,%eax
    265e:	5b                   	pop    %rbx
    265f:	5d                   	pop    %rbp
    2660:	41 5c                	pop    %r12
    2662:	c3                   	retq   
    2663:	0f 1f 44 00 00       	nopl   0x0(%rax,%rax,1)
    2668:	c7 40 08 06 00 00 00 	movl   $0x6,0x8(%rax)
    266f:	eb 9d                	jmp    260e <free@@Base+0x145e>
    2671:	0f 1f 80 00 00 00 00 	nopl   0x0(%rax)
    2678:	c7 40 08 05 00 00 00 	movl   $0x5,0x8(%rax)
    267f:	eb 8d                	jmp    260e <free@@Base+0x145e>
    2681:	0f 1f 44 00 00       	nopl   0x0(%rax,%rax,1)
    2686:	66 2e 0f 1f 84 00 00 	nopw   %cs:0x0(%rax,%rax,1)
    268d:	00 00 00 
    2690:	48 8d 3d ef 0a 00 00 	lea    0xaef(%rip),%rdi        # 3186 <free@@Base+0x1fd6>
    2697:	48 83 ec 08          	sub    $0x8,%rsp
    269b:	e8 40 e6 ff ff       	callq  ce0 <puts@plt>
    26a0:	b8 01 00 00 00       	mov    $0x1,%eax
    26a5:	48 83 c4 08          	add    $0x8,%rsp
    26a9:	c3                   	retq   
    26aa:	66 0f 1f 44 00 00    	nopw   0x0(%rax,%rax,1)
    26b0:	41 55                	push   %r13
    26b2:	41 54                	push   %r12
    26b4:	48 8d 35 dc 0a 00 00 	lea    0xadc(%rip),%rsi        # 3197 <free@@Base+0x1fe7>
    26bb:	55                   	push   %rbp
    26bc:	53                   	push   %rbx
    26bd:	bf 01 00 00 00       	mov    $0x1,%edi
    26c2:	48 81 ec 28 40 00 00 	sub    $0x4028,%rsp
    26c9:	64 48 8b 04 25 28 00 	mov    %fs:0x28,%rax
    26d0:	00 00 
    26d2:	48 89 84 24 18 40 00 	mov    %rax,0x4018(%rsp)
    26d9:	00 
    26da:	31 c0                	xor    %eax,%eax
    26dc:	48 8d 9c 24 00 20 00 	lea    0x2000(%rsp),%rbx
    26e3:	00 
    26e4:	e8 07 e7 ff ff       	callq  df0 <__printf_chk@plt>
    26e9:	48 8b 15 c0 64 20 00 	mov    0x2064c0(%rip),%rdx        # 208bb0 <stdin@@GLIBC_2.2.5>
    26f0:	be 0a 20 00 00       	mov    $0x200a,%esi
    26f5:	48 89 df             	mov    %rbx,%rdi
    26f8:	e8 73 e6 ff ff       	callq  d70 <fgets@plt>
    26fd:	48 85 c0             	test   %rax,%rax
    2700:	0f 84 ea 01 00 00    	je     28f0 <free@@Base+0x1740>
    2706:	48 8d 3d 91 0a 00 00 	lea    0xa91(%rip),%rdi        # 319e <free@@Base+0x1fee>
    270d:	b9 03 00 00 00       	mov    $0x3,%ecx
    2712:	48 89 de             	mov    %rbx,%rsi
    2715:	f3 a6                	repz cmpsb %es:(%rdi),%ds:(%rsi)
    2717:	0f 84 9c 07 00 00    	je     2eb9 <free@@Base+0x1d09>
    271d:	48 8d 3d 7e 0a 00 00 	lea    0xa7e(%rip),%rdi        # 31a2 <free@@Base+0x1ff2>
    2724:	b9 02 00 00 00       	mov    $0x2,%ecx
    2729:	48 89 de             	mov    %rbx,%rsi
    272c:	f3 a6                	repz cmpsb %es:(%rdi),%ds:(%rsi)
    272e:	0f 84 64 01 00 00    	je     2898 <free@@Base+0x16e8>
    2734:	48 8d 3d 74 0a 00 00 	lea    0xa74(%rip),%rdi        # 31af <free@@Base+0x1fff>
    273b:	b9 03 00 00 00       	mov    $0x3,%ecx
    2740:	48 89 de             	mov    %rbx,%rsi
    2743:	f3 a6                	repz cmpsb %es:(%rdi),%ds:(%rsi)
    2745:	0f 84 85 02 00 00    	je     29d0 <free@@Base+0x1820>
    274b:	48 8d 3d 6c 0a 00 00 	lea    0xa6c(%rip),%rdi        # 31be <free@@Base+0x200e>
    2752:	b9 04 00 00 00       	mov    $0x4,%ecx
    2757:	48 89 de             	mov    %rbx,%rsi
    275a:	f3 a6                	repz cmpsb %es:(%rdi),%ds:(%rsi)
    275c:	0f 84 1e 03 00 00    	je     2a80 <free@@Base+0x18d0>
    2762:	48 8d 3d 5a 0a 00 00 	lea    0xa5a(%rip),%rdi        # 31c3 <free@@Base+0x2013>
    2769:	b9 02 00 00 00       	mov    $0x2,%ecx
    276e:	48 89 de             	mov    %rbx,%rsi
    2771:	f3 a6                	repz cmpsb %es:(%rdi),%ds:(%rsi)
    2773:	0f 84 b7 01 00 00    	je     2930 <free@@Base+0x1780>
    2779:	48 8d 3d 50 0a 00 00 	lea    0xa50(%rip),%rdi        # 31d0 <free@@Base+0x2020>
    2780:	b9 05 00 00 00       	mov    $0x5,%ecx
    2785:	48 89 de             	mov    %rbx,%rsi
    2788:	f3 a6                	repz cmpsb %es:(%rdi),%ds:(%rsi)
    278a:	0f 84 90 03 00 00    	je     2b20 <free@@Base+0x1970>
    2790:	48 8d 3d 4c 0a 00 00 	lea    0xa4c(%rip),%rdi        # 31e3 <free@@Base+0x2033>
    2797:	b9 03 00 00 00       	mov    $0x3,%ecx
    279c:	48 89 de             	mov    %rbx,%rsi
    279f:	f3 a6                	repz cmpsb %es:(%rdi),%ds:(%rsi)
    27a1:	0f 84 f1 04 00 00    	je     2c98 <free@@Base+0x1ae8>
    27a7:	48 8d 3d 44 0a 00 00 	lea    0xa44(%rip),%rdi        # 31f2 <free@@Base+0x2042>
    27ae:	b9 03 00 00 00       	mov    $0x3,%ecx
    27b3:	48 89 de             	mov    %rbx,%rsi
    27b6:	f3 a6                	repz cmpsb %es:(%rdi),%ds:(%rsi)
    27b8:	0f 84 32 04 00 00    	je     2bf0 <free@@Base+0x1a40>
    27be:	48 8d 3d 31 0a 00 00 	lea    0xa31(%rip),%rdi        # 31f6 <free@@Base+0x2046>
    27c5:	b9 04 00 00 00       	mov    $0x4,%ecx
    27ca:	48 89 de             	mov    %rbx,%rsi
    27cd:	f3 a6                	repz cmpsb %es:(%rdi),%ds:(%rsi)
    27cf:	0f 84 e4 06 00 00    	je     2eb9 <free@@Base+0x1d09>
    27d5:	48 8d 3d 1f 0a 00 00 	lea    0xa1f(%rip),%rdi        # 31fb <free@@Base+0x204b>
    27dc:	b9 05 00 00 00       	mov    $0x5,%ecx
    27e1:	48 89 de             	mov    %rbx,%rsi
    27e4:	f3 a6                	repz cmpsb %es:(%rdi),%ds:(%rsi)
    27e6:	0f 84 14 05 00 00    	je     2d00 <free@@Base+0x1b50>
    27ec:	48 8d 3d 1b 0a 00 00 	lea    0xa1b(%rip),%rdi        # 320e <free@@Base+0x205e>
    27f3:	b9 02 00 00 00       	mov    $0x2,%ecx
    27f8:	48 89 de             	mov    %rbx,%rsi
    27fb:	f3 a6                	repz cmpsb %es:(%rdi),%ds:(%rsi)
    27fd:	0f 84 35 05 00 00    	je     2d38 <free@@Base+0x1b88>
    2803:	48 8d 3d 11 0a 00 00 	lea    0xa11(%rip),%rdi        # 321b <free@@Base+0x206b>
    280a:	b9 07 00 00 00       	mov    $0x7,%ecx
    280f:	48 89 de             	mov    %rbx,%rsi
    2812:	f3 a6                	repz cmpsb %es:(%rdi),%ds:(%rsi)
    2814:	0f 85 9e 00 00 00    	jne    28b8 <free@@Base+0x1708>
    281a:	48 8d ac 24 00 10 00 	lea    0x1000(%rsp),%rbp
    2821:	00 
    2822:	49 89 e4             	mov    %rsp,%r12
    2825:	48 8d 35 f7 09 00 00 	lea    0x9f7(%rip),%rsi        # 3223 <free@@Base+0x2073>
    282c:	31 c0                	xor    %eax,%eax
    282e:	4c 89 e2             	mov    %r12,%rdx
    2831:	48 89 df             	mov    %rbx,%rdi
    2834:	48 89 e9             	mov    %rbp,%rcx
    2837:	e8 94 e5 ff ff       	callq  dd0 <__isoc99_sscanf@plt>
    283c:	85 c0                	test   %eax,%eax
    283e:	78 78                	js     28b8 <free@@Base+0x1708>
    2840:	4c 89 e7             	mov    %r12,%rdi
    2843:	e8 08 ee ff ff       	callq  1650 <free@@Base+0x4a0>
    2848:	48 89 ef             	mov    %rbp,%rdi
    284b:	48 89 c3             	mov    %rax,%rbx
    284e:	e8 fd ed ff ff       	callq  1650 <free@@Base+0x4a0>
    2853:	48 85 c0             	test   %rax,%rax
    2856:	0f 84 39 06 00 00    	je     2e95 <free@@Base+0x1ce5>
    285c:	f6 40 08 04          	testb  $0x4,0x8(%rax)
    2860:	0f 84 e9 05 00 00    	je     2e4f <free@@Base+0x1c9f>
    2866:	48 85 db             	test   %rbx,%rbx
    2869:	48 89 58 20          	mov    %rbx,0x20(%rax)
    286d:	74 15                	je     2884 <free@@Base+0x16d4>
    286f:	8b 53 08             	mov    0x8(%rbx),%edx
    2872:	83 fa 01             	cmp    $0x1,%edx
    2875:	0f 84 45 06 00 00    	je     2ec0 <free@@Base+0x1d10>
    287b:	83 fa 02             	cmp    $0x2,%edx
    287e:	0f 84 4d 06 00 00    	je     2ed1 <free@@Base+0x1d21>
    2884:	c7 40 08 04 00 00 00 	movl   $0x4,0x8(%rax)
    288b:	b8 01 00 00 00       	mov    $0x1,%eax
    2890:	eb 37                	jmp    28c9 <free@@Base+0x1719>
    2892:	66 0f 1f 44 00 00    	nopw   0x0(%rax,%rax,1)
    2898:	48 8d ac 24 00 10 00 	lea    0x1000(%rsp),%rbp
    289f:	00 
    28a0:	48 8d 35 fe 08 00 00 	lea    0x8fe(%rip),%rsi        # 31a5 <free@@Base+0x1ff5>
    28a7:	31 c0                	xor    %eax,%eax
    28a9:	48 89 df             	mov    %rbx,%rdi
    28ac:	48 89 ea             	mov    %rbp,%rdx
    28af:	e8 1c e5 ff ff       	callq  dd0 <__isoc99_sscanf@plt>
    28b4:	85 c0                	test   %eax,%eax
    28b6:	79 40                	jns    28f8 <free@@Base+0x1748>
    28b8:	48 8d 3d c7 08 00 00 	lea    0x8c7(%rip),%rdi        # 3186 <free@@Base+0x1fd6>
    28bf:	e8 1c e4 ff ff       	callq  ce0 <puts@plt>
    28c4:	b8 01 00 00 00       	mov    $0x1,%eax
    28c9:	48 8b 8c 24 18 40 00 	mov    0x4018(%rsp),%rcx
    28d0:	00 
    28d1:	64 48 33 0c 25 28 00 	xor    %fs:0x28,%rcx
    28d8:	00 00 
    28da:	0f 85 d4 05 00 00    	jne    2eb4 <free@@Base+0x1d04>
    28e0:	48 81 c4 28 40 00 00 	add    $0x4028,%rsp
    28e7:	5b                   	pop    %rbx
    28e8:	5d                   	pop    %rbp
    28e9:	41 5c                	pop    %r12
    28eb:	41 5d                	pop    %r13
    28ed:	c3                   	retq   
    28ee:	66 90                	xchg   %ax,%ax
    28f0:	31 c0                	xor    %eax,%eax
    28f2:	eb d5                	jmp    28c9 <free@@Base+0x1719>
    28f4:	0f 1f 40 00          	nopl   0x0(%rax)
    28f8:	48 89 ef             	mov    %rbp,%rdi
    28fb:	e8 50 ed ff ff       	callq  1650 <free@@Base+0x4a0>
    2900:	48 85 c0             	test   %rax,%rax
    2903:	0f 84 d7 03 00 00    	je     2ce0 <free@@Base+0x1b30>
    2909:	8b 50 08             	mov    0x8(%rax),%edx
    290c:	83 fa 05             	cmp    $0x5,%edx
    290f:	0f 84 bb 03 00 00    	je     2cd0 <free@@Base+0x1b20>
    2915:	83 fa 01             	cmp    $0x1,%edx
    2918:	0f 85 c2 03 00 00    	jne    2ce0 <free@@Base+0x1b30>
    291e:	48 89 05 ab 62 20 00 	mov    %rax,0x2062ab(%rip)        # 208bd0 <stderr@@GLIBC_2.2.5+0x10>
    2925:	b8 01 00 00 00       	mov    $0x1,%eax
    292a:	eb 9d                	jmp    28c9 <free@@Base+0x1719>
    292c:	0f 1f 40 00          	nopl   0x0(%rax)
    2930:	48 8d ac 24 00 10 00 	lea    0x1000(%rsp),%rbp
    2937:	00 
    2938:	48 8d 35 87 08 00 00 	lea    0x887(%rip),%rsi        # 31c6 <free@@Base+0x2016>
    293f:	31 c0                	xor    %eax,%eax
    2941:	48 89 df             	mov    %rbx,%rdi
    2944:	48 89 ea             	mov    %rbp,%rdx
    2947:	e8 84 e4 ff ff       	callq  dd0 <__isoc99_sscanf@plt>
    294c:	85 c0                	test   %eax,%eax
    294e:	0f 88 1c 02 00 00    	js     2b70 <free@@Base+0x19c0>
    2954:	48 89 ef             	mov    %rbp,%rdi
    2957:	e8 f4 ec ff ff       	callq  1650 <free@@Base+0x4a0>
    295c:	48 85 c0             	test   %rax,%rax
    295f:	49 89 c4             	mov    %rax,%r12
    2962:	0f 84 78 04 00 00    	je     2de0 <free@@Base+0x1c30>
    2968:	8b 40 08             	mov    0x8(%rax),%eax
    296b:	83 f8 05             	cmp    $0x5,%eax
    296e:	0f 84 5c 04 00 00    	je     2dd0 <free@@Base+0x1c20>
    2974:	83 f8 01             	cmp    $0x1,%eax
    2977:	0f 85 63 04 00 00    	jne    2de0 <free@@Base+0x1c30>
    297d:	49 8b 44 24 20       	mov    0x20(%r12),%rax
    2982:	31 db                	xor    %ebx,%ebx
    2984:	48 85 c0             	test   %rax,%rax
    2987:	0f 84 37 ff ff ff    	je     28c4 <free@@Base+0x1714>
    298d:	49 8b 7c dc 28       	mov    0x28(%r12,%rbx,8),%rdi
    2992:	48 85 ff             	test   %rdi,%rdi
    2995:	74 25                	je     29bc <free@@Base+0x180c>
    2997:	48 83 c7 0c          	add    $0xc,%rdi
    299b:	48 83 c3 01          	add    $0x1,%rbx
    299f:	e8 3c e3 ff ff       	callq  ce0 <puts@plt>
    29a4:	49 8b 44 24 20       	mov    0x20(%r12),%rax
    29a9:	48 39 d8             	cmp    %rbx,%rax
    29ac:	0f 86 12 ff ff ff    	jbe    28c4 <free@@Base+0x1714>
    29b2:	49 8b 7c dc 28       	mov    0x28(%r12,%rbx,8),%rdi
    29b7:	48 85 ff             	test   %rdi,%rdi
    29ba:	75 db                	jne    2997 <free@@Base+0x17e7>
    29bc:	48 83 c3 01          	add    $0x1,%rbx
    29c0:	48 39 c3             	cmp    %rax,%rbx
    29c3:	72 c8                	jb     298d <free@@Base+0x17dd>
    29c5:	e9 fa fe ff ff       	jmpq   28c4 <free@@Base+0x1714>
    29ca:	66 0f 1f 44 00 00    	nopw   0x0(%rax,%rax,1)
    29d0:	48 8d ac 24 00 10 00 	lea    0x1000(%rsp),%rbp
    29d7:	00 
    29d8:	48 8d 35 d4 07 00 00 	lea    0x7d4(%rip),%rsi        # 31b3 <free@@Base+0x2003>
    29df:	31 c0                	xor    %eax,%eax
    29e1:	48 89 df             	mov    %rbx,%rdi
    29e4:	48 89 ea             	mov    %rbp,%rdx
    29e7:	e8 e4 e3 ff ff       	callq  dd0 <__isoc99_sscanf@plt>
    29ec:	85 c0                	test   %eax,%eax
    29ee:	0f 88 c4 fe ff ff    	js     28b8 <free@@Base+0x1708>
    29f4:	48 89 ef             	mov    %rbp,%rdi
    29f7:	e8 54 ec ff ff       	callq  1650 <free@@Base+0x4a0>
    29fc:	48 85 c0             	test   %rax,%rax
    29ff:	49 89 c4             	mov    %rax,%r12
    2a02:	0f 84 c8 01 00 00    	je     2bd0 <free@@Base+0x1a20>
    2a08:	8b 40 08             	mov    0x8(%rax),%eax
    2a0b:	83 f8 06             	cmp    $0x6,%eax
    2a0e:	0f 84 ac 01 00 00    	je     2bc0 <free@@Base+0x1a10>
    2a14:	83 f8 02             	cmp    $0x2,%eax
    2a17:	0f 85 b3 01 00 00    	jne    2bd0 <free@@Base+0x1a20>
    2a1d:	49 8b 54 24 20       	mov    0x20(%r12),%rdx
    2a22:	48 8d 35 f2 06 00 00 	lea    0x6f2(%rip),%rsi        # 311b <free@@Base+0x1f6b>
    2a29:	31 c0                	xor    %eax,%eax
    2a2b:	bf 01 00 00 00       	mov    $0x1,%edi
    2a30:	e8 bb e3 ff ff       	callq  df0 <__printf_chk@plt>
    2a35:	49 8b 5c 24 20       	mov    0x20(%r12),%rbx
    2a3a:	49 8b 6c 24 28       	mov    0x28(%r12),%rbp
    2a3f:	48 85 db             	test   %rbx,%rbx
    2a42:	75 1a                	jne    2a5e <free@@Base+0x18ae>
    2a44:	e9 7b fe ff ff       	jmpq   28c4 <free@@Base+0x1714>
    2a49:	0f 1f 80 00 00 00 00 	nopl   0x0(%rax)
    2a50:	48 98                	cltq   
    2a52:	48 01 c5             	add    %rax,%rbp
    2a55:	48 29 c3             	sub    %rax,%rbx
    2a58:	0f 84 66 fe ff ff    	je     28c4 <free@@Base+0x1714>
    2a5e:	48 8b 0d 3b 61 20 00 	mov    0x20613b(%rip),%rcx        # 208ba0 <stdout@@GLIBC_2.2.5>
    2a65:	48 89 da             	mov    %rbx,%rdx
    2a68:	be 01 00 00 00       	mov    $0x1,%esi
    2a6d:	48 89 ef             	mov    %rbp,%rdi
    2a70:	e8 cb e3 ff ff       	callq  e40 <fwrite@plt>
    2a75:	85 c0                	test   %eax,%eax
    2a77:	79 d7                	jns    2a50 <free@@Base+0x18a0>
    2a79:	e8 42 e2 ff ff       	callq  cc0 <abort@plt>
    2a7e:	66 90                	xchg   %ax,%ax
    2a80:	48 8d 3d af 06 00 00 	lea    0x6af(%rip),%rdi        # 3136 <free@@Base+0x1f86>
    2a87:	e8 54 e2 ff ff       	callq  ce0 <puts@plt>
    2a8c:	48 8d 3d 1d 09 00 00 	lea    0x91d(%rip),%rdi        # 33b0 <free@@Base+0x2200>
    2a93:	e8 48 e2 ff ff       	callq  ce0 <puts@plt>
    2a98:	48 8d 3d 41 09 00 00 	lea    0x941(%rip),%rdi        # 33e0 <free@@Base+0x2230>
    2a9f:	e8 3c e2 ff ff       	callq  ce0 <puts@plt>
    2aa4:	48 8d 3d 7d 09 00 00 	lea    0x97d(%rip),%rdi        # 3428 <free@@Base+0x2278>
    2aab:	e8 30 e2 ff ff       	callq  ce0 <puts@plt>
    2ab0:	48 8d 3d a9 09 00 00 	lea    0x9a9(%rip),%rdi        # 3460 <free@@Base+0x22b0>
    2ab7:	e8 24 e2 ff ff       	callq  ce0 <puts@plt>
    2abc:	48 8d 3d e5 09 00 00 	lea    0x9e5(%rip),%rdi        # 34a8 <free@@Base+0x22f8>
    2ac3:	e8 18 e2 ff ff       	callq  ce0 <puts@plt>
    2ac8:	48 8d 3d 19 0a 00 00 	lea    0xa19(%rip),%rdi        # 34e8 <free@@Base+0x2338>
    2acf:	e8 0c e2 ff ff       	callq  ce0 <puts@plt>
    2ad4:	48 8d 3d 3d 0a 00 00 	lea    0xa3d(%rip),%rdi        # 3518 <free@@Base+0x2368>
    2adb:	e8 00 e2 ff ff       	callq  ce0 <puts@plt>
    2ae0:	48 8d 3d 79 0a 00 00 	lea    0xa79(%rip),%rdi        # 3560 <free@@Base+0x23b0>
    2ae7:	e8 f4 e1 ff ff       	callq  ce0 <puts@plt>
    2aec:	48 8d 3d 9d 0a 00 00 	lea    0xa9d(%rip),%rdi        # 3590 <free@@Base+0x23e0>
    2af3:	e8 e8 e1 ff ff       	callq  ce0 <puts@plt>
    2af8:	48 8d 3d c9 0a 00 00 	lea    0xac9(%rip),%rdi        # 35c8 <free@@Base+0x2418>
    2aff:	e8 dc e1 ff ff       	callq  ce0 <puts@plt>
    2b04:	48 8d 3d fd 0a 00 00 	lea    0xafd(%rip),%rdi        # 3608 <free@@Base+0x2458>
    2b0b:	e8 d0 e1 ff ff       	callq  ce0 <puts@plt>
    2b10:	b8 01 00 00 00       	mov    $0x1,%eax
    2b15:	e9 af fd ff ff       	jmpq   28c9 <free@@Base+0x1719>
    2b1a:	66 0f 1f 44 00 00    	nopw   0x0(%rax,%rax,1)
    2b20:	48 8d ac 24 00 10 00 	lea    0x1000(%rsp),%rbp
    2b27:	00 
    2b28:	48 8d 35 a7 06 00 00 	lea    0x6a7(%rip),%rsi        # 31d6 <free@@Base+0x2026>
    2b2f:	31 c0                	xor    %eax,%eax
    2b31:	48 89 df             	mov    %rbx,%rdi
    2b34:	48 89 ea             	mov    %rbp,%rdx
    2b37:	e8 94 e2 ff ff       	callq  dd0 <__isoc99_sscanf@plt>
    2b3c:	85 c0                	test   %eax,%eax
    2b3e:	0f 88 74 fd ff ff    	js     28b8 <free@@Base+0x1708>
    2b44:	48 89 ef             	mov    %rbp,%rdi
    2b47:	e8 04 eb ff ff       	callq  1650 <free@@Base+0x4a0>
    2b4c:	48 85 c0             	test   %rax,%rax
    2b4f:	48 89 c3             	mov    %rax,%rbx
    2b52:	0f 84 a3 02 00 00    	je     2dfb <free@@Base+0x1c4b>
    2b58:	48 8d 3d e1 0a 00 00 	lea    0xae1(%rip),%rdi        # 3640 <free@@Base+0x2490>
    2b5f:	e8 7c e1 ff ff       	callq  ce0 <puts@plt>
    2b64:	b8 01 00 00 00       	mov    $0x1,%eax
    2b69:	e9 5b fd ff ff       	jmpq   28c9 <free@@Base+0x1719>
    2b6e:	66 90                	xchg   %ax,%ax
    2b70:	48 8b 2d 59 60 20 00 	mov    0x206059(%rip),%rbp        # 208bd0 <stderr@@GLIBC_2.2.5+0x10>
    2b77:	48 85 ed             	test   %rbp,%rbp
    2b7a:	0f 84 cb 02 00 00    	je     2e4b <free@@Base+0x1c9b>
    2b80:	48 8b 45 20          	mov    0x20(%rbp),%rax
    2b84:	31 db                	xor    %ebx,%ebx
    2b86:	48 85 c0             	test   %rax,%rax
    2b89:	0f 84 35 fd ff ff    	je     28c4 <free@@Base+0x1714>
    2b8f:	90                   	nop
    2b90:	48 8b 7c dd 28       	mov    0x28(%rbp,%rbx,8),%rdi
    2b95:	48 85 ff             	test   %rdi,%rdi
    2b98:	0f 84 e2 00 00 00    	je     2c80 <free@@Base+0x1ad0>
    2b9e:	48 83 c7 0c          	add    $0xc,%rdi
    2ba2:	48 83 c3 01          	add    $0x1,%rbx
    2ba6:	e8 35 e1 ff ff       	callq  ce0 <puts@plt>
    2bab:	48 8b 45 20          	mov    0x20(%rbp),%rax
    2baf:	48 39 c3             	cmp    %rax,%rbx
    2bb2:	72 dc                	jb     2b90 <free@@Base+0x19e0>
    2bb4:	e9 0b fd ff ff       	jmpq   28c4 <free@@Base+0x1714>
    2bb9:	0f 1f 80 00 00 00 00 	nopl   0x0(%rax)
    2bc0:	4d 8b 64 24 20       	mov    0x20(%r12),%r12
    2bc5:	4d 85 e4             	test   %r12,%r12
    2bc8:	0f 85 4f fe ff ff    	jne    2a1d <free@@Base+0x186d>
    2bce:	66 90                	xchg   %ax,%ax
    2bd0:	48 8d 35 49 05 00 00 	lea    0x549(%rip),%rsi        # 3120 <free@@Base+0x1f70>
    2bd7:	48 89 ea             	mov    %rbp,%rdx
    2bda:	bf 01 00 00 00       	mov    $0x1,%edi
    2bdf:	31 c0                	xor    %eax,%eax
    2be1:	e8 0a e2 ff ff       	callq  df0 <__printf_chk@plt>
    2be6:	b8 01 00 00 00       	mov    $0x1,%eax
    2beb:	e9 d9 fc ff ff       	jmpq   28c9 <free@@Base+0x1719>
    2bf0:	48 8b 1d d9 5f 20 00 	mov    0x205fd9(%rip),%rbx        # 208bd0 <stderr@@GLIBC_2.2.5+0x10>
    2bf7:	48 8d ac 24 00 10 00 	lea    0x1000(%rsp),%rbp
    2bfe:	00 
    2bff:	31 c0                	xor    %eax,%eax
    2c01:	b9 00 02 00 00       	mov    $0x200,%ecx
    2c06:	48 89 ef             	mov    %rbp,%rdi
    2c09:	4c 8d a5 ff 0f 00 00 	lea    0xfff(%rbp),%r12
    2c10:	48 85 db             	test   %rbx,%rbx
    2c13:	f3 48 ab             	rep stos %rax,%es:(%rdi)
    2c16:	75 27                	jne    2c3f <free@@Base+0x1a8f>
    2c18:	e9 93 01 00 00       	jmpq   2db0 <free@@Base+0x1c00>
    2c1d:	0f 1f 00             	nopl   (%rax)
    2c20:	4c 89 ee             	mov    %r13,%rsi
    2c23:	48 89 cf             	mov    %rcx,%rdi
    2c26:	e8 75 e1 ff ff       	callq  da0 <memcpy@plt>
    2c2b:	c6 40 ff 2f          	movb   $0x2f,-0x1(%rax)
    2c2f:	48 8b 1b             	mov    (%rbx),%rbx
    2c32:	4c 8d 60 ff          	lea    -0x1(%rax),%r12
    2c36:	48 85 db             	test   %rbx,%rbx
    2c39:	0f 84 71 01 00 00    	je     2db0 <free@@Base+0x1c00>
    2c3f:	4c 8d 6b 0c          	lea    0xc(%rbx),%r13
    2c43:	4c 89 ef             	mov    %r13,%rdi
    2c46:	e8 b5 e0 ff ff       	callq  d00 <strlen@plt>
    2c4b:	48 8d 50 01          	lea    0x1(%rax),%rdx
    2c4f:	48 f7 d0             	not    %rax
    2c52:	49 8d 0c 04          	lea    (%r12,%rax,1),%rcx
    2c56:	48 39 e9             	cmp    %rbp,%rcx
    2c59:	73 c5                	jae    2c20 <free@@Base+0x1a70>
    2c5b:	48 8d 35 06 05 00 00 	lea    0x506(%rip),%rsi        # 3168 <free@@Base+0x1fb8>
    2c62:	48 89 ea             	mov    %rbp,%rdx
    2c65:	bf 01 00 00 00       	mov    $0x1,%edi
    2c6a:	31 c0                	xor    %eax,%eax
    2c6c:	e8 7f e1 ff ff       	callq  df0 <__printf_chk@plt>
    2c71:	b8 01 00 00 00       	mov    $0x1,%eax
    2c76:	e9 4e fc ff ff       	jmpq   28c9 <free@@Base+0x1719>
    2c7b:	0f 1f 44 00 00       	nopl   0x0(%rax,%rax,1)
    2c80:	48 83 c3 01          	add    $0x1,%rbx
    2c84:	48 39 c3             	cmp    %rax,%rbx
    2c87:	0f 82 03 ff ff ff    	jb     2b90 <free@@Base+0x19e0>
    2c8d:	e9 32 fc ff ff       	jmpq   28c4 <free@@Base+0x1714>
    2c92:	66 0f 1f 44 00 00    	nopw   0x0(%rax,%rax,1)
    2c98:	48 8d ac 24 00 10 00 	lea    0x1000(%rsp),%rbp
    2c9f:	00 
    2ca0:	48 8d 35 40 05 00 00 	lea    0x540(%rip),%rsi        # 31e7 <free@@Base+0x2037>
    2ca7:	31 c0                	xor    %eax,%eax
    2ca9:	48 89 df             	mov    %rbx,%rdi
    2cac:	48 89 ea             	mov    %rbp,%rdx
    2caf:	e8 1c e1 ff ff       	callq  dd0 <__isoc99_sscanf@plt>
    2cb4:	85 c0                	test   %eax,%eax
    2cb6:	0f 88 fc fb ff ff    	js     28b8 <free@@Base+0x1708>
    2cbc:	48 89 ef             	mov    %rbp,%rdi
    2cbf:	e8 2c f4 ff ff       	callq  20f0 <free@@Base+0xf40>
    2cc4:	e9 00 fc ff ff       	jmpq   28c9 <free@@Base+0x1719>
    2cc9:	0f 1f 80 00 00 00 00 	nopl   0x0(%rax)
    2cd0:	48 8b 40 20          	mov    0x20(%rax),%rax
    2cd4:	48 85 c0             	test   %rax,%rax
    2cd7:	0f 85 41 fc ff ff    	jne    291e <free@@Base+0x176e>
    2cdd:	0f 1f 00             	nopl   (%rax)
    2ce0:	48 8d 3d 91 06 00 00 	lea    0x691(%rip),%rdi        # 3378 <free@@Base+0x21c8>
    2ce7:	e8 f4 df ff ff       	callq  ce0 <puts@plt>
    2cec:	b8 01 00 00 00       	mov    $0x1,%eax
    2cf1:	e9 d3 fb ff ff       	jmpq   28c9 <free@@Base+0x1719>
    2cf6:	66 2e 0f 1f 84 00 00 	nopw   %cs:0x0(%rax,%rax,1)
    2cfd:	00 00 00 
    2d00:	48 8d ac 24 00 10 00 	lea    0x1000(%rsp),%rbp
    2d07:	00 
    2d08:	48 8d 35 f2 04 00 00 	lea    0x4f2(%rip),%rsi        # 3201 <free@@Base+0x2051>
    2d0f:	31 c0                	xor    %eax,%eax
    2d11:	48 89 df             	mov    %rbx,%rdi
    2d14:	48 89 ea             	mov    %rbp,%rdx
    2d17:	e8 b4 e0 ff ff       	callq  dd0 <__isoc99_sscanf@plt>
    2d1c:	85 c0                	test   %eax,%eax
    2d1e:	0f 88 94 fb ff ff    	js     28b8 <free@@Base+0x1708>
    2d24:	48 89 ef             	mov    %rbp,%rdi
    2d27:	e8 d4 f6 ff ff       	callq  2400 <free@@Base+0x1250>
    2d2c:	e9 98 fb ff ff       	jmpq   28c9 <free@@Base+0x1719>
    2d31:	0f 1f 80 00 00 00 00 	nopl   0x0(%rax)
    2d38:	48 8d ac 24 00 10 00 	lea    0x1000(%rsp),%rbp
    2d3f:	00 
    2d40:	48 8d 35 ca 04 00 00 	lea    0x4ca(%rip),%rsi        # 3211 <free@@Base+0x2061>
    2d47:	31 c0                	xor    %eax,%eax
    2d49:	48 89 df             	mov    %rbx,%rdi
    2d4c:	48 89 ea             	mov    %rbp,%rdx
    2d4f:	e8 7c e0 ff ff       	callq  dd0 <__isoc99_sscanf@plt>
    2d54:	85 c0                	test   %eax,%eax
    2d56:	0f 88 5c fb ff ff    	js     28b8 <free@@Base+0x1708>
    2d5c:	48 89 ef             	mov    %rbp,%rdi
    2d5f:	e8 ec e8 ff ff       	callq  1650 <free@@Base+0x4a0>
    2d64:	48 85 c0             	test   %rax,%rax
    2d67:	74 06                	je     2d6f <free@@Base+0x1bbf>
    2d69:	f6 40 08 04          	testb  $0x4,0x8(%rax)
    2d6d:	75 26                	jne    2d95 <free@@Base+0x1be5>
    2d6f:	48 89 ef             	mov    %rbp,%rdi
    2d72:	e8 d9 e8 ff ff       	callq  1650 <free@@Base+0x4a0>
    2d77:	48 85 c0             	test   %rax,%rax
    2d7a:	0f 84 ff 00 00 00    	je     2e7f <free@@Base+0x1ccf>
    2d80:	8b 50 08             	mov    0x8(%rax),%edx
    2d83:	83 fa 06             	cmp    $0x6,%edx
    2d86:	0f 84 e6 00 00 00    	je     2e72 <free@@Base+0x1cc2>
    2d8c:	83 fa 02             	cmp    $0x2,%edx
    2d8f:	0f 85 ea 00 00 00    	jne    2e7f <free@@Base+0x1ccf>
    2d95:	48 89 c7             	mov    %rax,%rdi
    2d98:	e8 73 eb ff ff       	callq  1910 <free@@Base+0x760>
    2d9d:	b8 01 00 00 00       	mov    $0x1,%eax
    2da2:	e9 22 fb ff ff       	jmpq   28c9 <free@@Base+0x1719>
    2da7:	66 0f 1f 84 00 00 00 	nopw   0x0(%rax,%rax,1)
    2dae:	00 00 
    2db0:	4c 89 e7             	mov    %r12,%rdi
    2db3:	e8 48 df ff ff       	callq  d00 <strlen@plt>
    2db8:	b9 00 10 00 00       	mov    $0x1000,%ecx
    2dbd:	48 89 c2             	mov    %rax,%rdx
    2dc0:	4c 89 e6             	mov    %r12,%rsi
    2dc3:	48 89 ef             	mov    %rbp,%rdi
    2dc6:	e8 c5 df ff ff       	callq  d90 <__memmove_chk@plt>
    2dcb:	e9 8b fe ff ff       	jmpq   2c5b <free@@Base+0x1aab>
    2dd0:	4d 8b 64 24 20       	mov    0x20(%r12),%r12
    2dd5:	4d 85 e4             	test   %r12,%r12
    2dd8:	0f 85 9f fb ff ff    	jne    297d <free@@Base+0x17cd>
    2dde:	66 90                	xchg   %ax,%ax
    2de0:	48 89 ea             	mov    %rbp,%rdx
    2de3:	48 8d 35 60 03 00 00 	lea    0x360(%rip),%rsi        # 314a <free@@Base+0x1f9a>
    2dea:	bf 01 00 00 00       	mov    $0x1,%edi
    2def:	31 c0                	xor    %eax,%eax
    2df1:	e8 fa df ff ff       	callq  df0 <__printf_chk@plt>
    2df6:	e9 c9 fa ff ff       	jmpq   28c4 <free@@Base+0x1714>
    2dfb:	48 89 ef             	mov    %rbp,%rdi
    2dfe:	e8 bd ec ff ff       	callq  1ac0 <free@@Base+0x910>
    2e03:	48 8b 00             	mov    (%rax),%rax
    2e06:	48 8d 78 30          	lea    0x30(%rax),%rdi
    2e0a:	c7 40 08 01 00 00 00 	movl   $0x1,0x8(%rax)
    2e11:	48 c7 40 20 10 00 00 	movq   $0x10,0x20(%rax)
    2e18:	00 
    2e19:	48 c7 40 28 00 00 00 	movq   $0x0,0x28(%rax)
    2e20:	00 
    2e21:	48 c7 80 a0 00 00 00 	movq   $0x0,0xa0(%rax)
    2e28:	00 00 00 00 
    2e2c:	48 83 e7 f8          	and    $0xfffffffffffffff8,%rdi
    2e30:	29 f8                	sub    %edi,%eax
    2e32:	8d 88 a8 00 00 00    	lea    0xa8(%rax),%ecx
    2e38:	48 89 d8             	mov    %rbx,%rax
    2e3b:	c1 e9 03             	shr    $0x3,%ecx
    2e3e:	f3 48 ab             	rep stos %rax,%es:(%rdi)
    2e41:	b8 01 00 00 00       	mov    $0x1,%eax
    2e46:	e9 7e fa ff ff       	jmpq   28c9 <free@@Base+0x1719>
    2e4b:	31 d2                	xor    %edx,%edx
    2e4d:	eb 94                	jmp    2de3 <free@@Base+0x1c33>
    2e4f:	48 8d 35 aa 08 00 00 	lea    0x8aa(%rip),%rsi        # 3700 <free@@Base+0x2550>
    2e56:	48 89 e9             	mov    %rbp,%rcx
    2e59:	4c 89 e2             	mov    %r12,%rdx
    2e5c:	bf 01 00 00 00       	mov    $0x1,%edi
    2e61:	31 c0                	xor    %eax,%eax
    2e63:	e8 88 df ff ff       	callq  df0 <__printf_chk@plt>
    2e68:	b8 01 00 00 00       	mov    $0x1,%eax
    2e6d:	e9 57 fa ff ff       	jmpq   28c9 <free@@Base+0x1719>
    2e72:	48 8b 40 20          	mov    0x20(%rax),%rax
    2e76:	48 85 c0             	test   %rax,%rax
    2e79:	0f 85 16 ff ff ff    	jne    2d95 <free@@Base+0x1be5>
    2e7f:	48 8d 3d 12 08 00 00 	lea    0x812(%rip),%rdi        # 3698 <free@@Base+0x24e8>
    2e86:	e8 55 de ff ff       	callq  ce0 <puts@plt>
    2e8b:	b8 01 00 00 00       	mov    $0x1,%eax
    2e90:	e9 34 fa ff ff       	jmpq   28c9 <free@@Base+0x1719>
    2e95:	48 89 ef             	mov    %rbp,%rdi
    2e98:	e8 23 ec ff ff       	callq  1ac0 <free@@Base+0x910>
    2e9d:	48 8b 00             	mov    (%rax),%rax
    2ea0:	c7 40 08 04 00 00 00 	movl   $0x4,0x8(%rax)
    2ea7:	48 c7 40 20 00 00 00 	movq   $0x0,0x20(%rax)
    2eae:	00 
    2eaf:	e9 b2 f9 ff ff       	jmpq   2866 <free@@Base+0x16b6>
    2eb4:	e8 57 de ff ff       	callq  d10 <__stack_chk_fail@plt>
    2eb9:	31 c0                	xor    %eax,%eax
    2ebb:	e8 10 ef ff ff       	callq  1dd0 <free@@Base+0xc20>
    2ec0:	c7 40 08 05 00 00 00 	movl   $0x5,0x8(%rax)
    2ec7:	b8 01 00 00 00       	mov    $0x1,%eax
    2ecc:	e9 f8 f9 ff ff       	jmpq   28c9 <free@@Base+0x1719>
    2ed1:	c7 40 08 06 00 00 00 	movl   $0x6,0x8(%rax)
    2ed8:	b8 01 00 00 00       	mov    $0x1,%eax
    2edd:	e9 e7 f9 ff ff       	jmpq   28c9 <free@@Base+0x1719>
    2ee2:	0f 1f 40 00          	nopl   0x0(%rax)
    2ee6:	66 2e 0f 1f 84 00 00 	nopw   %cs:0x0(%rax,%rax,1)
    2eed:	00 00 00 
    2ef0:	53                   	push   %rbx
    2ef1:	48 8d 35 70 03 00 00 	lea    0x370(%rip),%rsi        # 3268 <free@@Base+0x20b8>
    2ef8:	bf 01 00 00 00       	mov    $0x1,%edi
    2efd:	48 83 ec 20          	sub    $0x20,%rsp
    2f01:	48 8b 15 78 5c 20 00 	mov    0x205c78(%rip),%rdx        # 208b80 <free@@Base+0x2079d0>
    2f08:	64 48 8b 04 25 28 00 	mov    %fs:0x28,%rax
    2f0f:	00 00 
    2f11:	48 89 44 24 18       	mov    %rax,0x18(%rsp)
    2f16:	31 c0                	xor    %eax,%eax
    2f18:	48 89 e3             	mov    %rsp,%rbx
    2f1b:	e8 d0 de ff ff       	callq  df0 <__printf_chk@plt>
    2f20:	48 8d 3d 81 03 00 00 	lea    0x381(%rip),%rdi        # 32a8 <free@@Base+0x20f8>
    2f27:	e8 b4 dd ff ff       	callq  ce0 <puts@plt>
    2f2c:	48 8d 35 c5 03 00 00 	lea    0x3c5(%rip),%rsi        # 32f8 <free@@Base+0x2148>
    2f33:	bf 01 00 00 00       	mov    $0x1,%edi
    2f38:	31 c0                	xor    %eax,%eax
    2f3a:	e8 b1 de ff ff       	callq  df0 <__printf_chk@plt>
    2f3f:	48 8d 3d b6 01 00 00 	lea    0x1b6(%rip),%rdi        # 30fc <free@@Base+0x1f4c>
    2f46:	31 c0                	xor    %eax,%eax
    2f48:	48 89 de             	mov    %rbx,%rsi
    2f4b:	e8 d0 de ff ff       	callq  e20 <__isoc99_scanf@plt>
    2f50:	85 c0                	test   %eax,%eax
    2f52:	74 0c                	je     2f60 <free@@Base+0x1db0>
    2f54:	80 3c 24 79          	cmpb   $0x79,(%rsp)
    2f58:	74 26                	je     2f80 <free@@Base+0x1dd0>
    2f5a:	66 0f 1f 44 00 00    	nopw   0x0(%rax,%rax,1)
    2f60:	48 8b 44 24 18       	mov    0x18(%rsp),%rax
    2f65:	64 48 33 04 25 28 00 	xor    %fs:0x28,%rax
    2f6c:	00 00 
    2f6e:	0f 85 e4 00 00 00    	jne    3058 <free@@Base+0x1ea8>
    2f74:	48 83 c4 20          	add    $0x20,%rsp
    2f78:	5b                   	pop    %rbx
    2f79:	c3                   	retq   
    2f7a:	66 0f 1f 44 00 00    	nopw   0x0(%rax,%rax,1)
    2f80:	80 7c 24 01 65       	cmpb   $0x65,0x1(%rsp)
    2f85:	75 d9                	jne    2f60 <free@@Base+0x1db0>
    2f87:	80 7c 24 02 73       	cmpb   $0x73,0x2(%rsp)
    2f8c:	75 d2                	jne    2f60 <free@@Base+0x1db0>
    2f8e:	80 7c 24 03 00       	cmpb   $0x0,0x3(%rsp)
    2f93:	75 cb                	jne    2f60 <free@@Base+0x1db0>
    2f95:	48 8b 15 e4 5b 20 00 	mov    0x205be4(%rip),%rdx        # 208b80 <free@@Base+0x2079d0>
    2f9c:	48 8d 35 8d 03 00 00 	lea    0x38d(%rip),%rsi        # 3330 <free@@Base+0x2180>
    2fa3:	bf 01 00 00 00       	mov    $0x1,%edi
    2fa8:	31 c0                	xor    %eax,%eax
    2faa:	e8 41 de ff ff       	callq  df0 <__printf_chk@plt>
    2faf:	48 8b 0d ca 5b 20 00 	mov    0x205bca(%rip),%rcx        # 208b80 <free@@Base+0x2079d0>
    2fb6:	48 8b 15 cb 5b 20 00 	mov    0x205bcb(%rip),%rdx        # 208b88 <free@@Base+0x2079d8>
    2fbd:	48 8d 35 20 01 00 00 	lea    0x120(%rip),%rsi        # 30e4 <free@@Base+0x1f34>
    2fc4:	bf 01 00 00 00       	mov    $0x1,%edi
    2fc9:	31 c0                	xor    %eax,%eax
    2fcb:	e8 20 de ff ff       	callq  df0 <__printf_chk@plt>
    2fd0:	48 8d 3d 20 01 00 00 	lea    0x120(%rip),%rdi        # 30f7 <free@@Base+0x1f47>
    2fd7:	31 c0                	xor    %eax,%eax
    2fd9:	48 89 de             	mov    %rbx,%rsi
    2fdc:	e8 3f de ff ff       	callq  e20 <__isoc99_scanf@plt>
    2fe1:	85 c0                	test   %eax,%eax
    2fe3:	0f 84 77 ff ff ff    	je     2f60 <free@@Base+0x1db0>
    2fe9:	48 8b 3d c0 5b 20 00 	mov    0x205bc0(%rip),%rdi        # 208bb0 <stdin@@GLIBC_2.2.5>
    2ff0:	e8 cb dd ff ff       	callq  dc0 <_IO_getc@plt>
    2ff5:	66 0f be 04 24       	movsbw (%rsp),%ax
    2ffa:	84 c0                	test   %al,%al
    2ffc:	0f 84 5e ff ff ff    	je     2f60 <free@@Base+0x1db0>
    3002:	ba 17 54 00 00       	mov    $0x5417,%edx
    3007:	66 0f 1f 84 00 00 00 	nopw   0x0(%rax,%rax,1)
    300e:	00 00 
    3010:	31 d0                	xor    %edx,%eax
    3012:	48 83 c3 01          	add    $0x1,%rbx
    3016:	8d 14 00             	lea    (%rax,%rax,1),%edx
    3019:	66 0f be 03          	movsbw (%rbx),%ax
    301d:	84 c0                	test   %al,%al
    301f:	75 ef                	jne    3010 <free@@Base+0x1e60>
    3021:	66 81 fa fa 8d       	cmp    $0x8dfa,%dx
    3026:	0f 85 34 ff ff ff    	jne    2f60 <free@@Base+0x1db0>
    302c:	48 8b 15 4d 5b 20 00 	mov    0x205b4d(%rip),%rdx        # 208b80 <free@@Base+0x2079d0>
    3033:	48 8d 35 ff 01 00 00 	lea    0x1ff(%rip),%rsi        # 3239 <free@@Base+0x2089>
    303a:	bf 01 00 00 00       	mov    $0x1,%edi
    303f:	e8 ac dd ff ff       	callq  df0 <__printf_chk@plt>
    3044:	0f 1f 40 00          	nopl   0x0(%rax)
    3048:	31 c0                	xor    %eax,%eax
    304a:	e8 61 f6 ff ff       	callq  26b0 <free@@Base+0x1500>
    304f:	84 c0                	test   %al,%al
    3051:	75 f5                	jne    3048 <free@@Base+0x1e98>
    3053:	e9 08 ff ff ff       	jmpq   2f60 <free@@Base+0x1db0>
    3058:	e8 b3 dc ff ff       	callq  d10 <__stack_chk_fail@plt>
    305d:	0f 1f 00             	nopl   (%rax)
    3060:	41 57                	push   %r15
    3062:	41 56                	push   %r14
    3064:	41 89 ff             	mov    %edi,%r15d
    3067:	41 55                	push   %r13
    3069:	41 54                	push   %r12
    306b:	4c 8d 25 66 1d 20 00 	lea    0x201d66(%rip),%r12        # 204dd8 <free@@Base+0x203c28>
    3072:	55                   	push   %rbp
    3073:	48 8d 2d 76 1d 20 00 	lea    0x201d76(%rip),%rbp        # 204df0 <free@@Base+0x203c40>
    307a:	53                   	push   %rbx
    307b:	49 89 f6             	mov    %rsi,%r14
    307e:	49 89 d5             	mov    %rdx,%r13
    3081:	4c 29 e5             	sub    %r12,%rbp
    3084:	48 83 ec 08          	sub    $0x8,%rsp
    3088:	48 c1 fd 03          	sar    $0x3,%rbp
    308c:	e8 07 dc ff ff       	callq  c98 <abort@plt-0x28>
    3091:	48 85 ed             	test   %rbp,%rbp
    3094:	74 20                	je     30b6 <free@@Base+0x1f06>
    3096:	31 db                	xor    %ebx,%ebx
    3098:	0f 1f 84 00 00 00 00 	nopl   0x0(%rax,%rax,1)
    309f:	00 
    30a0:	4c 89 ea             	mov    %r13,%rdx
    30a3:	4c 89 f6             	mov    %r14,%rsi
    30a6:	44 89 ff             	mov    %r15d,%edi
    30a9:	41 ff 14 dc          	callq  *(%r12,%rbx,8)
    30ad:	48 83 c3 01          	add    $0x1,%rbx
    30b1:	48 39 dd             	cmp    %rbx,%rbp
    30b4:	75 ea                	jne    30a0 <free@@Base+0x1ef0>
    30b6:	48 83 c4 08          	add    $0x8,%rsp
    30ba:	5b                   	pop    %rbx
    30bb:	5d                   	pop    %rbp
    30bc:	41 5c                	pop    %r12
    30be:	41 5d                	pop    %r13
    30c0:	41 5e                	pop    %r14
    30c2:	41 5f                	pop    %r15
    30c4:	c3                   	retq   
    30c5:	90                   	nop
    30c6:	66 2e 0f 1f 84 00 00 	nopw   %cs:0x0(%rax,%rax,1)
    30cd:	00 00 00 
    30d0:	f3 c3                	repz retq 

Disassembly of section .fini:

00000000000030d4 <.fini>:
    30d4:	48 83 ec 08          	sub    $0x8,%rsp
    30d8:	48 83 c4 08          	add    $0x8,%rsp
    30dc:	c3                   	retq   
