
UltraSecure-2.so:     file format elf64-x86-64


Disassembly of section .plt:

00000000000006a0 <printf@plt-0x10>:
 6a0:	ff 35 52 0e 20 00    	pushq  0x200e52(%rip)        # 2014f8 <_GLOBAL_OFFSET_TABLE_+0x8>
 6a6:	ff 25 54 0e 20 00    	jmpq   *0x200e54(%rip)        # 201500 <_GLOBAL_OFFSET_TABLE_+0x10>
 6ac:	0f 1f 40 00          	nopl   0x0(%rax)

00000000000006b0 <printf@plt>:
 6b0:	ff 25 52 0e 20 00    	jmpq   *0x200e52(%rip)        # 201508 <_GLOBAL_OFFSET_TABLE_+0x18>
 6b6:	68 00 00 00 00       	pushq  $0x0
 6bb:	e9 e0 ff ff ff       	jmpq   6a0 <printf@plt-0x10>

00000000000006c0 <memcpy@plt>:
 6c0:	ff 25 4a 0e 20 00    	jmpq   *0x200e4a(%rip)        # 201510 <_GLOBAL_OFFSET_TABLE_+0x20>
 6c6:	68 01 00 00 00       	pushq  $0x1
 6cb:	e9 d0 ff ff ff       	jmpq   6a0 <printf@plt-0x10>

00000000000006d0 <puts@plt>:
 6d0:	ff 25 42 0e 20 00    	jmpq   *0x200e42(%rip)        # 201518 <_GLOBAL_OFFSET_TABLE_+0x28>
 6d6:	68 02 00 00 00       	pushq  $0x2
 6db:	e9 c0 ff ff ff       	jmpq   6a0 <printf@plt-0x10>

00000000000006e0 <malloc@plt>:
 6e0:	ff 25 3a 0e 20 00    	jmpq   *0x200e3a(%rip)        # 201520 <_GLOBAL_OFFSET_TABLE_+0x30>
 6e6:	68 03 00 00 00       	pushq  $0x3
 6eb:	e9 b0 ff ff ff       	jmpq   6a0 <printf@plt-0x10>

00000000000006f0 <fprintf@plt>:
 6f0:	ff 25 32 0e 20 00    	jmpq   *0x200e32(%rip)        # 201528 <_GLOBAL_OFFSET_TABLE_+0x38>
 6f6:	68 04 00 00 00       	pushq  $0x4
 6fb:	e9 a0 ff ff ff       	jmpq   6a0 <printf@plt-0x10>

0000000000000700 <base64_encode@plt>:
 700:	ff 25 2a 0e 20 00    	jmpq   *0x200e2a(%rip)        # 201530 <_GLOBAL_OFFSET_TABLE_+0x40>
 706:	68 05 00 00 00       	pushq  $0x5
 70b:	e9 90 ff ff ff       	jmpq   6a0 <printf@plt-0x10>

0000000000000710 <fopen@plt>:
 710:	ff 25 22 0e 20 00    	jmpq   *0x200e22(%rip)        # 201538 <_GLOBAL_OFFSET_TABLE_+0x48>
 716:	68 06 00 00 00       	pushq  $0x6
 71b:	e9 80 ff ff ff       	jmpq   6a0 <printf@plt-0x10>

0000000000000720 <fclose@plt>:
 720:	ff 25 1a 0e 20 00    	jmpq   *0x200e1a(%rip)        # 201540 <_GLOBAL_OFFSET_TABLE_+0x50>
 726:	68 07 00 00 00       	pushq  $0x7
 72b:	e9 70 ff ff ff       	jmpq   6a0 <printf@plt-0x10>

0000000000000730 <strcmp@plt>:
 730:	ff 25 12 0e 20 00    	jmpq   *0x200e12(%rip)        # 201548 <_GLOBAL_OFFSET_TABLE_+0x58>
 736:	68 08 00 00 00       	pushq  $0x8
 73b:	e9 60 ff ff ff       	jmpq   6a0 <printf@plt-0x10>

0000000000000740 <base64_decode@plt>:
 740:	ff 25 0a 0e 20 00    	jmpq   *0x200e0a(%rip)        # 201550 <_GLOBAL_OFFSET_TABLE_+0x60>
 746:	68 09 00 00 00       	pushq  $0x9
 74b:	e9 50 ff ff ff       	jmpq   6a0 <printf@plt-0x10>

0000000000000750 <build_decoding_table@plt>:
 750:	ff 25 02 0e 20 00    	jmpq   *0x200e02(%rip)        # 201558 <_GLOBAL_OFFSET_TABLE_+0x68>
 756:	68 0a 00 00 00       	pushq  $0xa
 75b:	e9 40 ff ff ff       	jmpq   6a0 <printf@plt-0x10>

0000000000000760 <exit@plt>:
 760:	ff 25 fa 0d 20 00    	jmpq   *0x200dfa(%rip)        # 201560 <_GLOBAL_OFFSET_TABLE_+0x70>
 766:	68 0b 00 00 00       	pushq  $0xb
 76b:	e9 30 ff ff ff       	jmpq   6a0 <printf@plt-0x10>

0000000000000770 <pam_get_user@plt>:
 770:	ff 25 f2 0d 20 00    	jmpq   *0x200df2(%rip)        # 201568 <_GLOBAL_OFFSET_TABLE_+0x78>
 776:	68 0c 00 00 00       	pushq  $0xc
 77b:	e9 20 ff ff ff       	jmpq   6a0 <printf@plt-0x10>

0000000000000780 <strlen@plt>:
 780:	ff 25 ea 0d 20 00    	jmpq   *0x200dea(%rip)        # 201570 <_GLOBAL_OFFSET_TABLE_+0x80>
 786:	68 0d 00 00 00       	pushq  $0xd
 78b:	e9 10 ff ff ff       	jmpq   6a0 <printf@plt-0x10>

0000000000000790 <pam_get_authtok@plt>:
 790:	ff 25 e2 0d 20 00    	jmpq   *0x200de2(%rip)        # 201578 <_GLOBAL_OFFSET_TABLE_+0x88>
 796:	68 0e 00 00 00       	pushq  $0xe
 79b:	e9 00 ff ff ff       	jmpq   6a0 <printf@plt-0x10>

00000000000007a0 <free@plt>:
 7a0:	ff 25 da 0d 20 00    	jmpq   *0x200dda(%rip)        # 201580 <_GLOBAL_OFFSET_TABLE_+0x90>
 7a6:	68 0f 00 00 00       	pushq  $0xf
 7ab:	e9 f0 fe ff ff       	jmpq   6a0 <printf@plt-0x10>

Disassembly of section .text:

00000000000007b0 <base64_encode>:
 7b0:	55                   	push   %rbp
 7b1:	48 89 e5             	mov    %rsp,%rbp
 7b4:	48 83 ec 50          	sub    $0x50,%rsp
 7b8:	48 89 7d c8          	mov    %rdi,-0x38(%rbp)
 7bc:	48 89 75 c0          	mov    %rsi,-0x40(%rbp)
 7c0:	48 89 55 b8          	mov    %rdx,-0x48(%rbp)
 7c4:	48 8b 45 c0          	mov    -0x40(%rbp),%rax
 7c8:	48 83 c0 02          	add    $0x2,%rax
 7cc:	48 ba ab aa aa aa aa 	movabs $0xaaaaaaaaaaaaaaab,%rdx
 7d3:	aa aa aa 
 7d6:	48 f7 e2             	mul    %rdx
 7d9:	48 89 d0             	mov    %rdx,%rax
 7dc:	48 d1 e8             	shr    %rax
 7df:	48 8d 14 85 00 00 00 	lea    0x0(,%rax,4),%rdx
 7e6:	00 
 7e7:	48 8b 45 b8          	mov    -0x48(%rbp),%rax
 7eb:	48 89 10             	mov    %rdx,(%rax)
 7ee:	48 8b 45 b8          	mov    -0x48(%rbp),%rax
 7f2:	48 8b 00             	mov    (%rax),%rax
 7f5:	48 89 c7             	mov    %rax,%rdi
 7f8:	e8 e3 fe ff ff       	callq  6e0 <malloc@plt>
 7fd:	48 89 45 e8          	mov    %rax,-0x18(%rbp)
 801:	48 83 7d e8 00       	cmpq   $0x0,-0x18(%rbp)
 806:	75 0a                	jne    812 <base64_encode+0x62>
 808:	b8 00 00 00 00       	mov    $0x0,%eax
 80d:	e9 d7 01 00 00       	jmpq   9e9 <base64_encode+0x239>
 812:	c7 45 fc 00 00 00 00 	movl   $0x0,-0x4(%rbp)
 819:	c7 45 f8 00 00 00 00 	movl   $0x0,-0x8(%rbp)
 820:	e9 4b 01 00 00       	jmpq   970 <base64_encode+0x1c0>
 825:	8b 45 fc             	mov    -0x4(%rbp),%eax
 828:	48 98                	cltq   
 82a:	48 3b 45 c0          	cmp    -0x40(%rbp),%rax
 82e:	73 1b                	jae    84b <base64_encode+0x9b>
 830:	8b 45 fc             	mov    -0x4(%rbp),%eax
 833:	8d 50 01             	lea    0x1(%rax),%edx
 836:	89 55 fc             	mov    %edx,-0x4(%rbp)
 839:	48 63 d0             	movslq %eax,%rdx
 83c:	48 8b 45 c8          	mov    -0x38(%rbp),%rax
 840:	48 01 d0             	add    %rdx,%rax
 843:	0f b6 00             	movzbl (%rax),%eax
 846:	0f b6 c0             	movzbl %al,%eax
 849:	eb 05                	jmp    850 <base64_encode+0xa0>
 84b:	b8 00 00 00 00       	mov    $0x0,%eax
 850:	89 45 e4             	mov    %eax,-0x1c(%rbp)
 853:	8b 45 fc             	mov    -0x4(%rbp),%eax
 856:	48 98                	cltq   
 858:	48 3b 45 c0          	cmp    -0x40(%rbp),%rax
 85c:	73 1b                	jae    879 <base64_encode+0xc9>
 85e:	8b 45 fc             	mov    -0x4(%rbp),%eax
 861:	8d 50 01             	lea    0x1(%rax),%edx
 864:	89 55 fc             	mov    %edx,-0x4(%rbp)
 867:	48 63 d0             	movslq %eax,%rdx
 86a:	48 8b 45 c8          	mov    -0x38(%rbp),%rax
 86e:	48 01 d0             	add    %rdx,%rax
 871:	0f b6 00             	movzbl (%rax),%eax
 874:	0f b6 c0             	movzbl %al,%eax
 877:	eb 05                	jmp    87e <base64_encode+0xce>
 879:	b8 00 00 00 00       	mov    $0x0,%eax
 87e:	89 45 e0             	mov    %eax,-0x20(%rbp)
 881:	8b 45 fc             	mov    -0x4(%rbp),%eax
 884:	48 98                	cltq   
 886:	48 3b 45 c0          	cmp    -0x40(%rbp),%rax
 88a:	73 1b                	jae    8a7 <base64_encode+0xf7>
 88c:	8b 45 fc             	mov    -0x4(%rbp),%eax
 88f:	8d 50 01             	lea    0x1(%rax),%edx
 892:	89 55 fc             	mov    %edx,-0x4(%rbp)
 895:	48 63 d0             	movslq %eax,%rdx
 898:	48 8b 45 c8          	mov    -0x38(%rbp),%rax
 89c:	48 01 d0             	add    %rdx,%rax
 89f:	0f b6 00             	movzbl (%rax),%eax
 8a2:	0f b6 c0             	movzbl %al,%eax
 8a5:	eb 05                	jmp    8ac <base64_encode+0xfc>
 8a7:	b8 00 00 00 00       	mov    $0x0,%eax
 8ac:	89 45 dc             	mov    %eax,-0x24(%rbp)
 8af:	8b 45 e4             	mov    -0x1c(%rbp),%eax
 8b2:	c1 e0 10             	shl    $0x10,%eax
 8b5:	89 c2                	mov    %eax,%edx
 8b7:	8b 45 e0             	mov    -0x20(%rbp),%eax
 8ba:	c1 e0 08             	shl    $0x8,%eax
 8bd:	01 c2                	add    %eax,%edx
 8bf:	8b 45 dc             	mov    -0x24(%rbp),%eax
 8c2:	01 d0                	add    %edx,%eax
 8c4:	89 45 d8             	mov    %eax,-0x28(%rbp)
 8c7:	8b 45 f8             	mov    -0x8(%rbp),%eax
 8ca:	8d 50 01             	lea    0x1(%rax),%edx
 8cd:	89 55 f8             	mov    %edx,-0x8(%rbp)
 8d0:	48 63 d0             	movslq %eax,%rdx
 8d3:	48 8b 45 e8          	mov    -0x18(%rbp),%rax
 8d7:	48 01 c2             	add    %rax,%rdx
 8da:	8b 45 d8             	mov    -0x28(%rbp),%eax
 8dd:	c1 e8 12             	shr    $0x12,%eax
 8e0:	83 e0 3f             	and    $0x3f,%eax
 8e3:	89 c1                	mov    %eax,%ecx
 8e5:	48 8d 05 b4 0c 20 00 	lea    0x200cb4(%rip),%rax        # 2015a0 <_GLOBAL_OFFSET_TABLE_+0xb0>
 8ec:	0f b6 04 01          	movzbl (%rcx,%rax,1),%eax
 8f0:	88 02                	mov    %al,(%rdx)
 8f2:	8b 45 f8             	mov    -0x8(%rbp),%eax
 8f5:	8d 50 01             	lea    0x1(%rax),%edx
 8f8:	89 55 f8             	mov    %edx,-0x8(%rbp)
 8fb:	48 63 d0             	movslq %eax,%rdx
 8fe:	48 8b 45 e8          	mov    -0x18(%rbp),%rax
 902:	48 01 c2             	add    %rax,%rdx
 905:	8b 45 d8             	mov    -0x28(%rbp),%eax
 908:	c1 e8 0c             	shr    $0xc,%eax
 90b:	83 e0 3f             	and    $0x3f,%eax
 90e:	89 c1                	mov    %eax,%ecx
 910:	48 8d 05 89 0c 20 00 	lea    0x200c89(%rip),%rax        # 2015a0 <_GLOBAL_OFFSET_TABLE_+0xb0>
 917:	0f b6 04 01          	movzbl (%rcx,%rax,1),%eax
 91b:	88 02                	mov    %al,(%rdx)
 91d:	8b 45 f8             	mov    -0x8(%rbp),%eax
 920:	8d 50 01             	lea    0x1(%rax),%edx
 923:	89 55 f8             	mov    %edx,-0x8(%rbp)
 926:	48 63 d0             	movslq %eax,%rdx
 929:	48 8b 45 e8          	mov    -0x18(%rbp),%rax
 92d:	48 01 c2             	add    %rax,%rdx
 930:	8b 45 d8             	mov    -0x28(%rbp),%eax
 933:	c1 e8 06             	shr    $0x6,%eax
 936:	83 e0 3f             	and    $0x3f,%eax
 939:	89 c1                	mov    %eax,%ecx
 93b:	48 8d 05 5e 0c 20 00 	lea    0x200c5e(%rip),%rax        # 2015a0 <_GLOBAL_OFFSET_TABLE_+0xb0>
 942:	0f b6 04 01          	movzbl (%rcx,%rax,1),%eax
 946:	88 02                	mov    %al,(%rdx)
 948:	8b 45 f8             	mov    -0x8(%rbp),%eax
 94b:	8d 50 01             	lea    0x1(%rax),%edx
 94e:	89 55 f8             	mov    %edx,-0x8(%rbp)
 951:	48 63 d0             	movslq %eax,%rdx
 954:	48 8b 45 e8          	mov    -0x18(%rbp),%rax
 958:	48 01 c2             	add    %rax,%rdx
 95b:	8b 45 d8             	mov    -0x28(%rbp),%eax
 95e:	83 e0 3f             	and    $0x3f,%eax
 961:	89 c1                	mov    %eax,%ecx
 963:	48 8d 05 36 0c 20 00 	lea    0x200c36(%rip),%rax        # 2015a0 <_GLOBAL_OFFSET_TABLE_+0xb0>
 96a:	0f b6 04 01          	movzbl (%rcx,%rax,1),%eax
 96e:	88 02                	mov    %al,(%rdx)
 970:	8b 45 fc             	mov    -0x4(%rbp),%eax
 973:	48 98                	cltq   
 975:	48 3b 45 c0          	cmp    -0x40(%rbp),%rax
 979:	0f 82 a6 fe ff ff    	jb     825 <base64_encode+0x75>
 97f:	c7 45 f4 00 00 00 00 	movl   $0x0,-0xc(%rbp)
 986:	eb 24                	jmp    9ac <base64_encode+0x1fc>
 988:	48 8b 45 b8          	mov    -0x48(%rbp),%rax
 98c:	48 8b 10             	mov    (%rax),%rdx
 98f:	8b 45 f4             	mov    -0xc(%rbp),%eax
 992:	48 98                	cltq   
 994:	48 29 c2             	sub    %rax,%rdx
 997:	48 89 d0             	mov    %rdx,%rax
 99a:	48 8d 50 ff          	lea    -0x1(%rax),%rdx
 99e:	48 8b 45 e8          	mov    -0x18(%rbp),%rax
 9a2:	48 01 d0             	add    %rdx,%rax
 9a5:	c6 00 3d             	movb   $0x3d,(%rax)
 9a8:	83 45 f4 01          	addl   $0x1,-0xc(%rbp)
 9ac:	48 8b 4d c0          	mov    -0x40(%rbp),%rcx
 9b0:	48 ba ab aa aa aa aa 	movabs $0xaaaaaaaaaaaaaaab,%rdx
 9b7:	aa aa aa 
 9ba:	48 89 c8             	mov    %rcx,%rax
 9bd:	48 f7 e2             	mul    %rdx
 9c0:	48 d1 ea             	shr    %rdx
 9c3:	48 89 d0             	mov    %rdx,%rax
 9c6:	48 01 c0             	add    %rax,%rax
 9c9:	48 01 d0             	add    %rdx,%rax
 9cc:	48 29 c1             	sub    %rax,%rcx
 9cf:	48 89 ca             	mov    %rcx,%rdx
 9d2:	48 c1 e2 02          	shl    $0x2,%rdx
 9d6:	48 8d 05 03 0c 20 00 	lea    0x200c03(%rip),%rax        # 2015e0 <_GLOBAL_OFFSET_TABLE_+0xf0>
 9dd:	8b 04 02             	mov    (%rdx,%rax,1),%eax
 9e0:	3b 45 f4             	cmp    -0xc(%rbp),%eax
 9e3:	7f a3                	jg     988 <base64_encode+0x1d8>
 9e5:	48 8b 45 e8          	mov    -0x18(%rbp),%rax
 9e9:	c9                   	leaveq 
 9ea:	c3                   	retq   

00000000000009eb <base64_decode>:
 9eb:	55                   	push   %rbp
 9ec:	48 89 e5             	mov    %rsp,%rbp
 9ef:	48 83 ec 50          	sub    $0x50,%rsp
 9f3:	48 89 7d c8          	mov    %rdi,-0x38(%rbp)
 9f7:	48 89 75 c0          	mov    %rsi,-0x40(%rbp)
 9fb:	48 89 55 b8          	mov    %rdx,-0x48(%rbp)
 9ff:	48 8b 05 ea 0b 20 00 	mov    0x200bea(%rip),%rax        # 2015f0 <_edata+0x4>
 a06:	48 85 c0             	test   %rax,%rax
 a09:	75 0a                	jne    a15 <base64_decode+0x2a>
 a0b:	b8 00 00 00 00       	mov    $0x0,%eax
 a10:	e8 3b fd ff ff       	callq  750 <build_decoding_table@plt>
 a15:	48 8b 45 c0          	mov    -0x40(%rbp),%rax
 a19:	83 e0 03             	and    $0x3,%eax
 a1c:	48 85 c0             	test   %rax,%rax
 a1f:	74 0a                	je     a2b <base64_decode+0x40>
 a21:	b8 00 00 00 00       	mov    $0x0,%eax
 a26:	e9 89 02 00 00       	jmpq   cb4 <base64_decode+0x2c9>
 a2b:	48 8b 45 c0          	mov    -0x40(%rbp),%rax
 a2f:	48 c1 e8 02          	shr    $0x2,%rax
 a33:	48 89 c2             	mov    %rax,%rdx
 a36:	48 89 d0             	mov    %rdx,%rax
 a39:	48 01 c0             	add    %rax,%rax
 a3c:	48 01 c2             	add    %rax,%rdx
 a3f:	48 8b 45 b8          	mov    -0x48(%rbp),%rax
 a43:	48 89 10             	mov    %rdx,(%rax)
 a46:	48 8b 45 c0          	mov    -0x40(%rbp),%rax
 a4a:	48 8d 50 ff          	lea    -0x1(%rax),%rdx
 a4e:	48 8b 45 c8          	mov    -0x38(%rbp),%rax
 a52:	48 01 d0             	add    %rdx,%rax
 a55:	0f b6 00             	movzbl (%rax),%eax
 a58:	3c 3d                	cmp    $0x3d,%al
 a5a:	75 12                	jne    a6e <base64_decode+0x83>
 a5c:	48 8b 45 b8          	mov    -0x48(%rbp),%rax
 a60:	48 8b 00             	mov    (%rax),%rax
 a63:	48 8d 50 ff          	lea    -0x1(%rax),%rdx
 a67:	48 8b 45 b8          	mov    -0x48(%rbp),%rax
 a6b:	48 89 10             	mov    %rdx,(%rax)
 a6e:	48 8b 45 c0          	mov    -0x40(%rbp),%rax
 a72:	48 8d 50 fe          	lea    -0x2(%rax),%rdx
 a76:	48 8b 45 c8          	mov    -0x38(%rbp),%rax
 a7a:	48 01 d0             	add    %rdx,%rax
 a7d:	0f b6 00             	movzbl (%rax),%eax
 a80:	3c 3d                	cmp    $0x3d,%al
 a82:	75 12                	jne    a96 <base64_decode+0xab>
 a84:	48 8b 45 b8          	mov    -0x48(%rbp),%rax
 a88:	48 8b 00             	mov    (%rax),%rax
 a8b:	48 8d 50 ff          	lea    -0x1(%rax),%rdx
 a8f:	48 8b 45 b8          	mov    -0x48(%rbp),%rax
 a93:	48 89 10             	mov    %rdx,(%rax)
 a96:	48 8b 45 b8          	mov    -0x48(%rbp),%rax
 a9a:	48 8b 00             	mov    (%rax),%rax
 a9d:	48 89 c7             	mov    %rax,%rdi
 aa0:	e8 3b fc ff ff       	callq  6e0 <malloc@plt>
 aa5:	48 89 45 f0          	mov    %rax,-0x10(%rbp)
 aa9:	48 83 7d f0 00       	cmpq   $0x0,-0x10(%rbp)
 aae:	75 0a                	jne    aba <base64_decode+0xcf>
 ab0:	b8 00 00 00 00       	mov    $0x0,%eax
 ab5:	e9 fa 01 00 00       	jmpq   cb4 <base64_decode+0x2c9>
 aba:	c7 45 fc 00 00 00 00 	movl   $0x0,-0x4(%rbp)
 ac1:	c7 45 f8 00 00 00 00 	movl   $0x0,-0x8(%rbp)
 ac8:	e9 d4 01 00 00       	jmpq   ca1 <base64_decode+0x2b6>
 acd:	8b 45 fc             	mov    -0x4(%rbp),%eax
 ad0:	48 63 d0             	movslq %eax,%rdx
 ad3:	48 8b 45 c8          	mov    -0x38(%rbp),%rax
 ad7:	48 01 d0             	add    %rdx,%rax
 ada:	0f b6 00             	movzbl (%rax),%eax
 add:	3c 3d                	cmp    $0x3d,%al
 adf:	75 0b                	jne    aec <base64_decode+0x101>
 ae1:	83 45 fc 01          	addl   $0x1,-0x4(%rbp)
 ae5:	b8 00 00 00 00       	mov    $0x0,%eax
 aea:	eb 2a                	jmp    b16 <base64_decode+0x12b>
 aec:	48 8b 0d fd 0a 20 00 	mov    0x200afd(%rip),%rcx        # 2015f0 <_edata+0x4>
 af3:	8b 45 fc             	mov    -0x4(%rbp),%eax
 af6:	8d 50 01             	lea    0x1(%rax),%edx
 af9:	89 55 fc             	mov    %edx,-0x4(%rbp)
 afc:	48 63 d0             	movslq %eax,%rdx
 aff:	48 8b 45 c8          	mov    -0x38(%rbp),%rax
 b03:	48 01 d0             	add    %rdx,%rax
 b06:	0f b6 00             	movzbl (%rax),%eax
 b09:	48 0f be c0          	movsbq %al,%rax
 b0d:	48 01 c8             	add    %rcx,%rax
 b10:	0f b6 00             	movzbl (%rax),%eax
 b13:	0f be c0             	movsbl %al,%eax
 b16:	89 45 ec             	mov    %eax,-0x14(%rbp)
 b19:	8b 45 fc             	mov    -0x4(%rbp),%eax
 b1c:	48 63 d0             	movslq %eax,%rdx
 b1f:	48 8b 45 c8          	mov    -0x38(%rbp),%rax
 b23:	48 01 d0             	add    %rdx,%rax
 b26:	0f b6 00             	movzbl (%rax),%eax
 b29:	3c 3d                	cmp    $0x3d,%al
 b2b:	75 0b                	jne    b38 <base64_decode+0x14d>
 b2d:	83 45 fc 01          	addl   $0x1,-0x4(%rbp)
 b31:	b8 00 00 00 00       	mov    $0x0,%eax
 b36:	eb 2a                	jmp    b62 <base64_decode+0x177>
 b38:	48 8b 0d b1 0a 20 00 	mov    0x200ab1(%rip),%rcx        # 2015f0 <_edata+0x4>
 b3f:	8b 45 fc             	mov    -0x4(%rbp),%eax
 b42:	8d 50 01             	lea    0x1(%rax),%edx
 b45:	89 55 fc             	mov    %edx,-0x4(%rbp)
 b48:	48 63 d0             	movslq %eax,%rdx
 b4b:	48 8b 45 c8          	mov    -0x38(%rbp),%rax
 b4f:	48 01 d0             	add    %rdx,%rax
 b52:	0f b6 00             	movzbl (%rax),%eax
 b55:	48 0f be c0          	movsbq %al,%rax
 b59:	48 01 c8             	add    %rcx,%rax
 b5c:	0f b6 00             	movzbl (%rax),%eax
 b5f:	0f be c0             	movsbl %al,%eax
 b62:	89 45 e8             	mov    %eax,-0x18(%rbp)
 b65:	8b 45 fc             	mov    -0x4(%rbp),%eax
 b68:	48 63 d0             	movslq %eax,%rdx
 b6b:	48 8b 45 c8          	mov    -0x38(%rbp),%rax
 b6f:	48 01 d0             	add    %rdx,%rax
 b72:	0f b6 00             	movzbl (%rax),%eax
 b75:	3c 3d                	cmp    $0x3d,%al
 b77:	75 0b                	jne    b84 <base64_decode+0x199>
 b79:	83 45 fc 01          	addl   $0x1,-0x4(%rbp)
 b7d:	b8 00 00 00 00       	mov    $0x0,%eax
 b82:	eb 2a                	jmp    bae <base64_decode+0x1c3>
 b84:	48 8b 0d 65 0a 20 00 	mov    0x200a65(%rip),%rcx        # 2015f0 <_edata+0x4>
 b8b:	8b 45 fc             	mov    -0x4(%rbp),%eax
 b8e:	8d 50 01             	lea    0x1(%rax),%edx
 b91:	89 55 fc             	mov    %edx,-0x4(%rbp)
 b94:	48 63 d0             	movslq %eax,%rdx
 b97:	48 8b 45 c8          	mov    -0x38(%rbp),%rax
 b9b:	48 01 d0             	add    %rdx,%rax
 b9e:	0f b6 00             	movzbl (%rax),%eax
 ba1:	48 0f be c0          	movsbq %al,%rax
 ba5:	48 01 c8             	add    %rcx,%rax
 ba8:	0f b6 00             	movzbl (%rax),%eax
 bab:	0f be c0             	movsbl %al,%eax
 bae:	89 45 e4             	mov    %eax,-0x1c(%rbp)
 bb1:	8b 45 fc             	mov    -0x4(%rbp),%eax
 bb4:	48 63 d0             	movslq %eax,%rdx
 bb7:	48 8b 45 c8          	mov    -0x38(%rbp),%rax
 bbb:	48 01 d0             	add    %rdx,%rax
 bbe:	0f b6 00             	movzbl (%rax),%eax
 bc1:	3c 3d                	cmp    $0x3d,%al
 bc3:	75 0b                	jne    bd0 <base64_decode+0x1e5>
 bc5:	83 45 fc 01          	addl   $0x1,-0x4(%rbp)
 bc9:	b8 00 00 00 00       	mov    $0x0,%eax
 bce:	eb 2a                	jmp    bfa <base64_decode+0x20f>
 bd0:	48 8b 0d 19 0a 20 00 	mov    0x200a19(%rip),%rcx        # 2015f0 <_edata+0x4>
 bd7:	8b 45 fc             	mov    -0x4(%rbp),%eax
 bda:	8d 50 01             	lea    0x1(%rax),%edx
 bdd:	89 55 fc             	mov    %edx,-0x4(%rbp)
 be0:	48 63 d0             	movslq %eax,%rdx
 be3:	48 8b 45 c8          	mov    -0x38(%rbp),%rax
 be7:	48 01 d0             	add    %rdx,%rax
 bea:	0f b6 00             	movzbl (%rax),%eax
 bed:	48 0f be c0          	movsbq %al,%rax
 bf1:	48 01 c8             	add    %rcx,%rax
 bf4:	0f b6 00             	movzbl (%rax),%eax
 bf7:	0f be c0             	movsbl %al,%eax
 bfa:	89 45 e0             	mov    %eax,-0x20(%rbp)
 bfd:	8b 45 ec             	mov    -0x14(%rbp),%eax
 c00:	c1 e0 12             	shl    $0x12,%eax
 c03:	89 c2                	mov    %eax,%edx
 c05:	8b 45 e8             	mov    -0x18(%rbp),%eax
 c08:	c1 e0 0c             	shl    $0xc,%eax
 c0b:	01 c2                	add    %eax,%edx
 c0d:	8b 45 e4             	mov    -0x1c(%rbp),%eax
 c10:	c1 e0 06             	shl    $0x6,%eax
 c13:	01 c2                	add    %eax,%edx
 c15:	8b 45 e0             	mov    -0x20(%rbp),%eax
 c18:	01 d0                	add    %edx,%eax
 c1a:	89 45 dc             	mov    %eax,-0x24(%rbp)
 c1d:	8b 45 f8             	mov    -0x8(%rbp),%eax
 c20:	48 63 d0             	movslq %eax,%rdx
 c23:	48 8b 45 b8          	mov    -0x48(%rbp),%rax
 c27:	48 8b 00             	mov    (%rax),%rax
 c2a:	48 39 c2             	cmp    %rax,%rdx
 c2d:	73 1b                	jae    c4a <base64_decode+0x25f>
 c2f:	8b 45 f8             	mov    -0x8(%rbp),%eax
 c32:	8d 50 01             	lea    0x1(%rax),%edx
 c35:	89 55 f8             	mov    %edx,-0x8(%rbp)
 c38:	48 63 d0             	movslq %eax,%rdx
 c3b:	48 8b 45 f0          	mov    -0x10(%rbp),%rax
 c3f:	48 01 d0             	add    %rdx,%rax
 c42:	8b 55 dc             	mov    -0x24(%rbp),%edx
 c45:	c1 ea 10             	shr    $0x10,%edx
 c48:	88 10                	mov    %dl,(%rax)
 c4a:	8b 45 f8             	mov    -0x8(%rbp),%eax
 c4d:	48 63 d0             	movslq %eax,%rdx
 c50:	48 8b 45 b8          	mov    -0x48(%rbp),%rax
 c54:	48 8b 00             	mov    (%rax),%rax
 c57:	48 39 c2             	cmp    %rax,%rdx
 c5a:	73 1b                	jae    c77 <base64_decode+0x28c>
 c5c:	8b 45 f8             	mov    -0x8(%rbp),%eax
 c5f:	8d 50 01             	lea    0x1(%rax),%edx
 c62:	89 55 f8             	mov    %edx,-0x8(%rbp)
 c65:	48 63 d0             	movslq %eax,%rdx
 c68:	48 8b 45 f0          	mov    -0x10(%rbp),%rax
 c6c:	48 01 d0             	add    %rdx,%rax
 c6f:	8b 55 dc             	mov    -0x24(%rbp),%edx
 c72:	c1 ea 08             	shr    $0x8,%edx
 c75:	88 10                	mov    %dl,(%rax)
 c77:	8b 45 f8             	mov    -0x8(%rbp),%eax
 c7a:	48 63 d0             	movslq %eax,%rdx
 c7d:	48 8b 45 b8          	mov    -0x48(%rbp),%rax
 c81:	48 8b 00             	mov    (%rax),%rax
 c84:	48 39 c2             	cmp    %rax,%rdx
 c87:	73 18                	jae    ca1 <base64_decode+0x2b6>
 c89:	8b 45 f8             	mov    -0x8(%rbp),%eax
 c8c:	8d 50 01             	lea    0x1(%rax),%edx
 c8f:	89 55 f8             	mov    %edx,-0x8(%rbp)
 c92:	48 63 d0             	movslq %eax,%rdx
 c95:	48 8b 45 f0          	mov    -0x10(%rbp),%rax
 c99:	48 01 d0             	add    %rdx,%rax
 c9c:	8b 55 dc             	mov    -0x24(%rbp),%edx
 c9f:	88 10                	mov    %dl,(%rax)
 ca1:	8b 45 fc             	mov    -0x4(%rbp),%eax
 ca4:	48 98                	cltq   
 ca6:	48 3b 45 c0          	cmp    -0x40(%rbp),%rax
 caa:	0f 82 1d fe ff ff    	jb     acd <base64_decode+0xe2>
 cb0:	48 8b 45 f0          	mov    -0x10(%rbp),%rax
 cb4:	c9                   	leaveq 
 cb5:	c3                   	retq   

0000000000000cb6 <build_decoding_table>:
 cb6:	55                   	push   %rbp
 cb7:	48 89 e5             	mov    %rsp,%rbp
 cba:	48 83 ec 10          	sub    $0x10,%rsp
 cbe:	bf 00 01 00 00       	mov    $0x100,%edi
 cc3:	e8 18 fa ff ff       	callq  6e0 <malloc@plt>
 cc8:	48 89 05 21 09 20 00 	mov    %rax,0x200921(%rip)        # 2015f0 <_edata+0x4>
 ccf:	c7 45 fc 00 00 00 00 	movl   $0x0,-0x4(%rbp)
 cd6:	eb 27                	jmp    cff <build_decoding_table+0x49>
 cd8:	48 8b 0d 11 09 20 00 	mov    0x200911(%rip),%rcx        # 2015f0 <_edata+0x4>
 cdf:	8b 45 fc             	mov    -0x4(%rbp),%eax
 ce2:	48 63 d0             	movslq %eax,%rdx
 ce5:	48 8d 05 b4 08 20 00 	lea    0x2008b4(%rip),%rax        # 2015a0 <_GLOBAL_OFFSET_TABLE_+0xb0>
 cec:	0f b6 04 02          	movzbl (%rdx,%rax,1),%eax
 cf0:	0f b6 c0             	movzbl %al,%eax
 cf3:	48 01 c8             	add    %rcx,%rax
 cf6:	8b 55 fc             	mov    -0x4(%rbp),%edx
 cf9:	88 10                	mov    %dl,(%rax)
 cfb:	83 45 fc 01          	addl   $0x1,-0x4(%rbp)
 cff:	83 7d fc 3f          	cmpl   $0x3f,-0x4(%rbp)
 d03:	7e d3                	jle    cd8 <build_decoding_table+0x22>
 d05:	90                   	nop
 d06:	c9                   	leaveq 
 d07:	c3                   	retq   

0000000000000d08 <base64_cleanup>:
 d08:	55                   	push   %rbp
 d09:	48 89 e5             	mov    %rsp,%rbp
 d0c:	48 8b 05 dd 08 20 00 	mov    0x2008dd(%rip),%rax        # 2015f0 <_edata+0x4>
 d13:	48 89 c7             	mov    %rax,%rdi
 d16:	e8 85 fa ff ff       	callq  7a0 <free@plt>
 d1b:	90                   	nop
 d1c:	5d                   	pop    %rbp
 d1d:	c3                   	retq   

0000000000000d1e <pam_sm_setcred>:
 d1e:	55                   	push   %rbp
 d1f:	48 89 e5             	mov    %rsp,%rbp
 d22:	48 89 7d f8          	mov    %rdi,-0x8(%rbp)
 d26:	89 75 f4             	mov    %esi,-0xc(%rbp)
 d29:	89 55 f0             	mov    %edx,-0x10(%rbp)
 d2c:	48 89 4d e8          	mov    %rcx,-0x18(%rbp)
 d30:	b8 00 00 00 00       	mov    $0x0,%eax
 d35:	5d                   	pop    %rbp
 d36:	c3                   	retq   

0000000000000d37 <pam_sm_acct_mgmt>:
 d37:	55                   	push   %rbp
 d38:	48 89 e5             	mov    %rsp,%rbp
 d3b:	48 83 ec 20          	sub    $0x20,%rsp
 d3f:	48 89 7d f8          	mov    %rdi,-0x8(%rbp)
 d43:	89 75 f4             	mov    %esi,-0xc(%rbp)
 d46:	89 55 f0             	mov    %edx,-0x10(%rbp)
 d49:	48 89 4d e8          	mov    %rcx,-0x18(%rbp)
 d4d:	48 8d 3d fc 01 00 00 	lea    0x1fc(%rip),%rdi        # f50 <pam_sm_authenticate+0x1f0>
 d54:	e8 77 f9 ff ff       	callq  6d0 <puts@plt>
 d59:	b8 00 00 00 00       	mov    $0x0,%eax
 d5e:	c9                   	leaveq 
 d5f:	c3                   	retq   

0000000000000d60 <pam_sm_authenticate>:
 d60:	55                   	push   %rbp
 d61:	48 89 e5             	mov    %rsp,%rbp
 d64:	48 81 ec 90 00 00 00 	sub    $0x90,%rsp
 d6b:	48 89 7d 88          	mov    %rdi,-0x78(%rbp)
 d6f:	89 75 84             	mov    %esi,-0x7c(%rbp)
 d72:	89 55 80             	mov    %edx,-0x80(%rbp)
 d75:	48 89 8d 78 ff ff ff 	mov    %rcx,-0x88(%rbp)
 d7c:	48 c7 45 c0 00 00 00 	movq   $0x0,-0x40(%rbp)
 d83:	00 
 d84:	48 c7 45 f8 00 00 00 	movq   $0x0,-0x8(%rbp)
 d8b:	00 
 d8c:	48 8d 4d c8          	lea    -0x38(%rbp),%rcx
 d90:	48 8b 45 88          	mov    -0x78(%rbp),%rax
 d94:	48 8d 15 bf 01 00 00 	lea    0x1bf(%rip),%rdx        # f5a <pam_sm_authenticate+0x1fa>
 d9b:	48 89 ce             	mov    %rcx,%rsi
 d9e:	48 89 c7             	mov    %rax,%rdi
 da1:	e8 ca f9 ff ff       	callq  770 <pam_get_user@plt>
 da6:	89 45 f4             	mov    %eax,-0xc(%rbp)
 da9:	48 8b 45 c8          	mov    -0x38(%rbp),%rax
 dad:	48 89 c6             	mov    %rax,%rsi
 db0:	48 8d 3d ae 01 00 00 	lea    0x1ae(%rip),%rdi        # f65 <pam_sm_authenticate+0x205>
 db7:	b8 00 00 00 00       	mov    $0x0,%eax
 dbc:	e8 ef f8 ff ff       	callq  6b0 <printf@plt>
 dc1:	83 7d f4 00          	cmpl   $0x0,-0xc(%rbp)
 dc5:	74 08                	je     dcf <pam_sm_authenticate+0x6f>
 dc7:	8b 45 f4             	mov    -0xc(%rbp),%eax
 dca:	e9 7c 01 00 00       	jmpq   f4b <pam_sm_authenticate+0x1eb>
 dcf:	48 8b 45 c8          	mov    -0x38(%rbp),%rax
 dd3:	48 8d 35 97 01 00 00 	lea    0x197(%rip),%rsi        # f71 <pam_sm_authenticate+0x211>
 dda:	48 89 c7             	mov    %rax,%rdi
 ddd:	e8 4e f9 ff ff       	callq  730 <strcmp@plt>
 de2:	85 c0                	test   %eax,%eax
 de4:	74 0a                	je     df0 <pam_sm_authenticate+0x90>
 de6:	b8 07 00 00 00       	mov    $0x7,%eax
 deb:	e9 5b 01 00 00       	jmpq   f4b <pam_sm_authenticate+0x1eb>
 df0:	48 8d 55 c0          	lea    -0x40(%rbp),%rdx
 df4:	48 8b 45 88          	mov    -0x78(%rbp),%rax
 df8:	b9 00 00 00 00       	mov    $0x0,%ecx
 dfd:	be 06 00 00 00       	mov    $0x6,%esi
 e02:	48 89 c7             	mov    %rax,%rdi
 e05:	b8 00 00 00 00       	mov    $0x0,%eax
 e0a:	e8 81 f9 ff ff       	callq  790 <pam_get_authtok@plt>
 e0f:	89 45 f4             	mov    %eax,-0xc(%rbp)
 e12:	83 7d f4 00          	cmpl   $0x0,-0xc(%rbp)
 e16:	74 08                	je     e20 <pam_sm_authenticate+0xc0>
 e18:	8b 45 f4             	mov    -0xc(%rbp),%eax
 e1b:	e9 2b 01 00 00       	jmpq   f4b <pam_sm_authenticate+0x1eb>
 e20:	48 8b 45 c0          	mov    -0x40(%rbp),%rax
 e24:	48 89 c7             	mov    %rax,%rdi
 e27:	e8 54 f9 ff ff       	callq  780 <strlen@plt>
 e2c:	48 89 c1             	mov    %rax,%rcx
 e2f:	48 8b 45 c0          	mov    -0x40(%rbp),%rax
 e33:	48 8d 55 b8          	lea    -0x48(%rbp),%rdx
 e37:	48 89 ce             	mov    %rcx,%rsi
 e3a:	48 89 c7             	mov    %rax,%rdi
 e3d:	e8 fe f8 ff ff       	callq  740 <base64_decode@plt>
 e42:	48 89 45 f8          	mov    %rax,-0x8(%rbp)
 e46:	48 8b 55 b8          	mov    -0x48(%rbp),%rdx
 e4a:	48 8b 4d f8          	mov    -0x8(%rbp),%rcx
 e4e:	48 8d 45 a0          	lea    -0x60(%rbp),%rax
 e52:	48 89 ce             	mov    %rcx,%rsi
 e55:	48 89 c7             	mov    %rax,%rdi
 e58:	e8 63 f8 ff ff       	callq  6c0 <memcpy@plt>
 e5d:	48 8d 35 1c 01 00 00 	lea    0x11c(%rip),%rsi        # f80 <pam_sm_authenticate+0x220>
 e64:	48 8d 3d 17 01 00 00 	lea    0x117(%rip),%rdi        # f82 <pam_sm_authenticate+0x222>
 e6b:	e8 a0 f8 ff ff       	callq  710 <fopen@plt>
 e70:	48 89 45 e8          	mov    %rax,-0x18(%rbp)
 e74:	48 83 7d e8 00       	cmpq   $0x0,-0x18(%rbp)
 e79:	75 16                	jne    e91 <pam_sm_authenticate+0x131>
 e7b:	48 8d 3d 0e 01 00 00 	lea    0x10e(%rip),%rdi        # f90 <pam_sm_authenticate+0x230>
 e82:	e8 49 f8 ff ff       	callq  6d0 <puts@plt>
 e87:	bf 01 00 00 00       	mov    $0x1,%edi
 e8c:	e8 cf f8 ff ff       	callq  760 <exit@plt>
 e91:	48 8b 4d b8          	mov    -0x48(%rbp),%rcx
 e95:	48 8d 55 98          	lea    -0x68(%rbp),%rdx
 e99:	48 8d 45 a0          	lea    -0x60(%rbp),%rax
 e9d:	48 89 ce             	mov    %rcx,%rsi
 ea0:	48 89 c7             	mov    %rax,%rdi
 ea3:	e8 58 f8 ff ff       	callq  700 <base64_encode@plt>
 ea8:	48 89 45 e0          	mov    %rax,-0x20(%rbp)
 eac:	48 8b 55 e0          	mov    -0x20(%rbp),%rdx
 eb0:	48 8b 45 e8          	mov    -0x18(%rbp),%rax
 eb4:	48 8d 35 e9 00 00 00 	lea    0xe9(%rip),%rsi        # fa4 <pam_sm_authenticate+0x244>
 ebb:	48 89 c7             	mov    %rax,%rdi
 ebe:	b8 00 00 00 00       	mov    $0x0,%eax
 ec3:	e8 28 f8 ff ff       	callq  6f0 <fprintf@plt>
 ec8:	c7 45 dc 01 00 00 00 	movl   $0x1,-0x24(%rbp)
 ecf:	f3 0f 10 05 05 04 00 	movss  0x405(%rip),%xmm0        # 12dc <pam_sm_authenticate+0x57c>
 ed6:	00 
 ed7:	f3 0f 11 45 d8       	movss  %xmm0,-0x28(%rbp)
 edc:	f3 0f 5a 45 d8       	cvtss2sd -0x28(%rbp),%xmm0
 ee1:	8b 55 dc             	mov    -0x24(%rbp),%edx
 ee4:	48 8b 45 e8          	mov    -0x18(%rbp),%rax
 ee8:	48 8d 35 c4 00 00 00 	lea    0xc4(%rip),%rsi        # fb3 <pam_sm_authenticate+0x253>
 eef:	48 89 c7             	mov    %rax,%rdi
 ef2:	b8 01 00 00 00       	mov    $0x1,%eax
 ef7:	e8 f4 f7 ff ff       	callq  6f0 <fprintf@plt>
 efc:	c6 45 d7 41          	movb   $0x41,-0x29(%rbp)
 f00:	0f be 55 d7          	movsbl -0x29(%rbp),%edx
 f04:	48 8b 45 e8          	mov    -0x18(%rbp),%rax
 f08:	48 8d 35 bc 00 00 00 	lea    0xbc(%rip),%rsi        # fcb <pam_sm_authenticate+0x26b>
 f0f:	48 89 c7             	mov    %rax,%rdi
 f12:	b8 00 00 00 00       	mov    $0x0,%eax
 f17:	e8 d4 f7 ff ff       	callq  6f0 <fprintf@plt>
 f1c:	48 8b 45 e8          	mov    -0x18(%rbp),%rax
 f20:	48 89 c7             	mov    %rax,%rdi
 f23:	e8 f8 f7 ff ff       	callq  720 <fclose@plt>
 f28:	48 8d 45 a0          	lea    -0x60(%rbp),%rax
 f2c:	48 8d 35 ad 00 00 00 	lea    0xad(%rip),%rsi        # fe0 <pam_sm_authenticate+0x280>
 f33:	48 89 c7             	mov    %rax,%rdi
 f36:	e8 f5 f7 ff ff       	callq  730 <strcmp@plt>
 f3b:	85 c0                	test   %eax,%eax
 f3d:	74 07                	je     f46 <pam_sm_authenticate+0x1e6>
 f3f:	b8 07 00 00 00       	mov    $0x7,%eax
 f44:	eb 05                	jmp    f4b <pam_sm_authenticate+0x1eb>
 f46:	b8 00 00 00 00       	mov    $0x0,%eax
 f4b:	c9                   	leaveq 
 f4c:	c3                   	retq   
