
timetravel.exe:     file format pei-i386


Disassembly of section .text:

00401000 <.text>:
  401000:	b8 f0 43 41 00       	mov    $0x4143f0,%eax
  401005:	c3                   	ret    
  401006:	cc                   	int3   
  401007:	cc                   	int3   
  401008:	cc                   	int3   
  401009:	cc                   	int3   
  40100a:	cc                   	int3   
  40100b:	cc                   	int3   
  40100c:	cc                   	int3   
  40100d:	cc                   	int3   
  40100e:	cc                   	int3   
  40100f:	cc                   	int3   
  401010:	55                   	push   %ebp
  401011:	8b ec                	mov    %esp,%ebp
  401013:	83 e4 f8             	and    $0xfffffff8,%esp
  401016:	51                   	push   %ecx
  401017:	56                   	push   %esi
  401018:	8b 75 08             	mov    0x8(%ebp),%esi
  40101b:	6a 01                	push   $0x1
  40101d:	ff 15 dc 30 41 00    	call   *0x4130dc
  401023:	83 c4 04             	add    $0x4,%esp
  401026:	8d 4d 0c             	lea    0xc(%ebp),%ecx
  401029:	51                   	push   %ecx
  40102a:	6a 00                	push   $0x0
  40102c:	56                   	push   %esi
  40102d:	50                   	push   %eax
  40102e:	e8 cd ff ff ff       	call   0x401000
  401033:	ff 70 04             	pushl  0x4(%eax)
  401036:	ff 30                	pushl  (%eax)
  401038:	ff 15 e8 30 41 00    	call   *0x4130e8
  40103e:	83 c4 18             	add    $0x18,%esp
  401041:	5e                   	pop    %esi
  401042:	8b e5                	mov    %ebp,%esp
  401044:	5d                   	pop    %ebp
  401045:	c3                   	ret    
  401046:	cc                   	int3   
  401047:	cc                   	int3   
  401048:	cc                   	int3   
  401049:	cc                   	int3   
  40104a:	cc                   	int3   
  40104b:	cc                   	int3   
  40104c:	cc                   	int3   
  40104d:	cc                   	int3   
  40104e:	cc                   	int3   
  40104f:	cc                   	int3   
  401050:	51                   	push   %ecx
  401051:	ff 15 00 31 41 00    	call   *0x413100
  401057:	83 c4 04             	add    $0x4,%esp
  40105a:	c3                   	ret    
  40105b:	cc                   	int3   
  40105c:	cc                   	int3   
  40105d:	cc                   	int3   
  40105e:	cc                   	int3   
  40105f:	cc                   	int3   
  401060:	55                   	push   %ebp
  401061:	8b ec                	mov    %esp,%ebp
  401063:	6a fe                	push   $0xfffffffe
  401065:	68 98 35 41 00       	push   $0x413598
  40106a:	68 fe 1a 41 00       	push   $0x411afe
  40106f:	64 a1 00 00 00 00    	mov    %fs:0x0,%eax
  401075:	50                   	push   %eax
  401076:	83 ec 0c             	sub    $0xc,%esp
  401079:	53                   	push   %ebx
  40107a:	56                   	push   %esi
  40107b:	57                   	push   %edi
  40107c:	a1 04 40 41 00       	mov    0x414004,%eax
  401081:	31 45 f8             	xor    %eax,-0x8(%ebp)
  401084:	33 c5                	xor    %ebp,%eax
  401086:	50                   	push   %eax
  401087:	8d 45 f0             	lea    -0x10(%ebp),%eax
  40108a:	64 a3 00 00 00 00    	mov    %eax,%fs:0x0
  401090:	89 65 e8             	mov    %esp,-0x18(%ebp)
  401093:	c7 45 fc 00 00 00 00 	movl   $0x0,-0x4(%ebp)
  40109a:	cc                   	int3   
  40109b:	b9 01 00 00 00       	mov    $0x1,%ecx
  4010a0:	eb 0b                	jmp    0x4010ad
  4010a2:	b8 01 00 00 00       	mov    $0x1,%eax
  4010a7:	c3                   	ret    
  4010a8:	8b 65 e8             	mov    -0x18(%ebp),%esp
  4010ab:	33 c9                	xor    %ecx,%ecx
  4010ad:	89 4d e4             	mov    %ecx,-0x1c(%ebp)
  4010b0:	c7 45 fc fe ff ff ff 	movl   $0xfffffffe,-0x4(%ebp)
  4010b7:	33 c0                	xor    %eax,%eax
  4010b9:	85 c9                	test   %ecx,%ecx
  4010bb:	0f 95 c0             	setne  %al
  4010be:	8b 4d f0             	mov    -0x10(%ebp),%ecx
  4010c1:	64 89 0d 00 00 00 00 	mov    %ecx,%fs:0x0
  4010c8:	59                   	pop    %ecx
  4010c9:	5f                   	pop    %edi
  4010ca:	5e                   	pop    %esi
  4010cb:	5b                   	pop    %ebx
  4010cc:	8b e5                	mov    %ebp,%esp
  4010ce:	5d                   	pop    %ebp
  4010cf:	c3                   	ret    
  4010d0:	55                   	push   %ebp
  4010d1:	8b ec                	mov    %esp,%ebp
  4010d3:	6a fe                	push   $0xfffffffe
  4010d5:	68 b8 35 41 00       	push   $0x4135b8
  4010da:	68 fe 1a 41 00       	push   $0x411afe
  4010df:	64 a1 00 00 00 00    	mov    %fs:0x0,%eax
  4010e5:	50                   	push   %eax
  4010e6:	83 ec 08             	sub    $0x8,%esp
  4010e9:	53                   	push   %ebx
  4010ea:	56                   	push   %esi
  4010eb:	57                   	push   %edi
  4010ec:	a1 04 40 41 00       	mov    0x414004,%eax
  4010f1:	31 45 f8             	xor    %eax,-0x8(%ebp)
  4010f4:	33 c5                	xor    %ebp,%eax
  4010f6:	50                   	push   %eax
  4010f7:	8d 45 f0             	lea    -0x10(%ebp),%eax
  4010fa:	64 a3 00 00 00 00    	mov    %eax,%fs:0x0
  401100:	89 65 e8             	mov    %esp,-0x18(%ebp)
  401103:	c7 45 fc 00 00 00 00 	movl   $0x0,-0x4(%ebp)
  40110a:	cd 03                	int    $0x3
  40110c:	c7 45 fc fe ff ff ff 	movl   $0xfffffffe,-0x4(%ebp)
  401113:	b8 01 00 00 00       	mov    $0x1,%eax
  401118:	8b 4d f0             	mov    -0x10(%ebp),%ecx
  40111b:	64 89 0d 00 00 00 00 	mov    %ecx,%fs:0x0
  401122:	59                   	pop    %ecx
  401123:	5f                   	pop    %edi
  401124:	5e                   	pop    %esi
  401125:	5b                   	pop    %ebx
  401126:	8b e5                	mov    %ebp,%esp
  401128:	5d                   	pop    %ebp
  401129:	c3                   	ret    
  40112a:	b8 01 00 00 00       	mov    $0x1,%eax
  40112f:	c3                   	ret    
  401130:	8b 65 e8             	mov    -0x18(%ebp),%esp
  401133:	c7 45 fc fe ff ff ff 	movl   $0xfffffffe,-0x4(%ebp)
  40113a:	33 c0                	xor    %eax,%eax
  40113c:	8b 4d f0             	mov    -0x10(%ebp),%ecx
  40113f:	64 89 0d 00 00 00 00 	mov    %ecx,%fs:0x0
  401146:	59                   	pop    %ecx
  401147:	5f                   	pop    %edi
  401148:	5e                   	pop    %esi
  401149:	5b                   	pop    %ebx
  40114a:	8b e5                	mov    %ebp,%esp
  40114c:	5d                   	pop    %ebp
  40114d:	c3                   	ret    
  40114e:	cc                   	int3   
  40114f:	cc                   	int3   
  401150:	c1 e8 1c             	shr    $0x1c,%eax
  401153:	c1 c0 0c             	rol    $0xc,%eax
  401156:	f7 d8                	neg    %eax
  401158:	c1 c0 4d             	rol    $0x4d,%eax
  40115b:	05 b4 ac 4a c7       	add    $0xc74aacb4,%eax
  401160:	f7 d0                	not    %eax
  401162:	b8 3d cb 96 b7       	mov    $0xb796cb3d,%eax
  401167:	d1 c0                	rol    %eax
  401169:	83 e8 16             	sub    $0x16,%eax
  40116c:	0f ba f0 1d          	btr    $0x1d,%eax
  401170:	c1 e0 17             	shl    $0x17,%eax
  401173:	0f c8                	bswap  %eax
  401175:	c1 c8 50             	ror    $0x50,%eax
  401178:	23 c4                	and    %esp,%eax
  40117a:	35 3e c1 1d 8d       	xor    $0x8d1dc13e,%eax
  40117f:	2d bc 03 6b dc       	sub    $0xdc6b03bc,%eax
  401184:	d1 c8                	ror    %eax
  401186:	2d 5d 06 0a fb       	sub    $0xfb0a065d,%eax
  40118b:	23 c0                	and    %eax,%eax
  40118d:	0f c8                	bswap  %eax
  40118f:	c1 e8 09             	shr    $0x9,%eax
  401192:	f7 d8                	neg    %eax
  401194:	60                   	pusha  
  401195:	89 25 80 43 41 00    	mov    %esp,0x414380
  40119b:	b8 e2 ff ff ff       	mov    $0xffffffe2,%eax
  4011a0:	f7 d8                	neg    %eax
  4011a2:	0f c8                	bswap  %eax
  4011a4:	83 f0 8d             	xor    $0xffffff8d,%eax
  4011a7:	0f c8                	bswap  %eax
  4011a9:	81 ec 70 08 00 00    	sub    $0x870,%esp
  4011af:	50                   	push   %eax
  4011b0:	5d                   	pop    %ebp
  4011b1:	83 f5 b8             	xor    $0xffffffb8,%ebp
  4011b4:	81 ed f8 a4 b6 8e    	sub    $0x8eb6a4f8,%ebp
  4011ba:	83 f5 37             	xor    $0x37,%ebp
  4011bd:	c1 db 1d             	rcr    $0x1d,%ebx
  4011c0:	81 c5 b9 45 2b 38    	add    $0x382b45b9,%ebp
  4011c6:	d3 da                	rcr    %cl,%edx
  4011c8:	83 ed 92             	sub    $0xffffff92,%ebp
  4011cb:	0b cc                	or     %esp,%ecx
  4011cd:	4d                   	dec    %ebp
  4011ce:	f8                   	clc    
  4011cf:	83 f5 07             	xor    $0x7,%ebp
  4011d2:	f7 d3                	not    %ebx
  4011d4:	d1 c5                	rol    %ebp
  4011d6:	f7 d9                	neg    %ecx
  4011d8:	83 f5 28             	xor    $0x28,%ebp
  4011db:	83 ed 39             	sub    $0x39,%ebp
  4011de:	81 f5 8a 46 8d 55    	xor    $0x558d468a,%ebp
  4011e4:	4d                   	dec    %ebp
  4011e5:	f7 d5                	not    %ebp
  4011e7:	be 43 19 1a fd       	mov    $0xfd1a1943,%esi
  4011ec:	d1 cd                	ror    %ebp
  4011ee:	83 c5 10             	add    $0x10,%ebp
  4011f1:	9f                   	lahf   
  4011f2:	81 c5 d0 00 a2 f6    	add    $0xf6a200d0,%ebp
  4011f8:	0f cd                	bswap  %ebp
  4011fa:	81 f5 46 cb f5 bf    	xor    $0xbff5cb46,%ebp
  401200:	4d                   	dec    %ebp
  401201:	f7 dd                	neg    %ebp
  401203:	1b f0                	sbb    %eax,%esi
  401205:	f7 d5                	not    %ebp
  401207:	83 c9 dd             	or     $0xffffffdd,%ecx
  40120a:	0f cd                	bswap  %ebp
  40120c:	f7 de                	neg    %esi
  40120e:	83 ed a3             	sub    $0xffffffa3,%ebp
  401211:	f7 d5                	not    %ebp
  401213:	83 e3 48             	and    $0x48,%ebx
  401216:	83 c5 47             	add    $0x47,%ebp
  401219:	4d                   	dec    %ebp
  40121a:	0f cd                	bswap  %ebp
  40121c:	83 da 5b             	sbb    $0x5b,%edx
  40121f:	81 ed ca 0b 7a 43    	sub    $0x437a0bca,%ebp
  401225:	d1 c5                	rol    %ebp
  401227:	f7 dd                	neg    %ebp
  401229:	c1 ea 1c             	shr    $0x1c,%edx
  40122c:	c1 c5 0c             	rol    $0xc,%ebp
  40122f:	f7 dd                	neg    %ebp
  401231:	c1 c5 4d             	rol    $0x4d,%ebp
  401234:	81 c5 b4 ac 4a c7    	add    $0xc74aacb4,%ebp
  40123a:	fd                   	std    
  40123b:	f7 d5                	not    %ebp
  40123d:	bb 3d cb 96 b7       	mov    $0xb796cb3d,%ebx
  401242:	d1 c5                	rol    %ebp
  401244:	83 ed 16             	sub    $0x16,%ebp
  401247:	0f ba f7 1d          	btr    $0x1d,%edi
  40124b:	81 c5 3a d0 58 26    	add    $0x2658d03a,%ebp
  401251:	c1 e1 17             	shl    $0x17,%ecx
  401254:	0f cd                	bswap  %ebp
  401256:	d3 fe                	sar    %cl,%esi
  401258:	c1 cd 50             	ror    $0x50,%ebp
  40125b:	23 f4                	and    %esp,%esi
  40125d:	81 f5 3e c1 1d 8d    	xor    $0x8d1dc13e,%ebp
  401263:	81 e9 bc 03 6b dc    	sub    $0xdc6b03bc,%ecx
  401269:	d1 cd                	ror    %ebp
  40126b:	81 ed 5d 06 0a fb    	sub    $0xfb0a065d,%ebp
  401271:	23 c2                	and    %edx,%eax
  401273:	0f cd                	bswap  %ebp
  401275:	c1 eb 09             	shr    $0x9,%ebx
  401278:	f7 dd                	neg    %ebp
  40127a:	f7 d1                	not    %ecx
  40127c:	81 c5 e3 75 97 4b    	add    $0x4b9775e3,%ebp
  401282:	49                   	dec    %ecx
  401283:	83 f5 41             	xor    $0x41,%ebp
  401286:	0f ba f1 d5          	btr    $0xd5,%ecx
  40128a:	0f cd                	bswap  %ebp
  40128c:	40                   	inc    %eax
  40128d:	c1 cd 16             	ror    $0x16,%ebp
  401290:	f7 da                	neg    %edx
  401292:	83 f5 04             	xor    $0x4,%ebp
  401295:	45                   	inc    %ebp
  401296:	83 f5 b9             	xor    $0xffffffb9,%ebp
  401299:	f7 d5                	not    %ebp
  40129b:	8b cb                	mov    %ebx,%ecx
  40129d:	c1 cd 76             	ror    $0x76,%ebp
  4012a0:	f7 d5                	not    %ebp
  4012a2:	c1 eb 1b             	shr    $0x1b,%ebx
  4012a5:	83 f5 c2             	xor    $0xffffffc2,%ebp
  4012a8:	81 c5 da 1f ea 03    	add    $0x3ea1fda,%ebp
  4012ae:	45                   	inc    %ebp
  4012af:	83 f3 9d             	xor    $0xffffff9d,%ebx
  4012b2:	81 f5 3e 7e 8a 35    	xor    $0x358a7e3e,%ebp
  4012b8:	0b f9                	or     %ecx,%edi
  4012ba:	81 c5 8c 69 9c 5a    	add    $0x5a9c698c,%ebp
  4012c0:	42                   	inc    %edx
  4012c1:	83 f5 a3             	xor    $0xffffffa3,%ebp
  4012c4:	83 c9 8b             	or     $0xffffff8b,%ecx
  4012c7:	c1 c5 76             	rol    $0x76,%ebp
  4012ca:	83 f5 b4             	xor    $0xffffffb4,%ebp
  4012cd:	bf c7 34 80 2e       	mov    $0x2e8034c7,%edi
  4012d2:	f7 d5                	not    %ebp
  4012d4:	47                   	inc    %edi
  4012d5:	f7 dd                	neg    %ebp
  4012d7:	f7 db                	neg    %ebx
  4012d9:	83 c5 e8             	add    $0xffffffe8,%ebp
  4012dc:	f8                   	clc    
  4012dd:	0f cd                	bswap  %ebp
  4012df:	45                   	inc    %ebp
  4012e0:	d3 fe                	sar    %cl,%esi
  4012e2:	81 f5 3e e7 0d 8b    	xor    $0x8b0de73e,%ebp
  4012e8:	b9 f1 a6 b7 e3       	mov    $0xe3b7a6f1,%ecx
  4012ed:	0f cd                	bswap  %ebp
  4012ef:	83 df c3             	sbb    $0xffffffc3,%edi
  4012f2:	f7 d5                	not    %ebp
  4012f4:	d1 c5                	rol    %ebp
  4012f6:	43                   	inc    %ebx
  4012f7:	f7 d5                	not    %ebp
  4012f9:	f9                   	stc    
  4012fa:	81 f5 f4 23 8c b4    	xor    $0xb48c23f4,%ebp
  401300:	0f ba e0 3b          	bt     $0x3b,%eax
  401304:	d1 cd                	ror    %ebp
  401306:	c1 cd 23             	ror    $0x23,%ebp
  401309:	83 f5 0a             	xor    $0xa,%ebp
  40130c:	81 c5 46 45 d5 47    	add    $0x47d54546,%ebp
  401312:	81 f5 86 32 9e bf    	xor    $0xbf9e3286,%ebp
  401318:	f7 dd                	neg    %ebp
  40131a:	c1 ff 04             	sar    $0x4,%edi
  40131d:	83 c5 b2             	add    $0xffffffb2,%ebp
  401320:	f7 d5                	not    %ebp
  401322:	c1 cd f8             	ror    $0xf8,%ebp
  401325:	d1 c5                	rol    %ebp
  401327:	f8                   	clc    
  401328:	81 f5 3f 5c 5b ff    	xor    $0xff5b5c3f,%ebp
  40132e:	0f ba ee 7b          	bts    $0x7b,%esi
  401332:	83 f5 76             	xor    $0x76,%ebp
  401335:	c1 c5 b7             	rol    $0xb7,%ebp
  401338:	0f cd                	bswap  %ebp
  40133a:	f7 d1                	not    %ecx
  40133c:	f7 d5                	not    %ebp
  40133e:	83 f5 cf             	xor    $0xffffffcf,%ebp
  401341:	4e                   	dec    %esi
  401342:	81 f5 ed e5 e6 9d    	xor    $0x9de6e5ed,%ebp
  401348:	d3 d0                	rcl    %cl,%eax
  40134a:	f7 dd                	neg    %ebp
  40134c:	25 3d dc d1 af       	and    $0xafd1dc3d,%eax
  401351:	4d                   	dec    %ebp
  401352:	83 df 24             	sbb    $0x24,%edi
  401355:	81 f5 21 d6 57 bb    	xor    $0xbb57d621,%ebp
  40135b:	4d                   	dec    %ebp
  40135c:	0f cd                	bswap  %ebp
  40135e:	d1 cd                	ror    %ebp
  401360:	48                   	dec    %eax
  401361:	83 f5 bf             	xor    $0xffffffbf,%ebp
  401364:	81 c9 d0 12 17 8e    	or     $0x8e1712d0,%ecx
  40136a:	81 f5 07 df 77 3b    	xor    $0x3b77df07,%ebp
  401370:	81 e3 18 d6 ed 9e    	and    $0x9eedd618,%ebx
  401376:	c1 c5 00             	rol    $0x0,%ebp
  401379:	f7 d5                	not    %ebp
  40137b:	81 ed ef ee e2 54    	sub    $0x54e2eeef,%ebp
  401381:	0f cd                	bswap  %ebp
  401383:	81 ce 1a 9d b6 5a    	or     $0x5ab69d1a,%esi
  401389:	d1 cd                	ror    %ebp
  40138b:	1b c7                	sbb    %edi,%eax
  40138d:	81 f5 5c de 83 89    	xor    $0x8983de5c,%ebp
  401393:	f7 d5                	not    %ebp
  401395:	f7 dd                	neg    %ebp
  401397:	0f ba e2 15          	bt     $0x15,%edx
  40139b:	81 f5 cb 23 41 e0    	xor    $0xe04123cb,%ebp
  4013a1:	f7 d7                	not    %edi
  4013a3:	83 ed f2             	sub    $0xfffffff2,%ebp
  4013a6:	81 f5 b9 6f 0b 0f    	xor    $0xf0b6fb9,%ebp
  4013ac:	4d                   	dec    %ebp
  4013ad:	81 c5 bd 6f 50 54    	add    $0x54506fbd,%ebp
  4013b3:	f7 dd                	neg    %ebp
  4013b5:	0f cd                	bswap  %ebp
  4013b7:	25 94 8f f5 f6       	and    $0xf6f58f94,%eax
  4013bc:	4d                   	dec    %ebp
  4013bd:	83 f5 08             	xor    $0x8,%ebp
  4013c0:	47                   	inc    %edi
  4013c1:	0f cd                	bswap  %ebp
  4013c3:	d1 cd                	ror    %ebp
  4013c5:	83 f5 5f             	xor    $0x5f,%ebp
  4013c8:	bb f1 5d 5d 26       	mov    $0x265d5df1,%ebx
  4013cd:	81 ed f4 02 38 4a    	sub    $0x4a3802f4,%ebp
  4013d3:	81 f5 96 99 74 d8    	xor    $0xd8749996,%ebp
  4013d9:	55                   	push   %ebp
  4013da:	5f                   	pop    %edi
  4013db:	83 ef 6e             	sub    $0x6e,%edi
  4013de:	4f                   	dec    %edi
  4013df:	f7 d8                	neg    %eax
  4013e1:	f7 d7                	not    %edi
  4013e3:	f7 db                	neg    %ebx
  4013e5:	83 f7 5f             	xor    $0x5f,%edi
  4013e8:	81 ef e1 56 77 2e    	sub    $0x2e7756e1,%edi
  4013ee:	83 c7 fb             	add    $0xfffffffb,%edi
  4013f1:	81 ef ad aa d2 e1    	sub    $0xe1d2aaad,%edi
  4013f7:	f7 d7                	not    %edi
  4013f9:	81 c7 19 26 0c ca    	add    $0xca0c2619,%edi
  4013ff:	d1 cf                	ror    %edi
  401401:	f7 d7                	not    %edi
  401403:	0b df                	or     %edi,%ebx
  401405:	23 df                	and    %edi,%ebx
  401407:	43                   	inc    %ebx
  401408:	d3 e6                	shl    %cl,%esi
  40140a:	f7 db                	neg    %ebx
  40140c:	4b                   	dec    %ebx
  40140d:	83 de 51             	sbb    $0x51,%esi
  401410:	83 f3 96             	xor    $0xffffff96,%ebx
  401413:	c1 c3 d0             	rol    $0xd0,%ebx
  401416:	0f ba f2 c9          	btr    $0xc9,%edx
  40141a:	81 f3 cb 5d 99 5e    	xor    $0x5e995dcb,%ebx
  401420:	f7 df                	neg    %edi
  401422:	83 eb 30             	sub    $0x30,%ebx
  401425:	1b c4                	sbb    %esp,%eax
  401427:	4b                   	dec    %ebx
  401428:	13 d4                	adc    %esp,%edx
  40142a:	f7 d3                	not    %ebx
  40142c:	81 f3 ee 3c 36 db    	xor    $0xdb363cee,%ebx
  401432:	0f cb                	bswap  %ebx
  401434:	d3 de                	rcr    %cl,%esi
  401436:	81 f3 ed 26 b9 53    	xor    $0x53b926ed,%ebx
  40143c:	2b f6                	sub    %esi,%esi
  40143e:	c1 cb e5             	ror    $0xe5,%ebx
  401441:	f8                   	clc    
  401442:	d1 c3                	rol    %ebx
  401444:	f7 d3                	not    %ebx
  401446:	43                   	inc    %ebx
  401447:	13 ff                	adc    %edi,%edi
  401449:	83 f3 18             	xor    $0x18,%ebx
  40144c:	f7 d3                	not    %ebx
  40144e:	83 ef 28             	sub    $0x28,%edi
  401451:	f7 db                	neg    %ebx
  401453:	83 f3 27             	xor    $0x27,%ebx
  401456:	bf 08 84 83 50       	mov    $0x50838408,%edi
  40145b:	4b                   	dec    %ebx
  40145c:	81 f3 e5 3c 87 cf    	xor    $0xcf873ce5,%ebx
  401462:	f9                   	stc    
  401463:	83 f3 75             	xor    $0x75,%ebx
  401466:	2f                   	das    
  401467:	c1 c3 b5             	rol    $0xb5,%ebx
  40146a:	81 c3 9c d3 94 ed    	add    $0xed94d39c,%ebx
  401470:	83 f3 3c             	xor    $0x3c,%ebx
  401473:	83 c3 21             	add    $0x21,%ebx
  401476:	f7 d6                	not    %esi
  401478:	83 f3 09             	xor    $0x9,%ebx
  40147b:	3f                   	aas    
  40147c:	81 f3 da 9d 96 ec    	xor    $0xec969dda,%ebx
  401482:	81 eb 26 34 87 64    	sub    $0x64873426,%ebx
  401488:	d1 c3                	rol    %ebx
  40148a:	c1 cb b5             	ror    $0xb5,%ebx
  40148d:	0f ba f8 93          	btc    $0x93,%eax
  401491:	81 f3 60 40 17 94    	xor    $0x94174060,%ebx
  401497:	83 e0 a4             	and    $0xffffffa4,%eax
  40149a:	83 c3 65             	add    $0x65,%ebx
  40149d:	0f cb                	bswap  %ebx
  40149f:	d1 c3                	rol    %ebx
  4014a1:	83 ea bc             	sub    $0xffffffbc,%edx
  4014a4:	81 eb d5 b7 da c5    	sub    $0xc5dab7d5,%ebx
  4014aa:	83 f3 c7             	xor    $0xffffffc7,%ebx
  4014ad:	b8 09 79 4d 46       	mov    $0x464d7909,%eax
  4014b2:	f7 d3                	not    %ebx
  4014b4:	c1 cb 31             	ror    $0x31,%ebx
  4014b7:	d1 cb                	ror    %ebx
  4014b9:	0f cb                	bswap  %ebx
  4014bb:	4e                   	dec    %esi
  4014bc:	c1 cb 37             	ror    $0x37,%ebx
  4014bf:	83 f3 96             	xor    $0xffffff96,%ebx
  4014c2:	4b                   	dec    %ebx
  4014c3:	d1 cb                	ror    %ebx
  4014c5:	be 39 c5 b9 89       	mov    $0x89b9c539,%esi
  4014ca:	43                   	inc    %ebx
  4014cb:	d1 cb                	ror    %ebx
  4014cd:	f7 d3                	not    %ebx
  4014cf:	d1 cb                	ror    %ebx
  4014d1:	43                   	inc    %ebx
  4014d2:	83 f3 e5             	xor    $0xffffffe5,%ebx
  4014d5:	81 c3 cc 40 47 87    	add    $0x874740cc,%ebx
  4014db:	f8                   	clc    
  4014dc:	43                   	inc    %ebx
  4014dd:	c1 c3 7b             	rol    $0x7b,%ebx
  4014e0:	0f cb                	bswap  %ebx
  4014e2:	83 c3 ab             	add    $0xffffffab,%ebx
  4014e5:	0f cb                	bswap  %ebx
  4014e7:	c1 c6 05             	rol    $0x5,%esi
  4014ea:	83 eb f5             	sub    $0xfffffff5,%ebx
  4014ed:	83 f3 31             	xor    $0x31,%ebx
  4014f0:	c1 cb 7f             	ror    $0x7f,%ebx
  4014f3:	d3 df                	rcr    %cl,%edi
  4014f5:	f7 db                	neg    %ebx
  4014f7:	81 c3 e2 7e 43 2b    	add    $0x2b437ee2,%ebx
  4014fd:	f7 d5                	not    %ebp
  4014ff:	4b                   	dec    %ebx
  401500:	81 da fb f2 c6 5c    	sbb    $0x5cc6f2fb,%edx
  401506:	81 f3 f0 8c eb 3c    	xor    $0x3ceb8cf0,%ebx
  40150c:	c1 c3 3a             	rol    $0x3a,%ebx
  40150f:	53                   	push   %ebx
  401510:	58                   	pop    %eax
  401511:	35 dd a8 83 11       	xor    $0x1183a8dd,%eax
  401516:	50                   	push   %eax
  401517:	5b                   	pop    %ebx
  401518:	f7 d3                	not    %ebx
  40151a:	48                   	dec    %eax
  40151b:	c1 cb 10             	ror    $0x10,%ebx
  40151e:	d3 e9                	shr    %cl,%ecx
  401520:	0f cb                	bswap  %ebx
  401522:	81 e7 8b 46 eb 33    	and    $0x33eb468b,%edi
  401528:	83 c3 7e             	add    $0x7e,%ebx
  40152b:	83 f3 dc             	xor    $0xffffffdc,%ebx
  40152e:	23 f2                	and    %edx,%esi
  401530:	c1 c3 bc             	rol    $0xbc,%ebx
  401533:	0f cb                	bswap  %ebx
  401535:	d1 c3                	rol    %ebx
  401537:	0f ba e9 70          	bts    $0x70,%ecx
  40153b:	c1 cb 91             	ror    $0x91,%ebx
  40153e:	0b c3                	or     %ebx,%eax
  401540:	23 c3                	and    %ebx,%eax
  401542:	f7 db                	neg    %ebx
  401544:	0f c8                	bswap  %eax
  401546:	f7 d8                	neg    %eax
  401548:	c1 c0 f6             	rol    $0xf6,%eax
  40154b:	d3 e3                	shl    %cl,%ebx
  40154d:	48                   	dec    %eax
  40154e:	d3 fd                	sar    %cl,%ebp
  401550:	83 f0 54             	xor    $0x54,%eax
  401553:	f7 d1                	not    %ecx
  401555:	d1 c0                	rol    %eax
  401557:	81 e2 7a 28 7f 92    	and    $0x927f287a,%edx
  40155d:	f7 d8                	neg    %eax
  40155f:	35 40 2a e2 d0       	xor    $0xd0e22a40,%eax
  401564:	c1 c8 fb             	ror    $0xfb,%eax
  401567:	2d 0d 60 e2 54       	sub    $0x54e2600d,%eax
  40156c:	f7 d8                	neg    %eax
  40156e:	49                   	dec    %ecx
  40156f:	d1 c0                	rol    %eax
  401571:	83 f0 a5             	xor    $0xffffffa5,%eax
  401574:	0f ba e3 08          	bt     $0x8,%ebx
  401578:	40                   	inc    %eax
  401579:	2d 09 e9 f7 f6       	sub    $0xf6f7e909,%eax
  40157e:	d1 c8                	ror    %eax
  401580:	c1 c0 e8             	rol    $0xe8,%eax
  401583:	c1 c1 0e             	rol    $0xe,%ecx
  401586:	05 ec 42 8a f4       	add    $0xf48a42ec,%eax
  40158b:	f7 d8                	neg    %eax
  40158d:	f9                   	stc    
  40158e:	83 f0 44             	xor    $0x44,%eax
  401591:	c1 c5 1a             	rol    $0x1a,%ebp
  401594:	d1 c0                	rol    %eax
  401596:	81 fb 31 d6 64 8c    	cmp    $0x8c64d631,%ebx
  40159c:	f7 d8                	neg    %eax
  40159e:	83 f0 6e             	xor    $0x6e,%eax
  4015a1:	0f c8                	bswap  %eax
  4015a3:	ba 94 8e 21 93       	mov    $0x93218e94,%edx
  4015a8:	f7 d8                	neg    %eax
  4015aa:	05 7e 0e 4d 96       	add    $0x964d0e7e,%eax
  4015af:	c1 da 1d             	rcr    $0x1d,%edx
  4015b2:	83 c0 d7             	add    $0xffffffd7,%eax
  4015b5:	35 92 8a 7d 96       	xor    $0x967d8a92,%eax
  4015ba:	fd                   	std    
  4015bb:	2d b4 97 f5 a0       	sub    $0xa0f597b4,%eax
  4015c0:	d1 c0                	rol    %eax
  4015c2:	c1 c8 79             	ror    $0x79,%eax
  4015c5:	13 f3                	adc    %ebx,%esi
  4015c7:	83 c0 37             	add    $0x37,%eax
  4015ca:	2d cf 3f 4a 73       	sub    $0x734a3fcf,%eax
  4015cf:	35 e0 19 12 e3       	xor    $0xe31219e0,%eax
  4015d4:	40                   	inc    %eax
  4015d5:	41                   	inc    %ecx
  4015d6:	f7 d8                	neg    %eax
  4015d8:	d1 c0                	rol    %eax
  4015da:	c1 c8 fe             	ror    $0xfe,%eax
  4015dd:	1b fd                	sbb    %ebp,%edi
  4015df:	40                   	inc    %eax
  4015e0:	33 f6                	xor    %esi,%esi
  4015e2:	f7 d8                	neg    %eax
  4015e4:	83 fd 49             	cmp    $0x49,%ebp
  4015e7:	d1 c0                	rol    %eax
  4015e9:	f8                   	clc    
  4015ea:	83 e8 98             	sub    $0xffffff98,%eax
  4015ed:	40                   	inc    %eax
  4015ee:	d3 c1                	rol    %cl,%ecx
  4015f0:	35 4d bd 31 0f       	xor    $0xf31bd4d,%eax
  4015f5:	d3 e3                	shl    %cl,%ebx
  4015f7:	05 90 a8 15 7d       	add    $0x7d15a890,%eax
  4015fc:	f7 d6                	not    %esi
  4015fe:	f7 d8                	neg    %eax
  401600:	0f ba f5 af          	btr    $0xaf,%ebp
  401604:	f7 d0                	not    %eax
  401606:	f7 d6                	not    %esi
  401608:	0f c8                	bswap  %eax
  40160a:	bf f6 d3 09 21       	mov    $0x2109d3f6,%edi
  40160f:	83 f0 b2             	xor    $0xffffffb2,%eax
  401612:	c1 ea 10             	shr    $0x10,%edx
  401615:	f7 d8                	neg    %eax
  401617:	c1 c0 5f             	rol    $0x5f,%eax
  40161a:	f7 d0                	not    %eax
  40161c:	d1 c8                	ror    %eax
  40161e:	bd 77 8d 30 12       	mov    $0x12308d77,%ebp
  401623:	c1 c0 3b             	rol    $0x3b,%eax
  401626:	2d 6d 1b c2 71       	sub    $0x71c21b6d,%eax
  40162b:	f7 d0                	not    %eax
  40162d:	4a                   	dec    %edx
  40162e:	83 c0 b7             	add    $0xffffffb7,%eax
  401631:	f7 d0                	not    %eax
  401633:	f7 d8                	neg    %eax
  401635:	f7 d3                	not    %ebx
  401637:	0f c8                	bswap  %eax
  401639:	c1 de 1c             	rcr    $0x1c,%esi
  40163c:	c1 c8 11             	ror    $0x11,%eax
  40163f:	03 de                	add    %esi,%ebx
  401641:	0f c8                	bswap  %eax
  401643:	d1 c0                	rol    %eax
  401645:	c1 c0 9a             	rol    $0x9a,%eax
  401648:	81 db 1e 44 cf 13    	sbb    $0x13cf441e,%ebx
  40164e:	0f c8                	bswap  %eax
  401650:	41                   	inc    %ecx
  401651:	f7 d0                	not    %eax
  401653:	d1 c0                	rol    %eax
  401655:	4f                   	dec    %edi
  401656:	f7 d8                	neg    %eax
  401658:	43                   	inc    %ebx
  401659:	35 8a 9a 87 cc       	xor    $0xcc879a8a,%eax
  40165e:	33 ce                	xor    %esi,%ecx
  401660:	0f c8                	bswap  %eax
  401662:	f8                   	clc    
  401663:	40                   	inc    %eax
  401664:	0f ba f7 bd          	btr    $0xbd,%edi
  401668:	83 f0 26             	xor    $0x26,%eax
  40166b:	35 72 d2 be ef       	xor    $0xefbed272,%eax
  401670:	0f c8                	bswap  %eax
  401672:	2d 5f 69 0a 31       	sub    $0x310a695f,%eax
  401677:	d1 c0                	rol    %eax
  401679:	b9 af 4d a5 16       	mov    $0x16a54daf,%ecx
  40167e:	c1 c8 34             	ror    $0x34,%eax
  401681:	43                   	inc    %ebx
  401682:	35 7a 9f 36 47       	xor    $0x47369f7a,%eax
  401687:	43                   	inc    %ebx
  401688:	c1 c0 9d             	rol    $0x9d,%eax
  40168b:	40                   	inc    %eax
  40168c:	2d ef ec 04 5c       	sub    $0x5c04ecef,%eax
  401691:	83 e8 05             	sub    $0x5,%eax
  401694:	be f1 d8 fd df       	mov    $0xdffdd8f1,%esi
  401699:	05 48 a0 b3 c0       	add    $0xc0b3a048,%eax
  40169e:	f7 d8                	neg    %eax
  4016a0:	0b f9                	or     %ecx,%edi
  4016a2:	f7 d0                	not    %eax
  4016a4:	f9                   	stc    
  4016a5:	c1 c8 7c             	ror    $0x7c,%eax
  4016a8:	83 c0 2b             	add    $0x2b,%eax
  4016ab:	bd 36 56 f4 84       	mov    $0x84f45636,%ebp
  4016b0:	f7 d0                	not    %eax
  4016b2:	d3 da                	rcr    %cl,%edx
  4016b4:	40                   	inc    %eax
  4016b5:	f7 d8                	neg    %eax
  4016b7:	d3 cd                	ror    %cl,%ebp
  4016b9:	48                   	dec    %eax
  4016ba:	0f c8                	bswap  %eax
  4016bc:	81 c2 6f 18 f9 ef    	add    $0xeff9186f,%edx
  4016c2:	35 a0 95 e7 c8       	xor    $0xc8e795a0,%eax
  4016c7:	c1 cf 1f             	ror    $0x1f,%edi
  4016ca:	d1 c8                	ror    %eax
  4016cc:	0f ba fd 48          	btc    $0x48,%ebp
  4016d0:	35 ee fa 42 b0       	xor    $0xb042faee,%eax
  4016d5:	42                   	inc    %edx
  4016d6:	f7 d8                	neg    %eax
  4016d8:	f7 d6                	not    %esi
  4016da:	48                   	dec    %eax
  4016db:	c1 e9 04             	shr    $0x4,%ecx
  4016de:	83 f0 db             	xor    $0xffffffdb,%eax
  4016e1:	f7 d0                	not    %eax
  4016e3:	d1 c0                	rol    %eax
  4016e5:	83 e8 02             	sub    $0x2,%eax
  4016e8:	2d c1 44 90 6e       	sub    $0x6e9044c1,%eax
  4016ed:	f7 d0                	not    %eax
  4016ef:	f7 d8                	neg    %eax
  4016f1:	40                   	inc    %eax
  4016f2:	d1 c8                	ror    %eax
  4016f4:	f7 d0                	not    %eax
  4016f6:	83 f0 c6             	xor    $0xffffffc6,%eax
  4016f9:	d1 c0                	rol    %eax
  4016fb:	83 c0 86             	add    $0xffffff86,%eax
  4016fe:	d3 c2                	rol    %cl,%edx
  401700:	35 c5 0d d0 41       	xor    $0x41d00dc5,%eax
  401705:	05 07 ae a3 5d       	add    $0x5da3ae07,%eax
  40170a:	c1 c8 dc             	ror    $0xdc,%eax
  40170d:	d1 c8                	ror    %eax
  40170f:	48                   	dec    %eax
  401710:	45                   	inc    %ebp
  401711:	05 96 ad 0b d5       	add    $0xd50bad96,%eax
  401716:	40                   	inc    %eax
  401717:	bd 25 21 77 b1       	mov    $0xb1772125,%ebp
  40171c:	f7 d0                	not    %eax
  40171e:	83 e8 ce             	sub    $0xffffffce,%eax
  401721:	35 65 87 67 f1       	xor    $0xf1678765,%eax
  401726:	f7 d8                	neg    %eax
  401728:	c1 c0 9b             	rol    $0x9b,%eax
  40172b:	f7 d0                	not    %eax
  40172d:	0f ba eb ad          	bts    $0xad,%ebx
  401731:	83 c0 2a             	add    $0x2a,%eax
  401734:	c1 c8 88             	ror    $0x88,%eax
  401737:	83 f0 e3             	xor    $0xffffffe3,%eax
  40173a:	f7 d8                	neg    %eax
  40173c:	48                   	dec    %eax
  40173d:	0f ba ef 99          	bts    $0x99,%edi
  401741:	83 c0 e3             	add    $0xffffffe3,%eax
  401744:	d1 c8                	ror    %eax
  401746:	83 f2 01             	xor    $0x1,%edx
  401749:	c1 c8 ea             	ror    $0xea,%eax
  40174c:	d3 e6                	shl    %cl,%esi
  40174e:	35 24 1e f3 22       	xor    $0x22f31e24,%eax
  401753:	f7 d7                	not    %edi
  401755:	d1 c0                	rol    %eax
  401757:	83 f0 98             	xor    $0xffffff98,%eax
  40175a:	0b e9                	or     %ecx,%ebp
  40175c:	83 e8 5d             	sub    $0x5d,%eax
  40175f:	2d fb 04 81 82       	sub    $0x828104fb,%eax
  401764:	35 4a 1a 60 f0       	xor    $0xf0601a4a,%eax
  401769:	f7 d7                	not    %edi
  40176b:	d1 c0                	rol    %eax
  40176d:	03 e8                	add    %eax,%ebp
  40176f:	40                   	inc    %eax
  401770:	4f                   	dec    %edi
  401771:	f7 d8                	neg    %eax
  401773:	93                   	xchg   %eax,%ebx
  401774:	f9                   	stc    
  401775:	83 c3 66             	add    $0x66,%ebx
  401778:	f7 d3                	not    %ebx
  40177a:	83 d6 bb             	adc    $0xffffffbb,%esi
  40177d:	83 eb 5b             	sub    $0x5b,%ebx
  401780:	d1 c3                	rol    %ebx
  401782:	83 f9 f7             	cmp    $0xfffffff7,%ecx
  401785:	0f cb                	bswap  %ebx
  401787:	4b                   	dec    %ebx
  401788:	f7 d5                	not    %ebp
  40178a:	f7 db                	neg    %ebx
  40178c:	d3 fd                	sar    %cl,%ebp
  40178e:	81 f3 4e cd 0a 50    	xor    $0x500acd4e,%ebx
  401794:	f7 d3                	not    %ebx
  401796:	83 f3 9c             	xor    $0xffffff9c,%ebx
  401799:	fc                   	cld    
  40179a:	f7 db                	neg    %ebx
  40179c:	43                   	inc    %ebx
  40179d:	48                   	dec    %eax
  40179e:	c1 c3 fb             	rol    $0xfb,%ebx
  4017a1:	81 fa be 57 57 4d    	cmp    $0x4d5757be,%edx
  4017a7:	d1 c3                	rol    %ebx
  4017a9:	81 c3 59 80 b3 91    	add    $0x91b38059,%ebx
  4017af:	c1 ee 07             	shr    $0x7,%esi
  4017b2:	83 f3 15             	xor    $0x15,%ebx
  4017b5:	0f ba e7 88          	bt     $0x88,%edi
  4017b9:	f7 d3                	not    %ebx
  4017bb:	81 c3 0f f5 c1 9f    	add    $0x9fc1f50f,%ebx
  4017c1:	83 f3 0a             	xor    $0xa,%ebx
  4017c4:	d3 ca                	ror    %cl,%edx
  4017c6:	83 c3 c4             	add    $0xffffffc4,%ebx
  4017c9:	f7 db                	neg    %ebx
  4017cb:	f8                   	clc    
  4017cc:	f7 d3                	not    %ebx
  4017ce:	83 f3 5c             	xor    $0x5c,%ebx
  4017d1:	f7 dd                	neg    %ebp
  4017d3:	83 eb 7f             	sub    $0x7f,%ebx
  4017d6:	f7 d0                	not    %eax
  4017d8:	f7 d3                	not    %ebx
  4017da:	c1 cb 04             	ror    $0x4,%ebx
  4017dd:	c1 d0 1e             	rcl    $0x1e,%eax
  4017e0:	83 eb 85             	sub    $0xffffff85,%ebx
  4017e3:	81 c1 f2 2e 58 37    	add    $0x37582ef2,%ecx
  4017e9:	83 f3 f1             	xor    $0xfffffff1,%ebx
  4017ec:	f7 dd                	neg    %ebp
  4017ee:	f7 db                	neg    %ebx
  4017f0:	81 eb 24 04 2c 33    	sub    $0x332c0424,%ebx
  4017f6:	f7 da                	neg    %edx
  4017f8:	f7 db                	neg    %ebx
  4017fa:	f7 d3                	not    %ebx
  4017fc:	0f ba f9 44          	btc    $0x44,%ecx
  401800:	c1 cb a5             	ror    $0xa5,%ebx
  401803:	f7 db                	neg    %ebx
  401805:	d3 c9                	ror    %cl,%ecx
  401807:	0f cb                	bswap  %ebx
  401809:	d1 cb                	ror    %ebx
  40180b:	81 f3 01 47 ff 16    	xor    $0x16ff4701,%ebx
  401811:	d3 da                	rcr    %cl,%edx
  401813:	83 f3 c9             	xor    $0xffffffc9,%ebx
  401816:	4b                   	dec    %ebx
  401817:	4d                   	dec    %ebp
  401818:	0f cb                	bswap  %ebx
  40181a:	d3 d7                	rcl    %cl,%edi
  40181c:	43                   	inc    %ebx
  40181d:	81 f2 e4 fd 64 50    	xor    $0x5064fde4,%edx
  401823:	d1 cb                	ror    %ebx
  401825:	83 c3 da             	add    $0xffffffda,%ebx
  401828:	83 f7 85             	xor    $0xffffff85,%edi
  40182b:	f7 db                	neg    %ebx
  40182d:	d1 c3                	rol    %ebx
  40182f:	53                   	push   %ebx
  401830:	5d                   	pop    %ebp
  401831:	83 f5 e3             	xor    $0xffffffe3,%ebp
  401834:	81 ed 18 b9 7f 65    	sub    $0x657fb918,%ebp
  40183a:	d3 ea                	shr    %cl,%edx
  40183c:	81 f5 3f 2c 91 12    	xor    $0x12912c3f,%ebp
  401842:	83 f6 c2             	xor    $0xffffffc2,%esi
  401845:	0f cd                	bswap  %ebp
  401847:	d1 cd                	ror    %ebp
  401849:	45                   	inc    %ebp
  40184a:	0f ba e6 5c          	bt     $0x5c,%esi
  40184e:	83 ed c2             	sub    $0xffffffc2,%ebp
  401851:	4d                   	dec    %ebp
  401852:	47                   	inc    %edi
  401853:	0f cd                	bswap  %ebp
  401855:	fd                   	std    
  401856:	83 f5 67             	xor    $0x67,%ebp
  401859:	81 ed 59 32 c8 83    	sub    $0x83c83259,%ebp
  40185f:	03 d4                	add    %esp,%edx
  401861:	83 f5 27             	xor    $0x27,%ebp
  401864:	d3 e1                	shl    %cl,%ecx
  401866:	f7 d5                	not    %ebp
  401868:	b8 99 14 3f 7e       	mov    $0x7e3f1499,%eax
  40186d:	c1 c5 8e             	rol    $0x8e,%ebp
  401870:	0f cd                	bswap  %ebp
  401872:	81 c5 7e 58 32 ca    	add    $0xca32587e,%ebp
  401878:	83 f5 b2             	xor    $0xffffffb2,%ebp
  40187b:	0f ba f7 8a          	btr    $0x8a,%edi
  40187f:	4d                   	dec    %ebp
  401880:	81 c5 55 29 da c1    	add    $0xc1da2955,%ebp
  401886:	81 f6 f8 8c ef 07    	xor    $0x7ef8cf8,%esi
  40188c:	83 f5 67             	xor    $0x67,%ebp
  40188f:	2d 0e 65 a2 8e       	sub    $0x8ea2650e,%eax
  401894:	81 f5 22 d0 42 56    	xor    $0x5642d022,%ebp
  40189a:	13 db                	adc    %ebx,%ebx
  40189c:	f7 d5                	not    %ebp
  40189e:	83 ed aa             	sub    $0xffffffaa,%ebp
  4018a1:	f7 d1                	not    %ecx
  4018a3:	0f cd                	bswap  %ebp
  4018a5:	f7 dd                	neg    %ebp
  4018a7:	0f cd                	bswap  %ebp
  4018a9:	55                   	push   %ebp
  4018aa:	5f                   	pop    %edi
  4018ab:	c1 cf 38             	ror    $0x38,%edi
  4018ae:	47                   	inc    %edi
  4018af:	f7 d6                	not    %esi
  4018b1:	f7 d7                	not    %edi
  4018b3:	57                   	push   %edi
  4018b4:	5a                   	pop    %edx
  4018b5:	46                   	inc    %esi
  4018b6:	4a                   	dec    %edx
  4018b7:	81 c2 61 62 8d 57    	add    $0x578d6261,%edx
  4018bd:	81 cd ef 18 f0 37    	or     $0x37f018ef,%ebp
  4018c3:	83 f2 ee             	xor    $0xffffffee,%edx
  4018c6:	0b de                	or     %esi,%ebx
  4018c8:	f7 d2                	not    %edx
  4018ca:	8b fa                	mov    %edx,%edi
  4018cc:	2b c6                	sub    %esi,%eax
  4018ce:	83 f7 91             	xor    $0xffffff91,%edi
  4018d1:	81 c5 7b fc ce ee    	add    $0xeecefc7b,%ebp
  4018d7:	81 c7 7b b9 1e aa    	add    $0xaa1eb97b,%edi
  4018dd:	d1 c7                	rol    %edi
  4018df:	3f                   	aas    
  4018e0:	47                   	inc    %edi
  4018e1:	c1 fd 00             	sar    $0x0,%ebp
  4018e4:	c1 c7 92             	rol    $0x92,%edi
  4018e7:	83 c7 5d             	add    $0x5d,%edi
  4018ea:	83 f7 4a             	xor    $0x4a,%edi
  4018ed:	f7 df                	neg    %edi
  4018ef:	57                   	push   %edi
  4018f0:	58                   	pop    %eax
  4018f1:	f7 d0                	not    %eax
  4018f3:	f7 d8                	neg    %eax
  4018f5:	c1 c0 09             	rol    $0x9,%eax
  4018f8:	d3 e7                	shl    %cl,%edi
  4018fa:	40                   	inc    %eax
  4018fb:	35 d5 8a c3 c1       	xor    $0xc1c38ad5,%eax
  401900:	f7 d0                	not    %eax
  401902:	c1 c8 25             	ror    $0x25,%eax
  401905:	35 35 6f 6f 6d       	xor    $0x6d6f6f35,%eax
  40190a:	83 e8 61             	sub    $0x61,%eax
  40190d:	ba a0 61 18 80       	mov    $0x801861a0,%edx
  401912:	f7 d8                	neg    %eax
  401914:	d3 e5                	shl    %cl,%ebp
  401916:	83 c0 f3             	add    $0xfffffff3,%eax
  401919:	81 ce 2c f1 70 91    	or     $0x9170f12c,%esi
  40191f:	83 f0 10             	xor    $0x10,%eax
  401922:	05 50 eb 02 b1       	add    $0xb102eb50,%eax
  401927:	0f c8                	bswap  %eax
  401929:	83 f3 36             	xor    $0x36,%ebx
  40192c:	35 5b 72 10 5e       	xor    $0x5e10725b,%eax
  401931:	97                   	xchg   %eax,%edi
  401932:	b8 65 23 4a cf       	mov    $0xcf4a2365,%eax
  401937:	c1 cf d8             	ror    $0xd8,%edi
  40193a:	4f                   	dec    %edi
  40193b:	f7 da                	neg    %edx
  40193d:	d1 cf                	ror    %edi
  40193f:	f7 d9                	neg    %ecx
  401941:	81 f7 a5 fc 07 71    	xor    $0x7107fca5,%edi
  401947:	83 f7 4f             	xor    $0x4f,%edi
  40194a:	83 ea 7b             	sub    $0x7b,%edx
  40194d:	0f cf                	bswap  %edi
  40194f:	43                   	inc    %ebx
  401950:	c1 cf ef             	ror    $0xef,%edi
  401953:	c1 c9 1b             	ror    $0x1b,%ecx
  401956:	0f cf                	bswap  %edi
  401958:	b8 db e7 6c 0e       	mov    $0xe6ce7db,%eax
  40195d:	81 c7 8e 20 e4 11    	add    $0x11e4208e,%edi
  401963:	45                   	inc    %ebp
  401964:	f7 d7                	not    %edi
  401966:	4f                   	dec    %edi
  401967:	83 c7 5e             	add    $0x5e,%edi
  40196a:	0f ba ee c6          	bts    $0xc6,%esi
  40196e:	f7 d7                	not    %edi
  401970:	15 45 37 a4 76       	adc    $0x76a43745,%eax
  401975:	83 ef ad             	sub    $0xffffffad,%edi
  401978:	48                   	dec    %eax
  401979:	83 f7 7a             	xor    $0x7a,%edi
  40197c:	81 c7 28 da db 05    	add    $0x5dbda28,%edi
  401982:	d1 cf                	ror    %edi
  401984:	4f                   	dec    %edi
  401985:	40                   	inc    %eax
  401986:	f7 d7                	not    %edi
  401988:	bb dc b7 ff 85       	mov    $0x85ffb7dc,%ebx
  40198d:	0f cf                	bswap  %edi
  40198f:	81 c7 eb 47 02 10    	add    $0x100247eb,%edi
  401995:	81 f7 6a 4e 3b b9    	xor    $0xb93b4e6a,%edi
  40199b:	f7 df                	neg    %edi
  40199d:	d3 e1                	shl    %cl,%ecx
  40199f:	c1 cf e2             	ror    $0xe2,%edi
  4019a2:	81 f7 d1 41 46 23    	xor    $0x234641d1,%edi
  4019a8:	83 ef 20             	sub    $0x20,%edi
  4019ab:	83 f2 5c             	xor    $0x5c,%edx
  4019ae:	81 f7 70 01 79 62    	xor    $0x62790170,%edi
  4019b4:	83 c7 24             	add    $0x24,%edi
  4019b7:	f7 df                	neg    %edi
  4019b9:	81 c7 2f 03 64 d7    	add    $0xd764032f,%edi
  4019bf:	83 c3 ea             	add    $0xffffffea,%ebx
  4019c2:	c1 c7 83             	rol    $0x83,%edi
  4019c5:	83 c7 cf             	add    $0xffffffcf,%edi
  4019c8:	81 ef 26 50 b1 e8    	sub    $0xe8b15026,%edi
  4019ce:	ba 01 21 92 14       	mov    $0x14922101,%edx
  4019d3:	f7 d7                	not    %edi
  4019d5:	2f                   	das    
  4019d6:	d1 c7                	rol    %edi
  4019d8:	81 f7 90 51 b7 9e    	xor    $0x9eb75190,%edi
  4019de:	83 ef 5d             	sub    $0x5d,%edi
  4019e1:	81 ef 2e a3 5f 7a    	sub    $0x7a5fa32e,%edi
  4019e7:	83 f7 6a             	xor    $0x6a,%edi
  4019ea:	4f                   	dec    %edi
  4019eb:	d1 cf                	ror    %edi
  4019ed:	81 c7 e5 90 95 9b    	add    $0x9b9590e5,%edi
  4019f3:	d3 ee                	shr    %cl,%esi
  4019f5:	81 f7 51 45 c2 c5    	xor    $0xc5c24551,%edi
  4019fb:	b8 09 21 99 84       	mov    $0x84992109,%eax
  401a00:	d1 cf                	ror    %edi
  401a02:	57                   	push   %edi
  401a03:	5b                   	pop    %ebx
  401a04:	81 f3 97 e7 7d 47    	xor    $0x477de797,%ebx
  401a0a:	87 d9                	xchg   %ebx,%ecx
  401a0c:	f7 da                	neg    %edx
  401a0e:	83 f1 78             	xor    $0x78,%ecx
  401a11:	bd cf e3 61 57       	mov    $0x5761e3cf,%ebp
  401a16:	0f c9                	bswap  %ecx
  401a18:	0f ba f3 79          	btr    $0x79,%ebx
  401a1c:	81 c1 66 8c 7f d0    	add    $0xd07f8c66,%ecx
  401a22:	0f ba f7 c8          	btr    $0xc8,%edi
  401a26:	49                   	dec    %ecx
  401a27:	d1 c9                	ror    %ecx
  401a29:	f7 d1                	not    %ecx
  401a2b:	8b fa                	mov    %edx,%edi
  401a2d:	81 c1 f3 2a 3a 78    	add    $0x783a2af3,%ecx
  401a33:	81 f1 ab 97 e1 01    	xor    $0x1e197ab,%ecx
  401a39:	0f c9                	bswap  %ecx
  401a3b:	42                   	inc    %edx
  401a3c:	83 e9 8b             	sub    $0xffffff8b,%ecx
  401a3f:	0b df                	or     %edi,%ebx
  401a41:	c1 c9 80             	ror    $0x80,%ecx
  401a44:	d3 ef                	shr    %cl,%edi
  401a46:	81 e9 f3 96 52 8d    	sub    $0x8d5296f3,%ecx
  401a4c:	c1 c1 95             	rol    $0x95,%ecx
  401a4f:	83 f1 38             	xor    $0x38,%ecx
  401a52:	d1 c1                	rol    %ecx
  401a54:	23 e9                	and    %ecx,%ebp
  401a56:	0b e9                	or     %ecx,%ebp
  401a58:	81 f6 3b 0c 08 e4    	xor    $0xe4080c3b,%esi
  401a5e:	f7 d5                	not    %ebp
  401a60:	83 c5 17             	add    $0x17,%ebp
  401a63:	c1 e3 09             	shl    $0x9,%ebx
  401a66:	c1 c5 33             	rol    $0x33,%ebp
  401a69:	0f ba ef ee          	bts    $0xee,%edi
  401a6d:	81 c5 fe 3f 21 cc    	add    $0xcc213ffe,%ebp
  401a73:	83 f5 8d             	xor    $0xffffff8d,%ebp
  401a76:	b9 4e 1d 58 98       	mov    $0x98581d4e,%ecx
  401a7b:	83 c5 8b             	add    $0xffffff8b,%ebp
  401a7e:	03 f1                	add    %ecx,%esi
  401a80:	0f cd                	bswap  %ebp
  401a82:	25 63 14 b4 eb       	and    $0xebb41463,%eax
  401a87:	83 f5 d6             	xor    $0xffffffd6,%ebp
  401a8a:	c1 e7 18             	shl    $0x18,%edi
  401a8d:	f7 d5                	not    %ebp
  401a8f:	f7 db                	neg    %ebx
  401a91:	f7 dd                	neg    %ebp
  401a93:	13 db                	adc    %ebx,%ebx
  401a95:	0f cd                	bswap  %ebp
  401a97:	45                   	inc    %ebp
  401a98:	83 ed a9             	sub    $0xffffffa9,%ebp
  401a9b:	f7 d5                	not    %ebp
  401a9d:	c1 cd cc             	ror    $0xcc,%ebp
  401aa0:	81 ed dc fd d5 fd    	sub    $0xfdd5fddc,%ebp
  401aa6:	81 f5 07 d4 9e d7    	xor    $0xd79ed407,%ebp
  401aac:	d3 ee                	shr    %cl,%esi
  401aae:	0f cd                	bswap  %ebp
  401ab0:	d3 f8                	sar    %cl,%eax
  401ab2:	4d                   	dec    %ebp
  401ab3:	c1 cd 97             	ror    $0x97,%ebp
  401ab6:	f7 dd                	neg    %ebp
  401ab8:	f7 d0                	not    %eax
  401aba:	d1 cd                	ror    %ebp
  401abc:	c1 c5 35             	rol    $0x35,%ebp
  401abf:	81 ed 40 1d db 12    	sub    $0x12db1d40,%ebp
  401ac5:	0f cd                	bswap  %ebp
  401ac7:	d3 db                	rcr    %cl,%ebx
  401ac9:	81 ed db 79 ba b4    	sub    $0xb4ba79db,%ebp
  401acf:	f7 d5                	not    %ebp
  401ad1:	ba 00 1f 1a 12       	mov    $0x121a1f00,%edx
  401ad6:	45                   	inc    %ebp
  401ad7:	81 ed e8 53 33 e2    	sub    $0xe23353e8,%ebp
  401add:	b9 f4 c2 2b ce       	mov    $0xce2bc2f4,%ecx
  401ae2:	83 f5 f7             	xor    $0xfffffff7,%ebp
  401ae5:	f7 dd                	neg    %ebp
  401ae7:	81 f5 66 34 0c 0c    	xor    $0xc0c3466,%ebp
  401aed:	f7 d5                	not    %ebp
  401aef:	c1 ee 17             	shr    $0x17,%esi
  401af2:	d1 cd                	ror    %ebp
  401af4:	fd                   	std    
  401af5:	45                   	inc    %ebp
  401af6:	f7 d5                	not    %ebp
  401af8:	d3 ca                	ror    %cl,%edx
  401afa:	c1 c5 2b             	rol    $0x2b,%ebp
  401afd:	81 e1 10 32 d8 b1    	and    $0xb1d83210,%ecx
  401b03:	f7 dd                	neg    %ebp
  401b05:	83 c5 71             	add    $0x71,%ebp
  401b08:	81 f5 5a bc ea 11    	xor    $0x11eabc5a,%ebp
  401b0e:	c1 c5 61             	rol    $0x61,%ebp
  401b11:	0f cd                	bswap  %ebp
  401b13:	c1 cd f0             	ror    $0xf0,%ebp
  401b16:	d3 eb                	shr    %cl,%ebx
  401b18:	f7 dd                	neg    %ebp
  401b1a:	f9                   	stc    
  401b1b:	83 ed 62             	sub    $0x62,%ebp
  401b1e:	d3 e2                	shl    %cl,%edx
  401b20:	81 f5 92 af e7 9d    	xor    $0x9de7af92,%ebp
  401b26:	4d                   	dec    %ebp
  401b27:	81 fe 32 29 5d 5f    	cmp    $0x5f5d2932,%esi
  401b2d:	d1 cd                	ror    %ebp
  401b2f:	83 ed 05             	sub    $0x5,%ebp
  401b32:	f7 d5                	not    %ebp
  401b34:	83 ed 40             	sub    $0x40,%ebp
  401b37:	fc                   	cld    
  401b38:	f7 dd                	neg    %ebp
  401b3a:	81 de 20 b0 b0 bd    	sbb    $0xbdb0b020,%esi
  401b40:	0f cd                	bswap  %ebp
  401b42:	f7 dd                	neg    %ebp
  401b44:	55                   	push   %ebp
  401b45:	58                   	pop    %eax
  401b46:	83 cd 55             	or     $0x55,%ebp
  401b49:	05 e8 4e 22 fc       	add    $0xfc224ee8,%eax
  401b4e:	23 d0                	and    %eax,%edx
  401b50:	0b d0                	or     %eax,%edx
  401b52:	bd 58 1a 5a f6       	mov    $0xf65a1a58,%ebp
  401b57:	0f ca                	bswap  %edx
  401b59:	83 ea 2c             	sub    $0x2c,%edx
  401b5c:	81 ea d5 58 42 d6    	sub    $0xd64258d5,%edx
  401b62:	83 ce 2d             	or     $0x2d,%esi
  401b65:	83 ea 40             	sub    $0x40,%edx
  401b68:	c1 eb 05             	shr    $0x5,%ebx
  401b6b:	f7 da                	neg    %edx
  401b6d:	c1 c2 90             	rol    $0x90,%edx
  401b70:	4a                   	dec    %edx
  401b71:	d1 ca                	ror    %edx
  401b73:	4a                   	dec    %edx
  401b74:	0f ca                	bswap  %edx
  401b76:	4d                   	dec    %ebp
  401b77:	f7 da                	neg    %edx
  401b79:	81 c2 94 43 bb 4b    	add    $0x4bbb4394,%edx
  401b7f:	83 f2 d5             	xor    $0xffffffd5,%edx
  401b82:	c1 e3 02             	shl    $0x2,%ebx
  401b85:	c1 ca e3             	ror    $0xe3,%edx
  401b88:	83 c2 83             	add    $0xffffff83,%edx
  401b8b:	0f ba f0 fd          	btr    $0xfd,%eax
  401b8f:	42                   	inc    %edx
  401b90:	81 f2 39 d3 e6 e5    	xor    $0xe5e6d339,%edx
  401b96:	f7 da                	neg    %edx
  401b98:	83 c2 28             	add    $0x28,%edx
  401b9b:	42                   	inc    %edx
  401b9c:	43                   	inc    %ebx
  401b9d:	f7 d2                	not    %edx
  401b9f:	d1 ca                	ror    %edx
  401ba1:	81 d1 3b dc f3 f8    	adc    $0xf8f3dc3b,%ecx
  401ba7:	81 c2 17 51 91 db    	add    $0xdb915117,%edx
  401bad:	83 fe b3             	cmp    $0xffffffb3,%esi
  401bb0:	83 f2 e6             	xor    $0xffffffe6,%edx
  401bb3:	83 e7 82             	and    $0xffffff82,%edi
  401bb6:	81 f2 c4 30 c1 b6    	xor    $0xb6c130c4,%edx
  401bbc:	0f ba f9 12          	btc    $0x12,%ecx
  401bc0:	f7 d2                	not    %edx
  401bc2:	f9                   	stc    
  401bc3:	83 f2 5b             	xor    $0x5b,%edx
  401bc6:	c1 e5 09             	shl    $0x9,%ebp
  401bc9:	81 c2 33 77 2e df    	add    $0xdf2e7733,%edx
  401bcf:	f7 d9                	neg    %ecx
  401bd1:	0f ca                	bswap  %edx
  401bd3:	42                   	inc    %edx
  401bd4:	f7 da                	neg    %edx
  401bd6:	c1 d3 0a             	rcl    $0xa,%ebx
  401bd9:	d1 ca                	ror    %edx
  401bdb:	83 c3 b9             	add    $0xffffffb9,%ebx
  401bde:	c1 c2 a0             	rol    $0xa0,%edx
  401be1:	83 e6 3e             	and    $0x3e,%esi
  401be4:	42                   	inc    %edx
  401be5:	d3 c5                	rol    %cl,%ebp
  401be7:	83 f2 cc             	xor    $0xffffffcc,%edx
  401bea:	81 f2 b6 94 ba a5    	xor    $0xa5ba94b6,%edx
  401bf0:	c1 df 0b             	rcr    $0xb,%edi
  401bf3:	d1 ca                	ror    %edx
  401bf5:	83 e9 13             	sub    $0x13,%ecx
  401bf8:	f7 d2                	not    %edx
  401bfa:	83 ea cf             	sub    $0xffffffcf,%edx
  401bfd:	52                   	push   %edx
  401bfe:	5b                   	pop    %ebx
  401bff:	0f cb                	bswap  %ebx
  401c01:	4b                   	dec    %ebx
  401c02:	83 f3 35             	xor    $0x35,%ebx
  401c05:	d3 e8                	shr    %cl,%eax
  401c07:	4b                   	dec    %ebx
  401c08:	0f cb                	bswap  %ebx
  401c0a:	d3 ee                	shr    %cl,%esi
  401c0c:	c1 c3 4c             	rol    $0x4c,%ebx
  401c0f:	83 ef 0b             	sub    $0xb,%edi
  401c12:	43                   	inc    %ebx
  401c13:	fd                   	std    
  401c14:	f7 d3                	not    %ebx
  401c16:	d3 c2                	rol    %cl,%edx
  401c18:	4b                   	dec    %ebx
  401c19:	83 eb 8e             	sub    $0xffffff8e,%ebx
  401c1c:	f7 d3                	not    %ebx
  401c1e:	d3 ef                	shr    %cl,%edi
  401c20:	d1 cb                	ror    %ebx
  401c22:	d3 d8                	rcr    %cl,%eax
  401c24:	81 f3 28 72 84 bc    	xor    $0xbc847228,%ebx
  401c2a:	81 eb e4 a6 c1 7c    	sub    $0x7cc1a6e4,%ebx
  401c30:	fd                   	std    
  401c31:	f7 db                	neg    %ebx
  401c33:	fc                   	cld    
  401c34:	c1 c3 b5             	rol    $0xb5,%ebx
  401c37:	d1 c3                	rol    %ebx
  401c39:	c1 e5 1c             	shl    $0x1c,%ebp
  401c3c:	83 f3 78             	xor    $0x78,%ebx
  401c3f:	43                   	inc    %ebx
  401c40:	81 f3 89 fd 4a f5    	xor    $0xf54afd89,%ebx
  401c46:	0f cb                	bswap  %ebx
  401c48:	83 c3 2e             	add    $0x2e,%ebx
  401c4b:	ba 1b 64 05 4b       	mov    $0x4b05641b,%edx
  401c50:	81 c3 4d 43 6d 25    	add    $0x256d434d,%ebx
  401c56:	83 fe 88             	cmp    $0xffffff88,%esi
  401c59:	f7 d3                	not    %ebx
  401c5b:	46                   	inc    %esi
  401c5c:	f7 db                	neg    %ebx
  401c5e:	bd e7 bc ff d2       	mov    $0xd2ffbce7,%ebp
  401c63:	f7 d3                	not    %ebx
  401c65:	bf 49 75 70 ad       	mov    $0xad707549,%edi
  401c6a:	83 f3 11             	xor    $0x11,%ebx
  401c6d:	fc                   	cld    
  401c6e:	4b                   	dec    %ebx
  401c6f:	81 eb 5e ed 89 1c    	sub    $0x1c89ed5e,%ebx
  401c75:	4a                   	dec    %edx
  401c76:	83 f3 23             	xor    $0x23,%ebx
  401c79:	f7 d3                	not    %ebx
  401c7b:	f7 db                	neg    %ebx
  401c7d:	b8 ef 95 27 5f       	mov    $0x5f2795ef,%eax
  401c82:	81 f3 fb 08 26 d8    	xor    $0xd82608fb,%ebx
  401c88:	f7 db                	neg    %ebx
  401c8a:	d3 e1                	shl    %cl,%ecx
  401c8c:	81 f3 88 fe 5d fb    	xor    $0xfb5dfe88,%ebx
  401c92:	d1 cb                	ror    %ebx
  401c94:	83 ea 50             	sub    $0x50,%edx
  401c97:	c1 c3 dd             	rol    $0xdd,%ebx
  401c9a:	0f ba e5 fa          	bt     $0xfa,%ebp
  401c9e:	43                   	inc    %ebx
  401c9f:	c1 c3 61             	rol    $0x61,%ebx
  401ca2:	0f cb                	bswap  %ebx
  401ca4:	d3 c5                	rol    %cl,%ebp
  401ca6:	81 eb 64 1a 0b 33    	sub    $0x330b1a64,%ebx
  401cac:	f7 d3                	not    %ebx
  401cae:	c1 d7 09             	rcl    $0x9,%edi
  401cb1:	81 eb 2a b0 31 78    	sub    $0x7831b02a,%ebx
  401cb7:	fc                   	cld    
  401cb8:	f7 db                	neg    %ebx
  401cba:	1b fc                	sbb    %esp,%edi
  401cbc:	81 f3 da 99 41 85    	xor    $0x854199da,%ebx
  401cc2:	83 f3 bf             	xor    $0xffffffbf,%ebx
  401cc5:	c1 e7 1b             	shl    $0x1b,%edi
  401cc8:	81 c3 58 37 c3 de    	add    $0xdec33758,%ebx
  401cce:	43                   	inc    %ebx
  401ccf:	d1 cb                	ror    %ebx
  401cd1:	f7 db                	neg    %ebx
  401cd3:	0f cb                	bswap  %ebx
  401cd5:	f7 d3                	not    %ebx
  401cd7:	f7 df                	neg    %edi
  401cd9:	0f cb                	bswap  %ebx
  401cdb:	0f ba e5 6a          	bt     $0x6a,%ebp
  401cdf:	43                   	inc    %ebx
  401ce0:	83 c3 7c             	add    $0x7c,%ebx
  401ce3:	0f cb                	bswap  %ebx
  401ce5:	87 de                	xchg   %ebx,%esi
  401ce7:	d3 e0                	shl    %cl,%eax
  401ce9:	83 ee ba             	sub    $0xffffffba,%esi
  401cec:	c1 ce 59             	ror    $0x59,%esi
  401cef:	83 ee 3c             	sub    $0x3c,%esi
  401cf2:	0f ce                	bswap  %esi
  401cf4:	42                   	inc    %edx
  401cf5:	81 f6 c6 72 b0 f7    	xor    $0xf7b072c6,%esi
  401cfb:	4e                   	dec    %esi
  401cfc:	f7 d6                	not    %esi
  401cfe:	c1 fa 04             	sar    $0x4,%edx
  401d01:	83 f6 12             	xor    $0x12,%esi
  401d04:	ba bd 85 57 5a       	mov    $0x5a5785bd,%edx
  401d09:	0f ce                	bswap  %esi
  401d0b:	c1 ce e7             	ror    $0xe7,%esi
  401d0e:	fc                   	cld    
  401d0f:	81 c6 2c d8 96 0e    	add    $0xe96d82c,%esi
  401d15:	f7 dd                	neg    %ebp
  401d17:	81 f6 c4 3c 02 fc    	xor    $0xfc023cc4,%esi
  401d1d:	98                   	cwtl   
  401d1e:	0f ce                	bswap  %esi
  401d20:	c1 cd 06             	ror    $0x6,%ebp
  401d23:	c1 c6 85             	rol    $0x85,%esi
  401d26:	f7 d6                	not    %esi
  401d28:	c1 c6 c1             	rol    $0xc1,%esi
  401d2b:	0f ba e2 9d          	bt     $0x9d,%edx
  401d2f:	f7 d6                	not    %esi
  401d31:	d1 ce                	ror    %esi
  401d33:	83 c0 47             	add    $0x47,%eax
  401d36:	c1 c6 ed             	rol    $0xed,%esi
  401d39:	f7 d6                	not    %esi
  401d3b:	0f ce                	bswap  %esi
  401d3d:	56                   	push   %esi
  401d3e:	58                   	pop    %eax
  401d3f:	d1 c0                	rol    %eax
  401d41:	83 f0 0f             	xor    $0xf,%eax
  401d44:	0f c8                	bswap  %eax
  401d46:	81 cf 06 2c 54 d4    	or     $0xd4542c06,%edi
  401d4c:	35 7b 16 43 d7       	xor    $0xd743167b,%eax
  401d51:	48                   	dec    %eax
  401d52:	0f c8                	bswap  %eax
  401d54:	0b f3                	or     %ebx,%esi
  401d56:	83 f0 57             	xor    $0x57,%eax
  401d59:	0f c8                	bswap  %eax
  401d5b:	c1 e6 03             	shl    $0x3,%esi
  401d5e:	83 f0 b4             	xor    $0xffffffb4,%eax
  401d61:	50                   	push   %eax
  401d62:	5f                   	pop    %edi
  401d63:	f7 d2                	not    %edx
  401d65:	4f                   	dec    %edi
  401d66:	d1 cf                	ror    %edi
  401d68:	83 ea 89             	sub    $0xffffff89,%edx
  401d6b:	83 f7 8a             	xor    $0xffffff8a,%edi
  401d6e:	81 ef 5a 97 41 12    	sub    $0x1241975a,%edi
  401d74:	f7 df                	neg    %edi
  401d76:	f7 d6                	not    %esi
  401d78:	c1 c7 f2             	rol    $0xf2,%edi
  401d7b:	4f                   	dec    %edi
  401d7c:	f7 d7                	not    %edi
  401d7e:	81 c7 90 fe e4 b0    	add    $0xb0e4fe90,%edi
  401d84:	83 ef fb             	sub    $0xfffffffb,%edi
  401d87:	81 c7 b4 d7 3d 03    	add    $0x33dd7b4,%edi
  401d8d:	fd                   	std    
  401d8e:	c1 c7 67             	rol    $0x67,%edi
  401d91:	c1 ea 09             	shr    $0x9,%edx
  401d94:	81 f7 e4 47 9c bc    	xor    $0xbc9c47e4,%edi
  401d9a:	ba f6 83 cb 9b       	mov    $0x9bcb83f6,%edx
  401d9f:	83 f7 a3             	xor    $0xffffffa3,%edi
  401da2:	81 f7 f1 b0 4c 87    	xor    $0x874cb0f1,%edi
  401da8:	f7 df                	neg    %edi
  401daa:	f7 d7                	not    %edi
  401dac:	c1 d5 0b             	rcl    $0xb,%ebp
  401daf:	0f cf                	bswap  %edi
  401db1:	c1 c5 1e             	rol    $0x1e,%ebp
  401db4:	81 ef b9 aa 36 56    	sub    $0x5636aab9,%edi
  401dba:	83 db e5             	sbb    $0xffffffe5,%ebx
  401dbd:	f7 df                	neg    %edi
  401dbf:	f7 d7                	not    %edi
  401dc1:	f9                   	stc    
  401dc2:	4f                   	dec    %edi
  401dc3:	81 f7 6c 69 f7 22    	xor    $0x22f7696c,%edi
  401dc9:	f7 d1                	not    %ecx
  401dcb:	c1 cf 36             	ror    $0x36,%edi
  401dce:	0f cf                	bswap  %edi
  401dd0:	83 f7 a9             	xor    $0xffffffa9,%edi
  401dd3:	d1 c7                	rol    %edi
  401dd5:	83 c8 ca             	or     $0xffffffca,%eax
  401dd8:	0f cf                	bswap  %edi
  401dda:	83 f7 6d             	xor    $0x6d,%edi
  401ddd:	f7 df                	neg    %edi
  401ddf:	83 f7 6d             	xor    $0x6d,%edi
  401de2:	d1 c7                	rol    %edi
  401de4:	b9 9f ff a0 c4       	mov    $0xc4a0ff9f,%ecx
  401de9:	81 f7 e4 c5 4c 66    	xor    $0x664cc5e4,%edi
  401def:	23 d8                	and    %eax,%ebx
  401df1:	4f                   	dec    %edi
  401df2:	d3 e9                	shr    %cl,%ecx
  401df4:	f7 df                	neg    %edi
  401df6:	f7 d7                	not    %edi
  401df8:	c1 c7 f9             	rol    $0xf9,%edi
  401dfb:	83 fb af             	cmp    $0xffffffaf,%ebx
  401dfe:	81 f7 cc 6e 2c 53    	xor    $0x532c6ecc,%edi
  401e04:	03 d7                	add    %edi,%edx
  401e06:	0f cf                	bswap  %edi
  401e08:	d1 cf                	ror    %edi
  401e0a:	f7 d5                	not    %ebp
  401e0c:	81 c7 43 b1 f2 75    	add    $0x75f2b143,%edi
  401e12:	83 ef e5             	sub    $0xffffffe5,%edi
  401e15:	83 ce 15             	or     $0x15,%esi
  401e18:	f7 d7                	not    %edi
  401e1a:	81 ef d1 7c fc f2    	sub    $0xf2fc7cd1,%edi
  401e20:	83 f7 1b             	xor    $0x1b,%edi
  401e23:	be 61 c0 2d 47       	mov    $0x472dc061,%esi
  401e28:	0f cf                	bswap  %edi
  401e2a:	d3 e0                	shl    %cl,%eax
  401e2c:	c1 c7 e7             	rol    $0xe7,%edi
  401e2f:	d1 c7                	rol    %edi
  401e31:	d3 e0                	shl    %cl,%eax
  401e33:	0f cf                	bswap  %edi
  401e35:	f7 df                	neg    %edi
  401e37:	0f ba f9 b3          	btc    $0xb3,%ecx
  401e3b:	d1 cf                	ror    %edi
  401e3d:	f7 d7                	not    %edi
  401e3f:	81 f7 84 17 cd 2e    	xor    $0x2ecd1784,%edi
  401e45:	81 ef 3a fc db 63    	sub    $0x63dbfc3a,%edi
  401e4b:	83 e5 cf             	and    $0xffffffcf,%ebp
  401e4e:	4f                   	dec    %edi
  401e4f:	0f cf                	bswap  %edi
  401e51:	0b cd                	or     %ebp,%ecx
  401e53:	81 f7 73 e4 cb da    	xor    $0xdacbe473,%edi
  401e59:	f7 d7                	not    %edi
  401e5b:	f7 dd                	neg    %ebp
  401e5d:	c1 c7 c1             	rol    $0xc1,%edi
  401e60:	0f cf                	bswap  %edi
  401e62:	8b ef                	mov    %edi,%ebp
  401e64:	83 ef 05             	sub    $0x5,%edi
  401e67:	83 f5 85             	xor    $0xffffff85,%ebp
  401e6a:	83 c5 aa             	add    $0xffffffaa,%ebp
  401e6d:	1b da                	sbb    %edx,%ebx
  401e6f:	f7 d5                	not    %ebp
  401e71:	c1 ce 06             	ror    $0x6,%esi
  401e74:	4d                   	dec    %ebp
  401e75:	81 ea ba 52 1e 20    	sub    $0x201e52ba,%edx
  401e7b:	c1 cd ae             	ror    $0xae,%ebp
  401e7e:	83 f6 c0             	xor    $0xffffffc0,%esi
  401e81:	0f cd                	bswap  %ebp
  401e83:	55                   	push   %ebp
  401e84:	5a                   	pop    %edx
  401e85:	f7 d8                	neg    %eax
  401e87:	83 c2 ab             	add    $0xffffffab,%edx
  401e8a:	83 c3 6b             	add    $0x6b,%ebx
  401e8d:	81 c2 38 5e e8 0f    	add    $0xfe85e38,%edx
  401e93:	0f ca                	bswap  %edx
  401e95:	f7 da                	neg    %edx
  401e97:	81 f2 c5 f3 cb a5    	xor    $0xa5cbf3c5,%edx
  401e9d:	f7 d2                	not    %edx
  401e9f:	f7 d3                	not    %ebx
  401ea1:	83 f2 a7             	xor    $0xffffffa7,%edx
  401ea4:	03 e9                	add    %ecx,%ebp
  401ea6:	f7 da                	neg    %edx
  401ea8:	c1 ca 40             	ror    $0x40,%edx
  401eab:	81 c2 c7 28 e1 fb    	add    $0xfbe128c7,%edx
  401eb1:	52                   	push   %edx
  401eb2:	59                   	pop    %ecx
  401eb3:	41                   	inc    %ecx
  401eb4:	48                   	dec    %eax
  401eb5:	83 f1 9d             	xor    $0xffffff9d,%ecx
  401eb8:	f7 de                	neg    %esi
  401eba:	c1 c9 6f             	ror    $0x6f,%ecx
  401ebd:	81 f1 50 56 79 63    	xor    $0x63795650,%ecx
  401ec3:	83 e9 5e             	sub    $0x5e,%ecx
  401ec6:	c1 c1 8d             	rol    $0x8d,%ecx
  401ec9:	0f c9                	bswap  %ecx
  401ecb:	f7 d9                	neg    %ecx
  401ecd:	8b ff                	mov    %edi,%edi
  401ecf:	41                   	inc    %ecx
  401ed0:	f7 d9                	neg    %ecx
  401ed2:	83 f6 01             	xor    $0x1,%esi
  401ed5:	83 f1 62             	xor    $0x62,%ecx
  401ed8:	42                   	inc    %edx
  401ed9:	c1 c9 37             	ror    $0x37,%ecx
  401edc:	83 d8 d2             	sbb    $0xffffffd2,%eax
  401edf:	81 f1 3c 25 63 d2    	xor    $0xd263253c,%ecx
  401ee5:	b8 88 ff b0 a5       	mov    $0xa5b0ff88,%eax
  401eea:	c1 c9 19             	ror    $0x19,%ecx
  401eed:	83 f1 27             	xor    $0x27,%ecx
  401ef0:	4f                   	dec    %edi
  401ef1:	49                   	dec    %ecx
  401ef2:	d1 c9                	ror    %ecx
  401ef4:	f7 d9                	neg    %ecx
  401ef6:	d3 da                	rcr    %cl,%edx
  401ef8:	83 f1 52             	xor    $0x52,%ecx
  401efb:	f8                   	clc    
  401efc:	0f c9                	bswap  %ecx
  401efe:	c1 c9 13             	ror    $0x13,%ecx
  401f01:	d3 c6                	rol    %cl,%esi
  401f03:	d1 c1                	rol    %ecx
  401f05:	0f c9                	bswap  %ecx
  401f07:	fd                   	std    
  401f08:	d1 c9                	ror    %ecx
  401f0a:	0f ba f0 92          	btr    $0x92,%eax
  401f0e:	0f c9                	bswap  %ecx
  401f10:	c1 e8 0b             	shr    $0xb,%eax
  401f13:	81 f1 bd f3 25 69    	xor    $0x6925f3bd,%ecx
  401f19:	81 e9 07 69 90 1c    	sub    $0x1c906907,%ecx
  401f1f:	d3 ee                	shr    %cl,%esi
  401f21:	0f c9                	bswap  %ecx
  401f23:	d1 c1                	rol    %ecx
  401f25:	81 ca 45 3c ce b7    	or     $0xb7ce3c45,%edx
  401f2b:	83 c1 d1             	add    $0xffffffd1,%ecx
  401f2e:	f7 d0                	not    %eax
  401f30:	83 f1 62             	xor    $0x62,%ecx
  401f33:	2b df                	sub    %edi,%ebx
  401f35:	41                   	inc    %ecx
  401f36:	2b f6                	sub    %esi,%esi
  401f38:	81 c1 2d 84 03 02    	add    $0x203842d,%ecx
  401f3e:	fd                   	std    
  401f3f:	c1 c9 c1             	ror    $0xc1,%ecx
  401f42:	bf 5a 82 b6 3c       	mov    $0x3cb6825a,%edi
  401f47:	d1 c1                	rol    %ecx
  401f49:	8b f1                	mov    %ecx,%esi
  401f4b:	81 f6 a3 f2 20 f0    	xor    $0xf020f2a3,%esi
  401f51:	c1 ce 6d             	ror    $0x6d,%esi
  401f54:	81 eb e3 9c 65 f7    	sub    $0xf7659ce3,%ebx
  401f5a:	83 c6 26             	add    $0x26,%esi
  401f5d:	d3 df                	rcr    %cl,%edi
  401f5f:	4e                   	dec    %esi
  401f60:	81 f6 10 73 aa bd    	xor    $0xbdaa7310,%esi
  401f66:	4e                   	dec    %esi
  401f67:	81 eb 25 51 1d df    	sub    $0xdf1d5125,%ebx
  401f6d:	83 f6 34             	xor    $0x34,%esi
  401f70:	13 ed                	adc    %ebp,%ebp
  401f72:	46                   	inc    %esi
  401f73:	81 ee 49 e5 86 16    	sub    $0x1686e549,%esi
  401f79:	81 fa 20 a2 db f1    	cmp    $0xf1dba220,%edx
  401f7f:	d1 c6                	rol    %esi
  401f81:	c1 da 12             	rcr    $0x12,%edx
  401f84:	81 c6 d5 23 48 5f    	add    $0x5f4823d5,%esi
  401f8a:	0f ba fd 23          	btc    $0x23,%ebp
  401f8e:	0f ce                	bswap  %esi
  401f90:	d1 ce                	ror    %esi
  401f92:	f7 de                	neg    %esi
  401f94:	4a                   	dec    %edx
  401f95:	81 c6 6a fc 03 7f    	add    $0x7f03fc6a,%esi
  401f9b:	46                   	inc    %esi
  401f9c:	bb cd 28 46 05       	mov    $0x54628cd,%ebx
  401fa1:	c1 ce 1a             	ror    $0x1a,%esi
  401fa4:	81 c6 88 26 7a ce    	add    $0xce7a2688,%esi
  401faa:	83 f6 f1             	xor    $0xfffffff1,%esi
  401fad:	46                   	inc    %esi
  401fae:	fd                   	std    
  401faf:	c1 ce 28             	ror    $0x28,%esi
  401fb2:	83 e9 c1             	sub    $0xffffffc1,%ecx
  401fb5:	83 f6 8c             	xor    $0xffffff8c,%esi
  401fb8:	d3 d3                	rcl    %cl,%ebx
  401fba:	0f ce                	bswap  %esi
  401fbc:	0b ff                	or     %edi,%edi
  401fbe:	81 c6 c4 f7 8c 45    	add    $0x458cf7c4,%esi
  401fc4:	83 f6 89             	xor    $0xffffff89,%esi
  401fc7:	0f ba ef 62          	bts    $0x62,%edi
  401fcb:	0f ce                	bswap  %esi
  401fcd:	c1 c6 5d             	rol    $0x5d,%esi
  401fd0:	83 f6 9d             	xor    $0xffffff9d,%esi
  401fd3:	40                   	inc    %eax
  401fd4:	46                   	inc    %esi
  401fd5:	81 ee 01 45 82 86    	sub    $0x86824501,%esi
  401fdb:	bb de 19 55 36       	mov    $0x365519de,%ebx
  401fe0:	83 ee 00             	sub    $0x0,%esi
  401fe3:	81 c6 f5 c2 e5 15    	add    $0x15e5c2f5,%esi
  401fe9:	81 f6 f9 00 ab 17    	xor    $0x17ab00f9,%esi
  401fef:	d3 e5                	shl    %cl,%ebp
  401ff1:	f7 de                	neg    %esi
  401ff3:	40                   	inc    %eax
  401ff4:	83 f6 2d             	xor    $0x2d,%esi
  401ff7:	8b ee                	mov    %esi,%ebp
  401ff9:	b9 89 9f 49 65       	mov    $0x65499f89,%ecx
  401ffe:	f7 dd                	neg    %ebp
  402000:	c1 cd 1d             	ror    $0x1d,%ebp
  402003:	ba 65 71 58 98       	mov    $0x98587165,%edx
  402008:	81 ed 32 e8 dd 72    	sub    $0x72dde832,%ebp
  40200e:	f7 dd                	neg    %ebp
  402010:	c1 cd e3             	ror    $0xe3,%ebp
  402013:	c1 ce 18             	ror    $0x18,%esi
  402016:	0f cd                	bswap  %ebp
  402018:	83 ed 9c             	sub    $0xffffff9c,%ebp
  40201b:	d3 ca                	ror    %cl,%edx
  40201d:	c1 cd 62             	ror    $0x62,%ebp
  402020:	d1 c5                	rol    %ebp
  402022:	f7 d5                	not    %ebp
  402024:	83 c5 c9             	add    $0xffffffc9,%ebp
  402027:	c1 c5 b0             	rol    $0xb0,%ebp
  40202a:	4d                   	dec    %ebp
  40202b:	d1 c5                	rol    %ebp
  40202d:	55                   	push   %ebp
  40202e:	5e                   	pop    %esi
  40202f:	46                   	inc    %esi
  402030:	d1 ce                	ror    %esi
  402032:	f7 de                	neg    %esi
  402034:	c1 c5 1c             	rol    $0x1c,%ebp
  402037:	f7 d6                	not    %esi
  402039:	c1 e7 11             	shl    $0x11,%edi
  40203c:	c1 c6 0b             	rol    $0xb,%esi
  40203f:	83 f6 e6             	xor    $0xffffffe6,%esi
  402042:	83 ee 49             	sub    $0x49,%esi
  402045:	c1 da 14             	rcr    $0x14,%edx
  402048:	0f ce                	bswap  %esi
  40204a:	d1 ce                	ror    %esi
  40204c:	c1 ce 9f             	ror    $0x9f,%esi
  40204f:	81 ef 58 f4 59 0b    	sub    $0xb59f458,%edi
  402055:	4e                   	dec    %esi
  402056:	83 c6 e8             	add    $0xffffffe8,%esi
  402059:	46                   	inc    %esi
  40205a:	d3 d3                	rcl    %cl,%ebx
  40205c:	f7 d6                	not    %esi
  40205e:	d3 d3                	rcl    %cl,%ebx
  402060:	4e                   	dec    %esi
  402061:	81 ee 8c 30 48 f2    	sub    $0xf248308c,%esi
  402067:	c1 ce 84             	ror    $0x84,%esi
  40206a:	c1 d0 0e             	rcl    $0xe,%eax
  40206d:	f7 de                	neg    %esi
  40206f:	b9 6d f7 18 08       	mov    $0x818f76d,%ecx
  402074:	81 c6 38 aa c5 03    	add    $0x3c5aa38,%esi
  40207a:	0f ce                	bswap  %esi
  40207c:	d3 e2                	shl    %cl,%edx
  40207e:	f7 de                	neg    %esi
  402080:	25 94 5c 15 c1       	and    $0xc1155c94,%eax
  402085:	46                   	inc    %esi
  402086:	f7 de                	neg    %esi
  402088:	0f ce                	bswap  %esi
  40208a:	f7 de                	neg    %esi
  40208c:	d1 c6                	rol    %esi
  40208e:	d3 c7                	rol    %cl,%edi
  402090:	81 f6 10 91 35 41    	xor    $0x41359110,%esi
  402096:	83 cb 7a             	or     $0x7a,%ebx
  402099:	0f ce                	bswap  %esi
  40209b:	83 f6 a1             	xor    $0xffffffa1,%esi
  40209e:	83 c6 a5             	add    $0xffffffa5,%esi
  4020a1:	1b dc                	sbb    %esp,%ebx
  4020a3:	c1 c6 15             	rol    $0x15,%esi
  4020a6:	c1 da 1e             	rcr    $0x1e,%edx
  4020a9:	4e                   	dec    %esi
  4020aa:	0f ce                	bswap  %esi
  4020ac:	1b d9                	sbb    %ecx,%ebx
  4020ae:	4e                   	dec    %esi
  4020af:	81 e9 80 ac 52 93    	sub    $0x9352ac80,%ecx
  4020b5:	83 ee 96             	sub    $0xffffff96,%esi
  4020b8:	81 c6 64 38 94 55    	add    $0x55943864,%esi
  4020be:	0f ce                	bswap  %esi
  4020c0:	f7 d6                	not    %esi
  4020c2:	8b f9                	mov    %ecx,%edi
  4020c4:	0f ce                	bswap  %esi
  4020c6:	83 f6 97             	xor    $0xffffff97,%esi
  4020c9:	81 f6 03 2f 11 e4    	xor    $0xe4112f03,%esi
  4020cf:	0f ba e7 b5          	bt     $0xb5,%edi
  4020d3:	4e                   	dec    %esi
  4020d4:	81 d2 f1 78 16 a8    	adc    $0xa81678f1,%edx
  4020da:	d1 ce                	ror    %esi
  4020dc:	83 ea ed             	sub    $0xffffffed,%edx
  4020df:	81 f6 09 3d 24 02    	xor    $0x2243d09,%esi
  4020e5:	f8                   	clc    
  4020e6:	81 c6 74 65 44 a0    	add    $0xa0446574,%esi
  4020ec:	f8                   	clc    
  4020ed:	4e                   	dec    %esi
  4020ee:	f7 d3                	not    %ebx
  4020f0:	83 f6 03             	xor    $0x3,%esi
  4020f3:	f7 d6                	not    %esi
  4020f5:	c1 c6 ed             	rol    $0xed,%esi
  4020f8:	f7 d7                	not    %edi
  4020fa:	83 ee 5b             	sub    $0x5b,%esi
  4020fd:	46                   	inc    %esi
  4020fe:	f7 de                	neg    %esi
  402100:	83 db 12             	sbb    $0x12,%ebx
  402103:	c1 ce 85             	ror    $0x85,%esi
  402106:	bb 53 34 83 e3       	mov    $0xe3833453,%ebx
  40210b:	83 ee 8b             	sub    $0xffffff8b,%esi
  40210e:	83 f6 8f             	xor    $0xffffff8f,%esi
  402111:	c1 c1 04             	rol    $0x4,%ecx
  402114:	f7 de                	neg    %esi
  402116:	81 c6 f8 f5 65 ab    	add    $0xab65f5f8,%esi
  40211c:	c1 c6 7e             	rol    $0x7e,%esi
  40211f:	83 f6 c5             	xor    $0xffffffc5,%esi
  402122:	c1 c6 35             	rol    $0x35,%esi
  402125:	4e                   	dec    %esi
  402126:	81 ee fe 1e a5 27    	sub    $0x27a51efe,%esi
  40212c:	f7 d6                	not    %esi
  40212e:	d1 c6                	rol    %esi
  402130:	13 d6                	adc    %esi,%edx
  402132:	81 f6 c0 95 a3 19    	xor    $0x19a395c0,%esi
  402138:	d1 ce                	ror    %esi
  40213a:	c1 c2 0f             	rol    $0xf,%edx
  40213d:	f7 d6                	not    %esi
  40213f:	83 c6 75             	add    $0x75,%esi
  402142:	0f ce                	bswap  %esi
  402144:	c1 cd 05             	ror    $0x5,%ebp
  402147:	81 c6 5a 1e 5f 51    	add    $0x515f1e5a,%esi
  40214d:	c1 c6 86             	rol    $0x86,%esi
  402150:	4d                   	dec    %ebp
  402151:	f7 de                	neg    %esi
  402153:	0f ce                	bswap  %esi
  402155:	f7 dd                	neg    %ebp
  402157:	83 f6 b3             	xor    $0xffffffb3,%esi
  40215a:	42                   	inc    %edx
  40215b:	c1 ce c2             	ror    $0xc2,%esi
  40215e:	83 f6 bb             	xor    $0xffffffbb,%esi
  402161:	8b d6                	mov    %esi,%edx
  402163:	c1 e1 16             	shl    $0x16,%ecx
  402166:	d1 ca                	ror    %edx
  402168:	81 ea 5f 2e 19 44    	sub    $0x44192e5f,%edx
  40216e:	bf aa 4e c3 90       	mov    $0x90c34eaa,%edi
  402173:	c1 ca d7             	ror    $0xd7,%edx
  402176:	d1 c2                	rol    %edx
  402178:	fd                   	std    
  402179:	f7 da                	neg    %edx
  40217b:	0f ba f9 f3          	btc    $0xf3,%ecx
  40217f:	d1 ca                	ror    %edx
  402181:	b9 62 e0 83 d3       	mov    $0xd383e062,%ecx
  402186:	81 f2 58 74 19 cb    	xor    $0xcb197458,%edx
  40218c:	f7 d1                	not    %ecx
  40218e:	d1 c2                	rol    %edx
  402190:	d3 c5                	rol    %cl,%ebp
  402192:	4a                   	dec    %edx
  402193:	0f ca                	bswap  %edx
  402195:	c1 cb 02             	ror    $0x2,%ebx
  402198:	f7 da                	neg    %edx
  40219a:	c1 e5 00             	shl    $0x0,%ebp
  40219d:	c1 ca 59             	ror    $0x59,%edx
  4021a0:	bb 13 a8 b3 c9       	mov    $0xc9b3a813,%ebx
  4021a5:	42                   	inc    %edx
  4021a6:	52                   	push   %edx
  4021a7:	5e                   	pop    %esi
  4021a8:	fc                   	cld    
  4021a9:	d1 c6                	rol    %esi
  4021ab:	81 ea 5e 1d 1a 4c    	sub    $0x4c1a1d5e,%edx
  4021b1:	81 f6 27 aa 98 17    	xor    $0x1798aa27,%esi
  4021b7:	d1 c6                	rol    %esi
  4021b9:	4b                   	dec    %ebx
  4021ba:	83 c6 00             	add    $0x0,%esi
  4021bd:	8b ce                	mov    %esi,%ecx
  4021bf:	f7 d1                	not    %ecx
  4021c1:	0f c9                	bswap  %ecx
  4021c3:	0f ba fd 89          	btc    $0x89,%ebp
  4021c7:	f7 d9                	neg    %ecx
  4021c9:	83 f1 de             	xor    $0xffffffde,%ecx
  4021cc:	0f c9                	bswap  %ecx
  4021ce:	83 e9 b0             	sub    $0xffffffb0,%ecx
  4021d1:	3d 10 b0 d1 60       	cmp    $0x60d1b010,%eax
  4021d6:	d1 c1                	rol    %ecx
  4021d8:	83 d6 2f             	adc    $0x2f,%esi
  4021db:	33 ed                	xor    %ebp,%ebp
  4021dd:	83 c1 fd             	add    $0xfffffffd,%ecx
  4021e0:	49                   	dec    %ecx
  4021e1:	c1 cf 19             	ror    $0x19,%edi
  4021e4:	81 e9 0b 66 ee 5d    	sub    $0x5dee660b,%ecx
  4021ea:	0f ba e2 43          	bt     $0x43,%edx
  4021ee:	33 e4                	xor    %esp,%esp
  4021f0:	41                   	inc    %ecx
  4021f1:	15 43 44 5f d8       	adc    $0xd85f4443,%eax
  4021f6:	81 f1 8a e4 24 f6    	xor    $0xf624e48a,%ecx
  4021fc:	81 c1 88 54 7b 53    	add    $0x537b5488,%ecx
  402202:	f7 d0                	not    %eax
  402204:	81 f1 c8 bc ff a9    	xor    $0xa9ffbcc8,%ecx
  40220a:	0f ba ee 22          	bts    $0x22,%esi
  40220e:	81 c1 72 57 fa e6    	add    $0xe6fa5772,%ecx
  402214:	2b c1                	sub    %ecx,%eax
  402216:	f7 d9                	neg    %ecx
  402218:	c1 c1 26             	rol    $0x26,%ecx
  40221b:	f7 d9                	neg    %ecx
  40221d:	0f ba ef 14          	bts    $0x14,%edi
  402221:	83 f1 d6             	xor    $0xffffffd6,%ecx
  402224:	83 c2 af             	add    $0xffffffaf,%edx
  402227:	0f c9                	bswap  %ecx
  402229:	f7 d1                	not    %ecx
  40222b:	d1 c1                	rol    %ecx
  40222d:	c1 e6 11             	shl    $0x11,%esi
  402230:	c1 c1 89             	rol    $0x89,%ecx
  402233:	83 f1 af             	xor    $0xffffffaf,%ecx
  402236:	98                   	cwtl   
  402237:	f7 d9                	neg    %ecx
  402239:	f7 d1                	not    %ecx
  40223b:	c1 c1 58             	rol    $0x58,%ecx
  40223e:	83 f1 a6             	xor    $0xffffffa6,%ecx
  402241:	0f c9                	bswap  %ecx
  402243:	f7 d0                	not    %eax
  402245:	81 f1 f4 56 49 ef    	xor    $0xef4956f4,%ecx
  40224b:	1b f3                	sbb    %ebx,%esi
  40224d:	c1 c1 93             	rol    $0x93,%ecx
  402250:	23 c4                	and    %esp,%eax
  402252:	83 f1 19             	xor    $0x19,%ecx
  402255:	0f c9                	bswap  %ecx
  402257:	83 f1 d2             	xor    $0xffffffd2,%ecx
  40225a:	83 e9 72             	sub    $0x72,%ecx
  40225d:	f7 d2                	not    %edx
  40225f:	83 f1 d1             	xor    $0xffffffd1,%ecx
  402262:	81 ce 83 58 7b e6    	or     $0xe67b5883,%esi
  402268:	0f c9                	bswap  %ecx
  40226a:	81 e7 c4 aa 5c c5    	and    $0xc55caac4,%edi
  402270:	c1 c1 1b             	rol    $0x1b,%ecx
  402273:	f7 d1                	not    %ecx
  402275:	c1 c8 1b             	ror    $0x1b,%eax
  402278:	81 e9 24 d9 47 a9    	sub    $0xa947d924,%ecx
  40227e:	f9                   	stc    
  40227f:	0f c9                	bswap  %ecx
  402281:	81 e7 b3 56 76 e1    	and    $0xe17656b3,%edi
  402287:	81 f1 98 06 28 4c    	xor    $0x4c280698,%ecx
  40228d:	81 ef 36 16 a4 34    	sub    $0x34a41636,%edi
  402293:	83 e9 1a             	sub    $0x1a,%ecx
  402296:	33 e4                	xor    %esp,%esp
  402298:	d3 d7                	rcl    %cl,%edi
  40229a:	c1 c1 40             	rol    $0x40,%ecx
  40229d:	0f c9                	bswap  %ecx
  40229f:	0b f1                	or     %ecx,%esi
  4022a1:	03 25 80 43 41 00    	add    0x414380,%esp
  4022a7:	23 f1                	and    %ecx,%esi
  4022a9:	13 ff                	adc    %edi,%edi
  4022ab:	c1 cf 1e             	ror    $0x1e,%edi
  4022ae:	83 c6 97             	add    $0xffffff97,%esi
  4022b1:	f7 d6                	not    %esi
  4022b3:	f7 d7                	not    %edi
  4022b5:	f7 d6                	not    %esi
  4022b7:	41                   	inc    %ecx
  4022b8:	d1 ce                	ror    %esi
  4022ba:	83 e3 a0             	and    $0xffffffa0,%ebx
  4022bd:	f7 de                	neg    %esi
  4022bf:	83 f6 e2             	xor    $0xffffffe2,%esi
  4022c2:	8b c6                	mov    %esi,%eax
  4022c4:	61                   	popa   
  4022c5:	f7 d8                	neg    %eax
  4022c7:	35 40 2a e2 d0       	xor    $0xd0e22a40,%eax
  4022cc:	c1 c8 fb             	ror    $0xfb,%eax
  4022cf:	2d 0d 60 e2 54       	sub    $0x54e2600d,%eax
  4022d4:	c3                   	ret    
  4022d5:	cc                   	int3   
  4022d6:	cc                   	int3   
  4022d7:	cc                   	int3   
  4022d8:	cc                   	int3   
  4022d9:	cc                   	int3   
  4022da:	cc                   	int3   
  4022db:	cc                   	int3   
  4022dc:	cc                   	int3   
  4022dd:	cc                   	int3   
  4022de:	cc                   	int3   
  4022df:	cc                   	int3   
  4022e0:	53                   	push   %ebx
  4022e1:	56                   	push   %esi
  4022e2:	57                   	push   %edi
  4022e3:	c1 e8 1c             	shr    $0x1c,%eax
  4022e6:	c1 c0 0c             	rol    $0xc,%eax
  4022e9:	f7 d8                	neg    %eax
  4022eb:	c1 c0 4d             	rol    $0x4d,%eax
  4022ee:	05 b4 ac 4a c7       	add    $0xc74aacb4,%eax
  4022f3:	f7 d0                	not    %eax
  4022f5:	b8 3d cb 96 b7       	mov    $0xb796cb3d,%eax
  4022fa:	d1 c0                	rol    %eax
  4022fc:	83 e8 16             	sub    $0x16,%eax
  4022ff:	0f ba f0 1d          	btr    $0x1d,%eax
  402303:	05 3a d0 58 26       	add    $0x2658d03a,%eax
  402308:	c1 e0 17             	shl    $0x17,%eax
  40230b:	0f c8                	bswap  %eax
  40230d:	c1 c8 50             	ror    $0x50,%eax
  402310:	23 c4                	and    %esp,%eax
  402312:	35 3e c1 1d 8d       	xor    $0x8d1dc13e,%eax
  402317:	2d bc 03 6b dc       	sub    $0xdc6b03bc,%eax
  40231c:	d1 c8                	ror    %eax
  40231e:	2d 5d 06 0a fb       	sub    $0xfb0a065d,%eax
  402323:	23 c0                	and    %eax,%eax
  402325:	0f c8                	bswap  %eax
  402327:	c1 e8 09             	shr    $0x9,%eax
  40232a:	f7 d8                	neg    %eax
  40232c:	60                   	pusha  
  40232d:	89 25 80 43 41 00    	mov    %esp,0x414380
  402333:	b8 e2 ff ff ff       	mov    $0xffffffe2,%eax
  402338:	f7 d8                	neg    %eax
  40233a:	0f c8                	bswap  %eax
  40233c:	83 f0 8d             	xor    $0xffffff8d,%eax
  40233f:	0f c8                	bswap  %eax
  402341:	81 ec 00 10 00 00    	sub    $0x1000,%esp
  402347:	50                   	push   %eax
  402348:	5d                   	pop    %ebp
  402349:	83 f5 b8             	xor    $0xffffffb8,%ebp
  40234c:	81 ed f8 a4 b6 8e    	sub    $0x8eb6a4f8,%ebp
  402352:	83 f5 37             	xor    $0x37,%ebp
  402355:	c1 db 1d             	rcr    $0x1d,%ebx
  402358:	81 c5 b9 45 2b 38    	add    $0x382b45b9,%ebp
  40235e:	d3 da                	rcr    %cl,%edx
  402360:	83 ed 92             	sub    $0xffffff92,%ebp
  402363:	0b cc                	or     %esp,%ecx
  402365:	4d                   	dec    %ebp
  402366:	f8                   	clc    
  402367:	83 f5 07             	xor    $0x7,%ebp
  40236a:	f7 d3                	not    %ebx
  40236c:	d1 c5                	rol    %ebp
  40236e:	f7 d9                	neg    %ecx
  402370:	83 f5 28             	xor    $0x28,%ebp
  402373:	83 ed 39             	sub    $0x39,%ebp
  402376:	81 f5 8a 46 8d 55    	xor    $0x558d468a,%ebp
  40237c:	4d                   	dec    %ebp
  40237d:	f7 d5                	not    %ebp
  40237f:	be 43 19 1a fd       	mov    $0xfd1a1943,%esi
  402384:	d1 cd                	ror    %ebp
  402386:	83 c5 10             	add    $0x10,%ebp
  402389:	9f                   	lahf   
  40238a:	81 c5 d0 00 a2 f6    	add    $0xf6a200d0,%ebp
  402390:	0f cd                	bswap  %ebp
  402392:	81 f5 46 cb f5 bf    	xor    $0xbff5cb46,%ebp
  402398:	4d                   	dec    %ebp
  402399:	f7 dd                	neg    %ebp
  40239b:	1b f0                	sbb    %eax,%esi
  40239d:	f7 d5                	not    %ebp
  40239f:	83 c9 dd             	or     $0xffffffdd,%ecx
  4023a2:	0f cd                	bswap  %ebp
  4023a4:	f7 de                	neg    %esi
  4023a6:	83 ed a3             	sub    $0xffffffa3,%ebp
  4023a9:	f7 d5                	not    %ebp
  4023ab:	83 e3 48             	and    $0x48,%ebx
  4023ae:	83 c5 47             	add    $0x47,%ebp
  4023b1:	4d                   	dec    %ebp
  4023b2:	0f cd                	bswap  %ebp
  4023b4:	83 da 5b             	sbb    $0x5b,%edx
  4023b7:	81 ed ca 0b 7a 43    	sub    $0x437a0bca,%ebp
  4023bd:	d1 c5                	rol    %ebp
  4023bf:	f7 dd                	neg    %ebp
  4023c1:	c1 ea 1c             	shr    $0x1c,%edx
  4023c4:	c1 c5 0c             	rol    $0xc,%ebp
  4023c7:	f7 dd                	neg    %ebp
  4023c9:	c1 c5 4d             	rol    $0x4d,%ebp
  4023cc:	81 c5 b4 ac 4a c7    	add    $0xc74aacb4,%ebp
  4023d2:	fd                   	std    
  4023d3:	f7 d5                	not    %ebp
  4023d5:	bb 3d cb 96 b7       	mov    $0xb796cb3d,%ebx
  4023da:	d1 c5                	rol    %ebp
  4023dc:	83 ed 16             	sub    $0x16,%ebp
  4023df:	0f ba f7 1d          	btr    $0x1d,%edi
  4023e3:	81 c5 3a d0 58 26    	add    $0x2658d03a,%ebp
  4023e9:	c1 e1 17             	shl    $0x17,%ecx
  4023ec:	0f cd                	bswap  %ebp
  4023ee:	d3 fe                	sar    %cl,%esi
  4023f0:	c1 cd 50             	ror    $0x50,%ebp
  4023f3:	23 f4                	and    %esp,%esi
  4023f5:	81 f5 3e c1 1d 8d    	xor    $0x8d1dc13e,%ebp
  4023fb:	81 e9 bc 03 6b dc    	sub    $0xdc6b03bc,%ecx
  402401:	d1 cd                	ror    %ebp
  402403:	81 ed 5d 06 0a fb    	sub    $0xfb0a065d,%ebp
  402409:	23 c2                	and    %edx,%eax
  40240b:	0f cd                	bswap  %ebp
  40240d:	c1 eb 09             	shr    $0x9,%ebx
  402410:	f7 dd                	neg    %ebp
  402412:	f7 d1                	not    %ecx
  402414:	81 c5 e3 75 97 4b    	add    $0x4b9775e3,%ebp
  40241a:	49                   	dec    %ecx
  40241b:	83 f5 41             	xor    $0x41,%ebp
  40241e:	0f ba f1 d5          	btr    $0xd5,%ecx
  402422:	0f cd                	bswap  %ebp
  402424:	40                   	inc    %eax
  402425:	c1 cd 16             	ror    $0x16,%ebp
  402428:	f7 da                	neg    %edx
  40242a:	83 f5 04             	xor    $0x4,%ebp
  40242d:	45                   	inc    %ebp
  40242e:	83 f5 b9             	xor    $0xffffffb9,%ebp
  402431:	f7 d5                	not    %ebp
  402433:	8b cb                	mov    %ebx,%ecx
  402435:	c1 cd 76             	ror    $0x76,%ebp
  402438:	f7 d5                	not    %ebp
  40243a:	c1 eb 1b             	shr    $0x1b,%ebx
  40243d:	83 f5 c2             	xor    $0xffffffc2,%ebp
  402440:	81 c5 da 1f ea 03    	add    $0x3ea1fda,%ebp
  402446:	45                   	inc    %ebp
  402447:	83 f3 9d             	xor    $0xffffff9d,%ebx
  40244a:	81 f5 3e 7e 8a 35    	xor    $0x358a7e3e,%ebp
  402450:	0b f9                	or     %ecx,%edi
  402452:	81 c5 8c 69 9c 5a    	add    $0x5a9c698c,%ebp
  402458:	42                   	inc    %edx
  402459:	83 f5 a3             	xor    $0xffffffa3,%ebp
  40245c:	83 c9 8b             	or     $0xffffff8b,%ecx
  40245f:	c1 c5 76             	rol    $0x76,%ebp
  402462:	83 f5 b4             	xor    $0xffffffb4,%ebp
  402465:	bf c7 34 80 2e       	mov    $0x2e8034c7,%edi
  40246a:	f7 d5                	not    %ebp
  40246c:	47                   	inc    %edi
  40246d:	f7 dd                	neg    %ebp
  40246f:	f7 db                	neg    %ebx
  402471:	83 c5 e8             	add    $0xffffffe8,%ebp
  402474:	f8                   	clc    
  402475:	0f cd                	bswap  %ebp
  402477:	45                   	inc    %ebp
  402478:	d3 fe                	sar    %cl,%esi
  40247a:	81 f5 3e e7 0d 8b    	xor    $0x8b0de73e,%ebp
  402480:	b9 f1 a6 b7 e3       	mov    $0xe3b7a6f1,%ecx
  402485:	0f cd                	bswap  %ebp
  402487:	83 df c3             	sbb    $0xffffffc3,%edi
  40248a:	f7 d5                	not    %ebp
  40248c:	d1 c5                	rol    %ebp
  40248e:	43                   	inc    %ebx
  40248f:	f7 d5                	not    %ebp
  402491:	f9                   	stc    
  402492:	81 f5 f4 23 8c b4    	xor    $0xb48c23f4,%ebp
  402498:	0f ba e0 3b          	bt     $0x3b,%eax
  40249c:	d1 cd                	ror    %ebp
  40249e:	c1 cd 23             	ror    $0x23,%ebp
  4024a1:	83 f5 0a             	xor    $0xa,%ebp
  4024a4:	81 c5 46 45 d5 47    	add    $0x47d54546,%ebp
  4024aa:	81 f5 86 32 9e bf    	xor    $0xbf9e3286,%ebp
  4024b0:	f7 dd                	neg    %ebp
  4024b2:	c1 ff 04             	sar    $0x4,%edi
  4024b5:	83 c5 b2             	add    $0xffffffb2,%ebp
  4024b8:	f7 d5                	not    %ebp
  4024ba:	c1 cd f8             	ror    $0xf8,%ebp
  4024bd:	d1 c5                	rol    %ebp
  4024bf:	f8                   	clc    
  4024c0:	81 f5 3f 5c 5b ff    	xor    $0xff5b5c3f,%ebp
  4024c6:	0f ba ee 7b          	bts    $0x7b,%esi
  4024ca:	83 f5 76             	xor    $0x76,%ebp
  4024cd:	c1 c5 b7             	rol    $0xb7,%ebp
  4024d0:	0f cd                	bswap  %ebp
  4024d2:	f7 d1                	not    %ecx
  4024d4:	f7 d5                	not    %ebp
  4024d6:	83 f5 cf             	xor    $0xffffffcf,%ebp
  4024d9:	4e                   	dec    %esi
  4024da:	81 f5 ed e5 e6 9d    	xor    $0x9de6e5ed,%ebp
  4024e0:	d3 d0                	rcl    %cl,%eax
  4024e2:	f7 dd                	neg    %ebp
  4024e4:	25 3d dc d1 af       	and    $0xafd1dc3d,%eax
  4024e9:	4d                   	dec    %ebp
  4024ea:	83 df 24             	sbb    $0x24,%edi
  4024ed:	81 f5 21 d6 57 bb    	xor    $0xbb57d621,%ebp
  4024f3:	4d                   	dec    %ebp
  4024f4:	0f cd                	bswap  %ebp
  4024f6:	d1 cd                	ror    %ebp
  4024f8:	48                   	dec    %eax
  4024f9:	83 f5 bf             	xor    $0xffffffbf,%ebp
  4024fc:	81 c9 d0 12 17 8e    	or     $0x8e1712d0,%ecx
  402502:	81 f5 07 df 77 3b    	xor    $0x3b77df07,%ebp
  402508:	81 e3 18 d6 ed 9e    	and    $0x9eedd618,%ebx
  40250e:	c1 c5 00             	rol    $0x0,%ebp
  402511:	f7 d5                	not    %ebp
  402513:	81 ed ef ee e2 54    	sub    $0x54e2eeef,%ebp
  402519:	0f cd                	bswap  %ebp
  40251b:	81 ce 1a 9d b6 5a    	or     $0x5ab69d1a,%esi
  402521:	d1 cd                	ror    %ebp
  402523:	1b c7                	sbb    %edi,%eax
  402525:	81 f5 5c de 83 89    	xor    $0x8983de5c,%ebp
  40252b:	f7 d5                	not    %ebp
  40252d:	f7 dd                	neg    %ebp
  40252f:	0f ba e2 15          	bt     $0x15,%edx
  402533:	81 f5 cb 23 41 e0    	xor    $0xe04123cb,%ebp
  402539:	f7 d7                	not    %edi
  40253b:	83 ed f2             	sub    $0xfffffff2,%ebp
  40253e:	81 f5 b9 6f 0b 0f    	xor    $0xf0b6fb9,%ebp
  402544:	4d                   	dec    %ebp
  402545:	81 c5 bd 6f 50 54    	add    $0x54506fbd,%ebp
  40254b:	f7 dd                	neg    %ebp
  40254d:	0f cd                	bswap  %ebp
  40254f:	25 94 8f f5 f6       	and    $0xf6f58f94,%eax
  402554:	4d                   	dec    %ebp
  402555:	83 f5 08             	xor    $0x8,%ebp
  402558:	47                   	inc    %edi
  402559:	0f cd                	bswap  %ebp
  40255b:	d1 cd                	ror    %ebp
  40255d:	83 f5 5f             	xor    $0x5f,%ebp
  402560:	bb f1 5d 5d 26       	mov    $0x265d5df1,%ebx
  402565:	81 ed f4 02 38 4a    	sub    $0x4a3802f4,%ebp
  40256b:	81 f5 96 99 74 d8    	xor    $0xd8749996,%ebp
  402571:	55                   	push   %ebp
  402572:	5f                   	pop    %edi
  402573:	83 ef 6e             	sub    $0x6e,%edi
  402576:	4f                   	dec    %edi
  402577:	f7 d8                	neg    %eax
  402579:	f7 d7                	not    %edi
  40257b:	f7 db                	neg    %ebx
  40257d:	83 f7 5f             	xor    $0x5f,%edi
  402580:	81 ef e1 56 77 2e    	sub    $0x2e7756e1,%edi
  402586:	83 c7 fb             	add    $0xfffffffb,%edi
  402589:	81 ef ad aa d2 e1    	sub    $0xe1d2aaad,%edi
  40258f:	f7 d7                	not    %edi
  402591:	81 c7 19 26 0c ca    	add    $0xca0c2619,%edi
  402597:	d1 cf                	ror    %edi
  402599:	f7 d7                	not    %edi
  40259b:	0b df                	or     %edi,%ebx
  40259d:	23 df                	and    %edi,%ebx
  40259f:	43                   	inc    %ebx
  4025a0:	d3 e6                	shl    %cl,%esi
  4025a2:	f7 db                	neg    %ebx
  4025a4:	4b                   	dec    %ebx
  4025a5:	83 de 51             	sbb    $0x51,%esi
  4025a8:	83 f3 96             	xor    $0xffffff96,%ebx
  4025ab:	c1 c3 d0             	rol    $0xd0,%ebx
  4025ae:	0f ba f2 c9          	btr    $0xc9,%edx
  4025b2:	81 f3 cb 5d 99 5e    	xor    $0x5e995dcb,%ebx
  4025b8:	f7 df                	neg    %edi
  4025ba:	83 eb 30             	sub    $0x30,%ebx
  4025bd:	1b c4                	sbb    %esp,%eax
  4025bf:	4b                   	dec    %ebx
  4025c0:	13 d4                	adc    %esp,%edx
  4025c2:	f7 d3                	not    %ebx
  4025c4:	81 f3 ee 3c 36 db    	xor    $0xdb363cee,%ebx
  4025ca:	0f cb                	bswap  %ebx
  4025cc:	d3 de                	rcr    %cl,%esi
  4025ce:	81 f3 ed 26 b9 53    	xor    $0x53b926ed,%ebx
  4025d4:	2b f6                	sub    %esi,%esi
  4025d6:	c1 cb e5             	ror    $0xe5,%ebx
  4025d9:	f8                   	clc    
  4025da:	d1 c3                	rol    %ebx
  4025dc:	f7 d3                	not    %ebx
  4025de:	43                   	inc    %ebx
  4025df:	13 ff                	adc    %edi,%edi
  4025e1:	83 f3 18             	xor    $0x18,%ebx
  4025e4:	f7 d3                	not    %ebx
  4025e6:	83 ef 28             	sub    $0x28,%edi
  4025e9:	f7 db                	neg    %ebx
  4025eb:	83 f3 27             	xor    $0x27,%ebx
  4025ee:	bf 08 84 83 50       	mov    $0x50838408,%edi
  4025f3:	4b                   	dec    %ebx
  4025f4:	81 f3 e5 3c 87 cf    	xor    $0xcf873ce5,%ebx
  4025fa:	f9                   	stc    
  4025fb:	83 f3 75             	xor    $0x75,%ebx
  4025fe:	2f                   	das    
  4025ff:	c1 c3 b5             	rol    $0xb5,%ebx
  402602:	81 c3 9c d3 94 ed    	add    $0xed94d39c,%ebx
  402608:	83 f3 3c             	xor    $0x3c,%ebx
  40260b:	83 c3 21             	add    $0x21,%ebx
  40260e:	f7 d6                	not    %esi
  402610:	83 f3 09             	xor    $0x9,%ebx
  402613:	3f                   	aas    
  402614:	81 f3 da 9d 96 ec    	xor    $0xec969dda,%ebx
  40261a:	81 eb 26 34 87 64    	sub    $0x64873426,%ebx
  402620:	d1 c3                	rol    %ebx
  402622:	c1 cb b5             	ror    $0xb5,%ebx
  402625:	0f ba f8 93          	btc    $0x93,%eax
  402629:	81 f3 60 40 17 94    	xor    $0x94174060,%ebx
  40262f:	83 e0 a4             	and    $0xffffffa4,%eax
  402632:	83 c3 65             	add    $0x65,%ebx
  402635:	0f cb                	bswap  %ebx
  402637:	d1 c3                	rol    %ebx
  402639:	83 ea bc             	sub    $0xffffffbc,%edx
  40263c:	81 eb d5 b7 da c5    	sub    $0xc5dab7d5,%ebx
  402642:	83 f3 c7             	xor    $0xffffffc7,%ebx
  402645:	b8 09 79 4d 46       	mov    $0x464d7909,%eax
  40264a:	f7 d3                	not    %ebx
  40264c:	c1 cb 31             	ror    $0x31,%ebx
  40264f:	d1 cb                	ror    %ebx
  402651:	0f cb                	bswap  %ebx
  402653:	4e                   	dec    %esi
  402654:	c1 cb 37             	ror    $0x37,%ebx
  402657:	83 f3 96             	xor    $0xffffff96,%ebx
  40265a:	4b                   	dec    %ebx
  40265b:	d1 cb                	ror    %ebx
  40265d:	be 39 c5 b9 89       	mov    $0x89b9c539,%esi
  402662:	43                   	inc    %ebx
  402663:	d1 cb                	ror    %ebx
  402665:	f7 d3                	not    %ebx
  402667:	d1 cb                	ror    %ebx
  402669:	43                   	inc    %ebx
  40266a:	83 f3 e5             	xor    $0xffffffe5,%ebx
  40266d:	81 c3 cc 40 47 87    	add    $0x874740cc,%ebx
  402673:	f8                   	clc    
  402674:	43                   	inc    %ebx
  402675:	c1 c3 7b             	rol    $0x7b,%ebx
  402678:	0f cb                	bswap  %ebx
  40267a:	83 c3 ab             	add    $0xffffffab,%ebx
  40267d:	0f cb                	bswap  %ebx
  40267f:	c1 c6 05             	rol    $0x5,%esi
  402682:	83 eb f5             	sub    $0xfffffff5,%ebx
  402685:	83 f3 31             	xor    $0x31,%ebx
  402688:	c1 cb 7f             	ror    $0x7f,%ebx
  40268b:	d3 df                	rcr    %cl,%edi
  40268d:	f7 db                	neg    %ebx
  40268f:	81 c3 e2 7e 43 2b    	add    $0x2b437ee2,%ebx
  402695:	f7 d5                	not    %ebp
  402697:	4b                   	dec    %ebx
  402698:	81 da fb f2 c6 5c    	sbb    $0x5cc6f2fb,%edx
  40269e:	81 f3 f0 8c eb 3c    	xor    $0x3ceb8cf0,%ebx
  4026a4:	c1 c3 3a             	rol    $0x3a,%ebx
  4026a7:	53                   	push   %ebx
  4026a8:	58                   	pop    %eax
  4026a9:	35 dd a8 83 11       	xor    $0x1183a8dd,%eax
  4026ae:	50                   	push   %eax
  4026af:	5b                   	pop    %ebx
  4026b0:	f7 d3                	not    %ebx
  4026b2:	48                   	dec    %eax
  4026b3:	c1 cb 10             	ror    $0x10,%ebx
  4026b6:	d3 e9                	shr    %cl,%ecx
  4026b8:	0f cb                	bswap  %ebx
  4026ba:	81 e7 8b 46 eb 33    	and    $0x33eb468b,%edi
  4026c0:	83 c3 7e             	add    $0x7e,%ebx
  4026c3:	83 f3 dc             	xor    $0xffffffdc,%ebx
  4026c6:	23 f2                	and    %edx,%esi
  4026c8:	c1 c3 bc             	rol    $0xbc,%ebx
  4026cb:	0f cb                	bswap  %ebx
  4026cd:	d1 c3                	rol    %ebx
  4026cf:	0f ba e9 70          	bts    $0x70,%ecx
  4026d3:	c1 cb 91             	ror    $0x91,%ebx
  4026d6:	0b c3                	or     %ebx,%eax
  4026d8:	23 c3                	and    %ebx,%eax
  4026da:	f7 db                	neg    %ebx
  4026dc:	0f c8                	bswap  %eax
  4026de:	f7 d8                	neg    %eax
  4026e0:	c1 c0 f6             	rol    $0xf6,%eax
  4026e3:	d3 e3                	shl    %cl,%ebx
  4026e5:	48                   	dec    %eax
  4026e6:	d3 fd                	sar    %cl,%ebp
  4026e8:	83 f0 54             	xor    $0x54,%eax
  4026eb:	f7 d1                	not    %ecx
  4026ed:	d1 c0                	rol    %eax
  4026ef:	81 e2 7a 28 7f 92    	and    $0x927f287a,%edx
  4026f5:	f7 d8                	neg    %eax
  4026f7:	35 40 2a e2 d0       	xor    $0xd0e22a40,%eax
  4026fc:	c1 c8 fb             	ror    $0xfb,%eax
  4026ff:	2d 0d 60 e2 54       	sub    $0x54e2600d,%eax
  402704:	f7 d8                	neg    %eax
  402706:	49                   	dec    %ecx
  402707:	d1 c0                	rol    %eax
  402709:	83 f0 a5             	xor    $0xffffffa5,%eax
  40270c:	0f ba e3 08          	bt     $0x8,%ebx
  402710:	40                   	inc    %eax
  402711:	2d 09 e9 f7 f6       	sub    $0xf6f7e909,%eax
  402716:	d1 c8                	ror    %eax
  402718:	c1 c0 e8             	rol    $0xe8,%eax
  40271b:	c1 c1 0e             	rol    $0xe,%ecx
  40271e:	05 ec 42 8a f4       	add    $0xf48a42ec,%eax
  402723:	f7 d8                	neg    %eax
  402725:	f9                   	stc    
  402726:	83 f0 44             	xor    $0x44,%eax
  402729:	c1 c5 1a             	rol    $0x1a,%ebp
  40272c:	d1 c0                	rol    %eax
  40272e:	81 fb 31 d6 64 8c    	cmp    $0x8c64d631,%ebx
  402734:	f7 d8                	neg    %eax
  402736:	83 f0 6e             	xor    $0x6e,%eax
  402739:	0f c8                	bswap  %eax
  40273b:	ba 94 8e 21 93       	mov    $0x93218e94,%edx
  402740:	f7 d8                	neg    %eax
  402742:	05 7e 0e 4d 96       	add    $0x964d0e7e,%eax
  402747:	c1 da 1d             	rcr    $0x1d,%edx
  40274a:	83 c0 d7             	add    $0xffffffd7,%eax
  40274d:	35 92 8a 7d 96       	xor    $0x967d8a92,%eax
  402752:	fd                   	std    
  402753:	2d b4 97 f5 a0       	sub    $0xa0f597b4,%eax
  402758:	d1 c0                	rol    %eax
  40275a:	c1 c8 79             	ror    $0x79,%eax
  40275d:	13 f3                	adc    %ebx,%esi
  40275f:	83 c0 37             	add    $0x37,%eax
  402762:	2d cf 3f 4a 73       	sub    $0x734a3fcf,%eax
  402767:	35 e0 19 12 e3       	xor    $0xe31219e0,%eax
  40276c:	40                   	inc    %eax
  40276d:	41                   	inc    %ecx
  40276e:	f7 d8                	neg    %eax
  402770:	d1 c0                	rol    %eax
  402772:	c1 c8 fe             	ror    $0xfe,%eax
  402775:	1b fd                	sbb    %ebp,%edi
  402777:	40                   	inc    %eax
  402778:	33 f6                	xor    %esi,%esi
  40277a:	f7 d8                	neg    %eax
  40277c:	83 fd 49             	cmp    $0x49,%ebp
  40277f:	d1 c0                	rol    %eax
  402781:	f8                   	clc    
  402782:	83 e8 98             	sub    $0xffffff98,%eax
  402785:	40                   	inc    %eax
  402786:	d3 c1                	rol    %cl,%ecx
  402788:	35 4d bd 31 0f       	xor    $0xf31bd4d,%eax
  40278d:	d3 e3                	shl    %cl,%ebx
  40278f:	05 90 a8 15 7d       	add    $0x7d15a890,%eax
  402794:	f7 d6                	not    %esi
  402796:	f7 d8                	neg    %eax
  402798:	0f ba f5 af          	btr    $0xaf,%ebp
  40279c:	f7 d0                	not    %eax
  40279e:	f7 d6                	not    %esi
  4027a0:	0f c8                	bswap  %eax
  4027a2:	bf f6 d3 09 21       	mov    $0x2109d3f6,%edi
  4027a7:	83 f0 b2             	xor    $0xffffffb2,%eax
  4027aa:	c1 ea 10             	shr    $0x10,%edx
  4027ad:	f7 d8                	neg    %eax
  4027af:	c1 c0 5f             	rol    $0x5f,%eax
  4027b2:	f7 d0                	not    %eax
  4027b4:	d1 c8                	ror    %eax
  4027b6:	bd 77 8d 30 12       	mov    $0x12308d77,%ebp
  4027bb:	c1 c0 3b             	rol    $0x3b,%eax
  4027be:	2d 6d 1b c2 71       	sub    $0x71c21b6d,%eax
  4027c3:	f7 d0                	not    %eax
  4027c5:	4a                   	dec    %edx
  4027c6:	83 c0 b7             	add    $0xffffffb7,%eax
  4027c9:	f7 d0                	not    %eax
  4027cb:	f7 d8                	neg    %eax
  4027cd:	f7 d3                	not    %ebx
  4027cf:	0f c8                	bswap  %eax
  4027d1:	c1 de 1c             	rcr    $0x1c,%esi
  4027d4:	c1 c8 11             	ror    $0x11,%eax
  4027d7:	03 de                	add    %esi,%ebx
  4027d9:	0f c8                	bswap  %eax
  4027db:	d1 c0                	rol    %eax
  4027dd:	c1 c0 9a             	rol    $0x9a,%eax
  4027e0:	81 db 1e 44 cf 13    	sbb    $0x13cf441e,%ebx
  4027e6:	0f c8                	bswap  %eax
  4027e8:	41                   	inc    %ecx
  4027e9:	f7 d0                	not    %eax
  4027eb:	d1 c0                	rol    %eax
  4027ed:	4f                   	dec    %edi
  4027ee:	f7 d8                	neg    %eax
  4027f0:	43                   	inc    %ebx
  4027f1:	35 8a 9a 87 cc       	xor    $0xcc879a8a,%eax
  4027f6:	33 ce                	xor    %esi,%ecx
  4027f8:	0f c8                	bswap  %eax
  4027fa:	f8                   	clc    
  4027fb:	40                   	inc    %eax
  4027fc:	0f ba f7 bd          	btr    $0xbd,%edi
  402800:	83 f0 26             	xor    $0x26,%eax
  402803:	35 72 d2 be ef       	xor    $0xefbed272,%eax
  402808:	0f c8                	bswap  %eax
  40280a:	2d 5f 69 0a 31       	sub    $0x310a695f,%eax
  40280f:	d1 c0                	rol    %eax
  402811:	b9 af 4d a5 16       	mov    $0x16a54daf,%ecx
  402816:	c1 c8 34             	ror    $0x34,%eax
  402819:	43                   	inc    %ebx
  40281a:	35 7a 9f 36 47       	xor    $0x47369f7a,%eax
  40281f:	43                   	inc    %ebx
  402820:	c1 c0 9d             	rol    $0x9d,%eax
  402823:	40                   	inc    %eax
  402824:	2d ef ec 04 5c       	sub    $0x5c04ecef,%eax
  402829:	83 e8 05             	sub    $0x5,%eax
  40282c:	be f1 d8 fd df       	mov    $0xdffdd8f1,%esi
  402831:	05 48 a0 b3 c0       	add    $0xc0b3a048,%eax
  402836:	f7 d8                	neg    %eax
  402838:	0b f9                	or     %ecx,%edi
  40283a:	f7 d0                	not    %eax
  40283c:	f9                   	stc    
  40283d:	c1 c8 7c             	ror    $0x7c,%eax
  402840:	83 c0 2b             	add    $0x2b,%eax
  402843:	bd 36 56 f4 84       	mov    $0x84f45636,%ebp
  402848:	f7 d0                	not    %eax
  40284a:	d3 da                	rcr    %cl,%edx
  40284c:	40                   	inc    %eax
  40284d:	f7 d8                	neg    %eax
  40284f:	d3 cd                	ror    %cl,%ebp
  402851:	48                   	dec    %eax
  402852:	0f c8                	bswap  %eax
  402854:	81 c2 6f 18 f9 ef    	add    $0xeff9186f,%edx
  40285a:	35 a0 95 e7 c8       	xor    $0xc8e795a0,%eax
  40285f:	c1 cf 1f             	ror    $0x1f,%edi
  402862:	d1 c8                	ror    %eax
  402864:	0f ba fd 48          	btc    $0x48,%ebp
  402868:	35 ee fa 42 b0       	xor    $0xb042faee,%eax
  40286d:	42                   	inc    %edx
  40286e:	f7 d8                	neg    %eax
  402870:	f7 d6                	not    %esi
  402872:	48                   	dec    %eax
  402873:	c1 e9 04             	shr    $0x4,%ecx
  402876:	83 f0 db             	xor    $0xffffffdb,%eax
  402879:	f7 d0                	not    %eax
  40287b:	d1 c0                	rol    %eax
  40287d:	83 e8 02             	sub    $0x2,%eax
  402880:	2d c1 44 90 6e       	sub    $0x6e9044c1,%eax
  402885:	f7 d0                	not    %eax
  402887:	f7 d8                	neg    %eax
  402889:	40                   	inc    %eax
  40288a:	d1 c8                	ror    %eax
  40288c:	f7 d0                	not    %eax
  40288e:	83 f0 c6             	xor    $0xffffffc6,%eax
  402891:	d1 c0                	rol    %eax
  402893:	83 c0 86             	add    $0xffffff86,%eax
  402896:	d3 c2                	rol    %cl,%edx
  402898:	35 c5 0d d0 41       	xor    $0x41d00dc5,%eax
  40289d:	05 07 ae a3 5d       	add    $0x5da3ae07,%eax
  4028a2:	c1 c8 dc             	ror    $0xdc,%eax
  4028a5:	d1 c8                	ror    %eax
  4028a7:	48                   	dec    %eax
  4028a8:	45                   	inc    %ebp
  4028a9:	05 96 ad 0b d5       	add    $0xd50bad96,%eax
  4028ae:	40                   	inc    %eax
  4028af:	bd 25 21 77 b1       	mov    $0xb1772125,%ebp
  4028b4:	f7 d0                	not    %eax
  4028b6:	83 e8 ce             	sub    $0xffffffce,%eax
  4028b9:	35 65 87 67 f1       	xor    $0xf1678765,%eax
  4028be:	f7 d8                	neg    %eax
  4028c0:	c1 c0 9b             	rol    $0x9b,%eax
  4028c3:	f7 d0                	not    %eax
  4028c5:	0f ba eb ad          	bts    $0xad,%ebx
  4028c9:	83 c0 2a             	add    $0x2a,%eax
  4028cc:	c1 c8 88             	ror    $0x88,%eax
  4028cf:	83 f0 e3             	xor    $0xffffffe3,%eax
  4028d2:	f7 d8                	neg    %eax
  4028d4:	48                   	dec    %eax
  4028d5:	0f ba ef 99          	bts    $0x99,%edi
  4028d9:	83 c0 e3             	add    $0xffffffe3,%eax
  4028dc:	d1 c8                	ror    %eax
  4028de:	83 f2 01             	xor    $0x1,%edx
  4028e1:	c1 c8 ea             	ror    $0xea,%eax
  4028e4:	d3 e6                	shl    %cl,%esi
  4028e6:	35 24 1e f3 22       	xor    $0x22f31e24,%eax
  4028eb:	f7 d7                	not    %edi
  4028ed:	d1 c0                	rol    %eax
  4028ef:	83 f0 98             	xor    $0xffffff98,%eax
  4028f2:	0b e9                	or     %ecx,%ebp
  4028f4:	83 e8 5d             	sub    $0x5d,%eax
  4028f7:	2d fb 04 81 82       	sub    $0x828104fb,%eax
  4028fc:	35 4a 1a 60 f0       	xor    $0xf0601a4a,%eax
  402901:	f7 d7                	not    %edi
  402903:	d1 c0                	rol    %eax
  402905:	03 e8                	add    %eax,%ebp
  402907:	40                   	inc    %eax
  402908:	4f                   	dec    %edi
  402909:	f7 d8                	neg    %eax
  40290b:	93                   	xchg   %eax,%ebx
  40290c:	f9                   	stc    
  40290d:	83 c3 66             	add    $0x66,%ebx
  402910:	f7 d3                	not    %ebx
  402912:	83 d6 bb             	adc    $0xffffffbb,%esi
  402915:	83 eb 5b             	sub    $0x5b,%ebx
  402918:	d1 c3                	rol    %ebx
  40291a:	83 f9 f7             	cmp    $0xfffffff7,%ecx
  40291d:	0f cb                	bswap  %ebx
  40291f:	4b                   	dec    %ebx
  402920:	f7 d5                	not    %ebp
  402922:	f7 db                	neg    %ebx
  402924:	d3 fd                	sar    %cl,%ebp
  402926:	81 f3 4e cd 0a 50    	xor    $0x500acd4e,%ebx
  40292c:	f7 d3                	not    %ebx
  40292e:	83 f3 9c             	xor    $0xffffff9c,%ebx
  402931:	fc                   	cld    
  402932:	f7 db                	neg    %ebx
  402934:	43                   	inc    %ebx
  402935:	48                   	dec    %eax
  402936:	c1 c3 fb             	rol    $0xfb,%ebx
  402939:	81 fa be 57 57 4d    	cmp    $0x4d5757be,%edx
  40293f:	d1 c3                	rol    %ebx
  402941:	81 c3 59 80 b3 91    	add    $0x91b38059,%ebx
  402947:	c1 ee 07             	shr    $0x7,%esi
  40294a:	83 f3 15             	xor    $0x15,%ebx
  40294d:	0f ba e7 88          	bt     $0x88,%edi
  402951:	f7 d3                	not    %ebx
  402953:	81 c3 0f f5 c1 9f    	add    $0x9fc1f50f,%ebx
  402959:	83 f3 0a             	xor    $0xa,%ebx
  40295c:	d3 ca                	ror    %cl,%edx
  40295e:	83 c3 c4             	add    $0xffffffc4,%ebx
  402961:	f7 db                	neg    %ebx
  402963:	f8                   	clc    
  402964:	f7 d3                	not    %ebx
  402966:	83 f3 5c             	xor    $0x5c,%ebx
  402969:	f7 dd                	neg    %ebp
  40296b:	83 eb 7f             	sub    $0x7f,%ebx
  40296e:	f7 d0                	not    %eax
  402970:	f7 d3                	not    %ebx
  402972:	c1 cb 04             	ror    $0x4,%ebx
  402975:	c1 d0 1e             	rcl    $0x1e,%eax
  402978:	83 eb 85             	sub    $0xffffff85,%ebx
  40297b:	81 c1 f2 2e 58 37    	add    $0x37582ef2,%ecx
  402981:	83 f3 f1             	xor    $0xfffffff1,%ebx
  402984:	f7 dd                	neg    %ebp
  402986:	f7 db                	neg    %ebx
  402988:	81 eb 24 04 2c 33    	sub    $0x332c0424,%ebx
  40298e:	f7 da                	neg    %edx
  402990:	f7 db                	neg    %ebx
  402992:	f7 d3                	not    %ebx
  402994:	0f ba f9 44          	btc    $0x44,%ecx
  402998:	c1 cb a5             	ror    $0xa5,%ebx
  40299b:	f7 db                	neg    %ebx
  40299d:	d3 c9                	ror    %cl,%ecx
  40299f:	0f cb                	bswap  %ebx
  4029a1:	d1 cb                	ror    %ebx
  4029a3:	81 f3 01 47 ff 16    	xor    $0x16ff4701,%ebx
  4029a9:	d3 da                	rcr    %cl,%edx
  4029ab:	83 f3 c9             	xor    $0xffffffc9,%ebx
  4029ae:	4b                   	dec    %ebx
  4029af:	4d                   	dec    %ebp
  4029b0:	0f cb                	bswap  %ebx
  4029b2:	d3 d7                	rcl    %cl,%edi
  4029b4:	43                   	inc    %ebx
  4029b5:	81 f2 e4 fd 64 50    	xor    $0x5064fde4,%edx
  4029bb:	d1 cb                	ror    %ebx
  4029bd:	83 c3 da             	add    $0xffffffda,%ebx
  4029c0:	83 f7 85             	xor    $0xffffff85,%edi
  4029c3:	f7 db                	neg    %ebx
  4029c5:	d1 c3                	rol    %ebx
  4029c7:	53                   	push   %ebx
  4029c8:	5d                   	pop    %ebp
  4029c9:	83 f5 e3             	xor    $0xffffffe3,%ebp
  4029cc:	81 ed 18 b9 7f 65    	sub    $0x657fb918,%ebp
  4029d2:	d3 ea                	shr    %cl,%edx
  4029d4:	81 f5 3f 2c 91 12    	xor    $0x12912c3f,%ebp
  4029da:	83 f6 c2             	xor    $0xffffffc2,%esi
  4029dd:	0f cd                	bswap  %ebp
  4029df:	d1 cd                	ror    %ebp
  4029e1:	45                   	inc    %ebp
  4029e2:	0f ba e6 5c          	bt     $0x5c,%esi
  4029e6:	83 ed c2             	sub    $0xffffffc2,%ebp
  4029e9:	4d                   	dec    %ebp
  4029ea:	47                   	inc    %edi
  4029eb:	0f cd                	bswap  %ebp
  4029ed:	fd                   	std    
  4029ee:	83 f5 67             	xor    $0x67,%ebp
  4029f1:	81 ed 59 32 c8 83    	sub    $0x83c83259,%ebp
  4029f7:	03 d4                	add    %esp,%edx
  4029f9:	83 f5 27             	xor    $0x27,%ebp
  4029fc:	d3 e1                	shl    %cl,%ecx
  4029fe:	f7 d5                	not    %ebp
  402a00:	b8 99 14 3f 7e       	mov    $0x7e3f1499,%eax
  402a05:	c1 c5 8e             	rol    $0x8e,%ebp
  402a08:	0f cd                	bswap  %ebp
  402a0a:	81 c5 7e 58 32 ca    	add    $0xca32587e,%ebp
  402a10:	83 f5 b2             	xor    $0xffffffb2,%ebp
  402a13:	0f ba f7 8a          	btr    $0x8a,%edi
  402a17:	4d                   	dec    %ebp
  402a18:	81 c5 55 29 da c1    	add    $0xc1da2955,%ebp
  402a1e:	81 f6 f8 8c ef 07    	xor    $0x7ef8cf8,%esi
  402a24:	83 f5 67             	xor    $0x67,%ebp
  402a27:	2d 0e 65 a2 8e       	sub    $0x8ea2650e,%eax
  402a2c:	81 f5 22 d0 42 56    	xor    $0x5642d022,%ebp
  402a32:	13 db                	adc    %ebx,%ebx
  402a34:	f7 d5                	not    %ebp
  402a36:	83 ed aa             	sub    $0xffffffaa,%ebp
  402a39:	f7 d1                	not    %ecx
  402a3b:	0f cd                	bswap  %ebp
  402a3d:	f7 dd                	neg    %ebp
  402a3f:	0f cd                	bswap  %ebp
  402a41:	55                   	push   %ebp
  402a42:	5f                   	pop    %edi
  402a43:	c1 cf 38             	ror    $0x38,%edi
  402a46:	47                   	inc    %edi
  402a47:	f7 d6                	not    %esi
  402a49:	f7 d7                	not    %edi
  402a4b:	57                   	push   %edi
  402a4c:	5a                   	pop    %edx
  402a4d:	46                   	inc    %esi
  402a4e:	4a                   	dec    %edx
  402a4f:	81 c2 61 62 8d 57    	add    $0x578d6261,%edx
  402a55:	81 cd ef 18 f0 37    	or     $0x37f018ef,%ebp
  402a5b:	83 f2 ee             	xor    $0xffffffee,%edx
  402a5e:	0b de                	or     %esi,%ebx
  402a60:	f7 d2                	not    %edx
  402a62:	8b fa                	mov    %edx,%edi
  402a64:	2b c6                	sub    %esi,%eax
  402a66:	83 f7 91             	xor    $0xffffff91,%edi
  402a69:	81 c5 7b fc ce ee    	add    $0xeecefc7b,%ebp
  402a6f:	81 c7 7b b9 1e aa    	add    $0xaa1eb97b,%edi
  402a75:	d1 c7                	rol    %edi
  402a77:	3f                   	aas    
  402a78:	47                   	inc    %edi
  402a79:	c1 fd 00             	sar    $0x0,%ebp
  402a7c:	c1 c7 92             	rol    $0x92,%edi
  402a7f:	83 c7 5d             	add    $0x5d,%edi
  402a82:	83 f7 4a             	xor    $0x4a,%edi
  402a85:	f7 df                	neg    %edi
  402a87:	57                   	push   %edi
  402a88:	58                   	pop    %eax
  402a89:	f7 d0                	not    %eax
  402a8b:	f7 d8                	neg    %eax
  402a8d:	c1 c0 09             	rol    $0x9,%eax
  402a90:	d3 e7                	shl    %cl,%edi
  402a92:	40                   	inc    %eax
  402a93:	35 d5 8a c3 c1       	xor    $0xc1c38ad5,%eax
  402a98:	f7 d0                	not    %eax
  402a9a:	c1 c8 25             	ror    $0x25,%eax
  402a9d:	35 35 6f 6f 6d       	xor    $0x6d6f6f35,%eax
  402aa2:	83 e8 61             	sub    $0x61,%eax
  402aa5:	ba a0 61 18 80       	mov    $0x801861a0,%edx
  402aaa:	f7 d8                	neg    %eax
  402aac:	d3 e5                	shl    %cl,%ebp
  402aae:	83 c0 f3             	add    $0xfffffff3,%eax
  402ab1:	81 ce 2c f1 70 91    	or     $0x9170f12c,%esi
  402ab7:	83 f0 10             	xor    $0x10,%eax
  402aba:	05 50 eb 02 b1       	add    $0xb102eb50,%eax
  402abf:	0f c8                	bswap  %eax
  402ac1:	83 f3 36             	xor    $0x36,%ebx
  402ac4:	35 5b 72 10 5e       	xor    $0x5e10725b,%eax
  402ac9:	97                   	xchg   %eax,%edi
  402aca:	b8 65 23 4a cf       	mov    $0xcf4a2365,%eax
  402acf:	c1 cf d8             	ror    $0xd8,%edi
  402ad2:	4f                   	dec    %edi
  402ad3:	f7 da                	neg    %edx
  402ad5:	d1 cf                	ror    %edi
  402ad7:	f7 d9                	neg    %ecx
  402ad9:	81 f7 a5 fc 07 71    	xor    $0x7107fca5,%edi
  402adf:	83 f7 4f             	xor    $0x4f,%edi
  402ae2:	83 ea 7b             	sub    $0x7b,%edx
  402ae5:	0f cf                	bswap  %edi
  402ae7:	43                   	inc    %ebx
  402ae8:	c1 cf ef             	ror    $0xef,%edi
  402aeb:	c1 c9 1b             	ror    $0x1b,%ecx
  402aee:	0f cf                	bswap  %edi
  402af0:	b8 db e7 6c 0e       	mov    $0xe6ce7db,%eax
  402af5:	81 c7 8e 20 e4 11    	add    $0x11e4208e,%edi
  402afb:	45                   	inc    %ebp
  402afc:	f7 d7                	not    %edi
  402afe:	4f                   	dec    %edi
  402aff:	83 c7 5e             	add    $0x5e,%edi
  402b02:	0f ba ee c6          	bts    $0xc6,%esi
  402b06:	f7 d7                	not    %edi
  402b08:	15 45 37 a4 76       	adc    $0x76a43745,%eax
  402b0d:	83 ef ad             	sub    $0xffffffad,%edi
  402b10:	48                   	dec    %eax
  402b11:	83 f7 7a             	xor    $0x7a,%edi
  402b14:	81 c7 28 da db 05    	add    $0x5dbda28,%edi
  402b1a:	d1 cf                	ror    %edi
  402b1c:	4f                   	dec    %edi
  402b1d:	40                   	inc    %eax
  402b1e:	f7 d7                	not    %edi
  402b20:	bb dc b7 ff 85       	mov    $0x85ffb7dc,%ebx
  402b25:	0f cf                	bswap  %edi
  402b27:	81 c7 eb 47 02 10    	add    $0x100247eb,%edi
  402b2d:	81 f7 6a 4e 3b b9    	xor    $0xb93b4e6a,%edi
  402b33:	f7 df                	neg    %edi
  402b35:	d3 e1                	shl    %cl,%ecx
  402b37:	c1 cf e2             	ror    $0xe2,%edi
  402b3a:	81 f7 d1 41 46 23    	xor    $0x234641d1,%edi
  402b40:	83 ef 20             	sub    $0x20,%edi
  402b43:	83 f2 5c             	xor    $0x5c,%edx
  402b46:	81 f7 70 01 79 62    	xor    $0x62790170,%edi
  402b4c:	83 c7 24             	add    $0x24,%edi
  402b4f:	f7 df                	neg    %edi
  402b51:	81 c7 2f 03 64 d7    	add    $0xd764032f,%edi
  402b57:	83 c3 ea             	add    $0xffffffea,%ebx
  402b5a:	c1 c7 83             	rol    $0x83,%edi
  402b5d:	83 c7 cf             	add    $0xffffffcf,%edi
  402b60:	81 ef 26 50 b1 e8    	sub    $0xe8b15026,%edi
  402b66:	ba 01 21 92 14       	mov    $0x14922101,%edx
  402b6b:	f7 d7                	not    %edi
  402b6d:	2f                   	das    
  402b6e:	d1 c7                	rol    %edi
  402b70:	81 f7 90 51 b7 9e    	xor    $0x9eb75190,%edi
  402b76:	83 ef 5d             	sub    $0x5d,%edi
  402b79:	81 ef 2e a3 5f 7a    	sub    $0x7a5fa32e,%edi
  402b7f:	83 f7 6a             	xor    $0x6a,%edi
  402b82:	4f                   	dec    %edi
  402b83:	d1 cf                	ror    %edi
  402b85:	81 c7 e5 90 95 9b    	add    $0x9b9590e5,%edi
  402b8b:	d3 ee                	shr    %cl,%esi
  402b8d:	81 f7 51 45 c2 c5    	xor    $0xc5c24551,%edi
  402b93:	b8 09 21 99 84       	mov    $0x84992109,%eax
  402b98:	d1 cf                	ror    %edi
  402b9a:	57                   	push   %edi
  402b9b:	5b                   	pop    %ebx
  402b9c:	81 f3 97 e7 7d 47    	xor    $0x477de797,%ebx
  402ba2:	87 d9                	xchg   %ebx,%ecx
  402ba4:	f7 da                	neg    %edx
  402ba6:	83 f1 78             	xor    $0x78,%ecx
  402ba9:	bd cf e3 61 57       	mov    $0x5761e3cf,%ebp
  402bae:	0f c9                	bswap  %ecx
  402bb0:	0f ba f3 79          	btr    $0x79,%ebx
  402bb4:	81 c1 66 8c 7f d0    	add    $0xd07f8c66,%ecx
  402bba:	0f ba f7 c8          	btr    $0xc8,%edi
  402bbe:	49                   	dec    %ecx
  402bbf:	d1 c9                	ror    %ecx
  402bc1:	f7 d1                	not    %ecx
  402bc3:	8b fa                	mov    %edx,%edi
  402bc5:	81 c1 f3 2a 3a 78    	add    $0x783a2af3,%ecx
  402bcb:	81 f1 ab 97 e1 01    	xor    $0x1e197ab,%ecx
  402bd1:	0f c9                	bswap  %ecx
  402bd3:	42                   	inc    %edx
  402bd4:	83 e9 8b             	sub    $0xffffff8b,%ecx
  402bd7:	0b df                	or     %edi,%ebx
  402bd9:	c1 c9 80             	ror    $0x80,%ecx
  402bdc:	d3 ef                	shr    %cl,%edi
  402bde:	81 e9 f3 96 52 8d    	sub    $0x8d5296f3,%ecx
  402be4:	c1 c1 95             	rol    $0x95,%ecx
  402be7:	83 f1 38             	xor    $0x38,%ecx
  402bea:	d1 c1                	rol    %ecx
  402bec:	23 e9                	and    %ecx,%ebp
  402bee:	0b e9                	or     %ecx,%ebp
  402bf0:	81 f6 3b 0c 08 e4    	xor    $0xe4080c3b,%esi
  402bf6:	f7 d5                	not    %ebp
  402bf8:	83 c5 17             	add    $0x17,%ebp
  402bfb:	c1 e3 09             	shl    $0x9,%ebx
  402bfe:	c1 c5 33             	rol    $0x33,%ebp
  402c01:	0f ba ef ee          	bts    $0xee,%edi
  402c05:	81 c5 fe 3f 21 cc    	add    $0xcc213ffe,%ebp
  402c0b:	83 f5 8d             	xor    $0xffffff8d,%ebp
  402c0e:	b9 4e 1d 58 98       	mov    $0x98581d4e,%ecx
  402c13:	83 c5 8b             	add    $0xffffff8b,%ebp
  402c16:	03 f1                	add    %ecx,%esi
  402c18:	0f cd                	bswap  %ebp
  402c1a:	25 63 14 b4 eb       	and    $0xebb41463,%eax
  402c1f:	83 f5 d6             	xor    $0xffffffd6,%ebp
  402c22:	c1 e7 18             	shl    $0x18,%edi
  402c25:	f7 d5                	not    %ebp
  402c27:	f7 db                	neg    %ebx
  402c29:	f7 dd                	neg    %ebp
  402c2b:	13 db                	adc    %ebx,%ebx
  402c2d:	0f cd                	bswap  %ebp
  402c2f:	45                   	inc    %ebp
  402c30:	83 ed a9             	sub    $0xffffffa9,%ebp
  402c33:	f7 d5                	not    %ebp
  402c35:	c1 cd cc             	ror    $0xcc,%ebp
  402c38:	81 ed dc fd d5 fd    	sub    $0xfdd5fddc,%ebp
  402c3e:	81 f5 07 d4 9e d7    	xor    $0xd79ed407,%ebp
  402c44:	d3 ee                	shr    %cl,%esi
  402c46:	0f cd                	bswap  %ebp
  402c48:	d3 f8                	sar    %cl,%eax
  402c4a:	4d                   	dec    %ebp
  402c4b:	c1 cd 97             	ror    $0x97,%ebp
  402c4e:	f7 dd                	neg    %ebp
  402c50:	f7 d0                	not    %eax
  402c52:	d1 cd                	ror    %ebp
  402c54:	c1 c5 35             	rol    $0x35,%ebp
  402c57:	81 ed 40 1d db 12    	sub    $0x12db1d40,%ebp
  402c5d:	0f cd                	bswap  %ebp
  402c5f:	d3 db                	rcr    %cl,%ebx
  402c61:	81 ed db 79 ba b4    	sub    $0xb4ba79db,%ebp
  402c67:	f7 d5                	not    %ebp
  402c69:	ba 00 1f 1a 12       	mov    $0x121a1f00,%edx
  402c6e:	45                   	inc    %ebp
  402c6f:	81 ed e8 53 33 e2    	sub    $0xe23353e8,%ebp
  402c75:	b9 f4 c2 2b ce       	mov    $0xce2bc2f4,%ecx
  402c7a:	83 f5 f7             	xor    $0xfffffff7,%ebp
  402c7d:	f7 dd                	neg    %ebp
  402c7f:	81 f5 66 34 0c 0c    	xor    $0xc0c3466,%ebp
  402c85:	f7 d5                	not    %ebp
  402c87:	c1 ee 17             	shr    $0x17,%esi
  402c8a:	d1 cd                	ror    %ebp
  402c8c:	fd                   	std    
  402c8d:	45                   	inc    %ebp
  402c8e:	f7 d5                	not    %ebp
  402c90:	d3 ca                	ror    %cl,%edx
  402c92:	c1 c5 2b             	rol    $0x2b,%ebp
  402c95:	81 e1 10 32 d8 b1    	and    $0xb1d83210,%ecx
  402c9b:	f7 dd                	neg    %ebp
  402c9d:	83 c5 71             	add    $0x71,%ebp
  402ca0:	81 f5 5a bc ea 11    	xor    $0x11eabc5a,%ebp
  402ca6:	c1 c5 61             	rol    $0x61,%ebp
  402ca9:	0f cd                	bswap  %ebp
  402cab:	c1 cd f0             	ror    $0xf0,%ebp
  402cae:	d3 eb                	shr    %cl,%ebx
  402cb0:	f7 dd                	neg    %ebp
  402cb2:	f9                   	stc    
  402cb3:	83 ed 62             	sub    $0x62,%ebp
  402cb6:	d3 e2                	shl    %cl,%edx
  402cb8:	81 f5 92 af e7 9d    	xor    $0x9de7af92,%ebp
  402cbe:	4d                   	dec    %ebp
  402cbf:	81 fe 32 29 5d 5f    	cmp    $0x5f5d2932,%esi
  402cc5:	d1 cd                	ror    %ebp
  402cc7:	83 ed 05             	sub    $0x5,%ebp
  402cca:	f7 d5                	not    %ebp
  402ccc:	83 ed 40             	sub    $0x40,%ebp
  402ccf:	fc                   	cld    
  402cd0:	f7 dd                	neg    %ebp
  402cd2:	81 de 20 b0 b0 bd    	sbb    $0xbdb0b020,%esi
  402cd8:	0f cd                	bswap  %ebp
  402cda:	f7 dd                	neg    %ebp
  402cdc:	55                   	push   %ebp
  402cdd:	58                   	pop    %eax
  402cde:	83 cd 55             	or     $0x55,%ebp
  402ce1:	05 e8 4e 22 fc       	add    $0xfc224ee8,%eax
  402ce6:	23 d0                	and    %eax,%edx
  402ce8:	0b d0                	or     %eax,%edx
  402cea:	bd 58 1a 5a f6       	mov    $0xf65a1a58,%ebp
  402cef:	0f ca                	bswap  %edx
  402cf1:	83 ea 2c             	sub    $0x2c,%edx
  402cf4:	81 ea d5 58 42 d6    	sub    $0xd64258d5,%edx
  402cfa:	83 ce 2d             	or     $0x2d,%esi
  402cfd:	83 ea 40             	sub    $0x40,%edx
  402d00:	c1 eb 05             	shr    $0x5,%ebx
  402d03:	f7 da                	neg    %edx
  402d05:	c1 c2 90             	rol    $0x90,%edx
  402d08:	4a                   	dec    %edx
  402d09:	d1 ca                	ror    %edx
  402d0b:	4a                   	dec    %edx
  402d0c:	0f ca                	bswap  %edx
  402d0e:	4d                   	dec    %ebp
  402d0f:	f7 da                	neg    %edx
  402d11:	81 c2 94 43 bb 4b    	add    $0x4bbb4394,%edx
  402d17:	83 f2 d5             	xor    $0xffffffd5,%edx
  402d1a:	c1 e3 02             	shl    $0x2,%ebx
  402d1d:	c1 ca e3             	ror    $0xe3,%edx
  402d20:	83 c2 83             	add    $0xffffff83,%edx
  402d23:	0f ba f0 fd          	btr    $0xfd,%eax
  402d27:	42                   	inc    %edx
  402d28:	81 f2 39 d3 e6 e5    	xor    $0xe5e6d339,%edx
  402d2e:	f7 da                	neg    %edx
  402d30:	83 c2 28             	add    $0x28,%edx
  402d33:	42                   	inc    %edx
  402d34:	43                   	inc    %ebx
  402d35:	f7 d2                	not    %edx
  402d37:	d1 ca                	ror    %edx
  402d39:	81 d1 3b dc f3 f8    	adc    $0xf8f3dc3b,%ecx
  402d3f:	81 c2 17 51 91 db    	add    $0xdb915117,%edx
  402d45:	83 fe b3             	cmp    $0xffffffb3,%esi
  402d48:	83 f2 e6             	xor    $0xffffffe6,%edx
  402d4b:	83 e7 82             	and    $0xffffff82,%edi
  402d4e:	81 f2 c4 30 c1 b6    	xor    $0xb6c130c4,%edx
  402d54:	0f ba f9 12          	btc    $0x12,%ecx
  402d58:	f7 d2                	not    %edx
  402d5a:	f9                   	stc    
  402d5b:	83 f2 5b             	xor    $0x5b,%edx
  402d5e:	c1 e5 09             	shl    $0x9,%ebp
  402d61:	81 c2 33 77 2e df    	add    $0xdf2e7733,%edx
  402d67:	f7 d9                	neg    %ecx
  402d69:	0f ca                	bswap  %edx
  402d6b:	42                   	inc    %edx
  402d6c:	f7 da                	neg    %edx
  402d6e:	c1 d3 0a             	rcl    $0xa,%ebx
  402d71:	d1 ca                	ror    %edx
  402d73:	83 c3 b9             	add    $0xffffffb9,%ebx
  402d76:	c1 c2 a0             	rol    $0xa0,%edx
  402d79:	83 e6 3e             	and    $0x3e,%esi
  402d7c:	42                   	inc    %edx
  402d7d:	d3 c5                	rol    %cl,%ebp
  402d7f:	83 f2 cc             	xor    $0xffffffcc,%edx
  402d82:	81 f2 b6 94 ba a5    	xor    $0xa5ba94b6,%edx
  402d88:	c1 df 0b             	rcr    $0xb,%edi
  402d8b:	d1 ca                	ror    %edx
  402d8d:	83 e9 13             	sub    $0x13,%ecx
  402d90:	f7 d2                	not    %edx
  402d92:	83 ea cf             	sub    $0xffffffcf,%edx
  402d95:	52                   	push   %edx
  402d96:	5b                   	pop    %ebx
  402d97:	0f cb                	bswap  %ebx
  402d99:	4b                   	dec    %ebx
  402d9a:	83 f3 35             	xor    $0x35,%ebx
  402d9d:	d3 e8                	shr    %cl,%eax
  402d9f:	4b                   	dec    %ebx
  402da0:	0f cb                	bswap  %ebx
  402da2:	d3 ee                	shr    %cl,%esi
  402da4:	c1 c3 4c             	rol    $0x4c,%ebx
  402da7:	83 ef 0b             	sub    $0xb,%edi
  402daa:	43                   	inc    %ebx
  402dab:	fd                   	std    
  402dac:	f7 d3                	not    %ebx
  402dae:	d3 c2                	rol    %cl,%edx
  402db0:	4b                   	dec    %ebx
  402db1:	83 eb 8e             	sub    $0xffffff8e,%ebx
  402db4:	f7 d3                	not    %ebx
  402db6:	d3 ef                	shr    %cl,%edi
  402db8:	d1 cb                	ror    %ebx
  402dba:	d3 d8                	rcr    %cl,%eax
  402dbc:	81 f3 28 72 84 bc    	xor    $0xbc847228,%ebx
  402dc2:	81 eb e4 a6 c1 7c    	sub    $0x7cc1a6e4,%ebx
  402dc8:	fd                   	std    
  402dc9:	f7 db                	neg    %ebx
  402dcb:	fc                   	cld    
  402dcc:	c1 c3 b5             	rol    $0xb5,%ebx
  402dcf:	d1 c3                	rol    %ebx
  402dd1:	c1 e5 1c             	shl    $0x1c,%ebp
  402dd4:	83 f3 78             	xor    $0x78,%ebx
  402dd7:	43                   	inc    %ebx
  402dd8:	81 f3 89 fd 4a f5    	xor    $0xf54afd89,%ebx
  402dde:	0f cb                	bswap  %ebx
  402de0:	83 c3 2e             	add    $0x2e,%ebx
  402de3:	ba 1b 64 05 4b       	mov    $0x4b05641b,%edx
  402de8:	81 c3 4d 43 6d 25    	add    $0x256d434d,%ebx
  402dee:	83 fe 88             	cmp    $0xffffff88,%esi
  402df1:	f7 d3                	not    %ebx
  402df3:	46                   	inc    %esi
  402df4:	f7 db                	neg    %ebx
  402df6:	bd e7 bc ff d2       	mov    $0xd2ffbce7,%ebp
  402dfb:	f7 d3                	not    %ebx
  402dfd:	bf 49 75 70 ad       	mov    $0xad707549,%edi
  402e02:	83 f3 11             	xor    $0x11,%ebx
  402e05:	fc                   	cld    
  402e06:	4b                   	dec    %ebx
  402e07:	81 eb 5e ed 89 1c    	sub    $0x1c89ed5e,%ebx
  402e0d:	4a                   	dec    %edx
  402e0e:	83 f3 23             	xor    $0x23,%ebx
  402e11:	f7 d3                	not    %ebx
  402e13:	f7 db                	neg    %ebx
  402e15:	b8 ef 95 27 5f       	mov    $0x5f2795ef,%eax
  402e1a:	81 f3 fb 08 26 d8    	xor    $0xd82608fb,%ebx
  402e20:	f7 db                	neg    %ebx
  402e22:	d3 e1                	shl    %cl,%ecx
  402e24:	81 f3 88 fe 5d fb    	xor    $0xfb5dfe88,%ebx
  402e2a:	d1 cb                	ror    %ebx
  402e2c:	83 ea 50             	sub    $0x50,%edx
  402e2f:	c1 c3 dd             	rol    $0xdd,%ebx
  402e32:	0f ba e5 fa          	bt     $0xfa,%ebp
  402e36:	43                   	inc    %ebx
  402e37:	c1 c3 61             	rol    $0x61,%ebx
  402e3a:	0f cb                	bswap  %ebx
  402e3c:	d3 c5                	rol    %cl,%ebp
  402e3e:	81 eb 64 1a 0b 33    	sub    $0x330b1a64,%ebx
  402e44:	f7 d3                	not    %ebx
  402e46:	c1 d7 09             	rcl    $0x9,%edi
  402e49:	81 eb 2a b0 31 78    	sub    $0x7831b02a,%ebx
  402e4f:	fc                   	cld    
  402e50:	f7 db                	neg    %ebx
  402e52:	1b fc                	sbb    %esp,%edi
  402e54:	81 f3 da 99 41 85    	xor    $0x854199da,%ebx
  402e5a:	83 f3 bf             	xor    $0xffffffbf,%ebx
  402e5d:	c1 e7 1b             	shl    $0x1b,%edi
  402e60:	81 c3 58 37 c3 de    	add    $0xdec33758,%ebx
  402e66:	43                   	inc    %ebx
  402e67:	d1 cb                	ror    %ebx
  402e69:	f7 db                	neg    %ebx
  402e6b:	0f cb                	bswap  %ebx
  402e6d:	f7 d3                	not    %ebx
  402e6f:	f7 df                	neg    %edi
  402e71:	0f cb                	bswap  %ebx
  402e73:	0f ba e5 6a          	bt     $0x6a,%ebp
  402e77:	43                   	inc    %ebx
  402e78:	83 c3 7c             	add    $0x7c,%ebx
  402e7b:	0f cb                	bswap  %ebx
  402e7d:	87 de                	xchg   %ebx,%esi
  402e7f:	d3 e0                	shl    %cl,%eax
  402e81:	83 ee ba             	sub    $0xffffffba,%esi
  402e84:	c1 ce 59             	ror    $0x59,%esi
  402e87:	83 ee 3c             	sub    $0x3c,%esi
  402e8a:	0f ce                	bswap  %esi
  402e8c:	42                   	inc    %edx
  402e8d:	81 f6 c6 72 b0 f7    	xor    $0xf7b072c6,%esi
  402e93:	4e                   	dec    %esi
  402e94:	f7 d6                	not    %esi
  402e96:	c1 fa 04             	sar    $0x4,%edx
  402e99:	83 f6 12             	xor    $0x12,%esi
  402e9c:	ba bd 85 57 5a       	mov    $0x5a5785bd,%edx
  402ea1:	0f ce                	bswap  %esi
  402ea3:	c1 ce e7             	ror    $0xe7,%esi
  402ea6:	fc                   	cld    
  402ea7:	81 c6 2c d8 96 0e    	add    $0xe96d82c,%esi
  402ead:	f7 dd                	neg    %ebp
  402eaf:	81 f6 c4 3c 02 fc    	xor    $0xfc023cc4,%esi
  402eb5:	98                   	cwtl   
  402eb6:	0f ce                	bswap  %esi
  402eb8:	c1 cd 06             	ror    $0x6,%ebp
  402ebb:	c1 c6 85             	rol    $0x85,%esi
  402ebe:	f7 d6                	not    %esi
  402ec0:	c1 c6 c1             	rol    $0xc1,%esi
  402ec3:	0f ba e2 9d          	bt     $0x9d,%edx
  402ec7:	f7 d6                	not    %esi
  402ec9:	d1 ce                	ror    %esi
  402ecb:	83 c0 47             	add    $0x47,%eax
  402ece:	c1 c6 ed             	rol    $0xed,%esi
  402ed1:	f7 d6                	not    %esi
  402ed3:	0f ce                	bswap  %esi
  402ed5:	56                   	push   %esi
  402ed6:	58                   	pop    %eax
  402ed7:	d1 c0                	rol    %eax
  402ed9:	83 f0 0f             	xor    $0xf,%eax
  402edc:	0f c8                	bswap  %eax
  402ede:	81 cf 06 2c 54 d4    	or     $0xd4542c06,%edi
  402ee4:	35 7b 16 43 d7       	xor    $0xd743167b,%eax
  402ee9:	48                   	dec    %eax
  402eea:	0f c8                	bswap  %eax
  402eec:	0b f3                	or     %ebx,%esi
  402eee:	83 f0 57             	xor    $0x57,%eax
  402ef1:	0f c8                	bswap  %eax
  402ef3:	c1 e6 03             	shl    $0x3,%esi
  402ef6:	83 f0 b4             	xor    $0xffffffb4,%eax
  402ef9:	50                   	push   %eax
  402efa:	5f                   	pop    %edi
  402efb:	f7 d2                	not    %edx
  402efd:	4f                   	dec    %edi
  402efe:	d1 cf                	ror    %edi
  402f00:	83 ea 89             	sub    $0xffffff89,%edx
  402f03:	83 f7 8a             	xor    $0xffffff8a,%edi
  402f06:	81 ef 5a 97 41 12    	sub    $0x1241975a,%edi
  402f0c:	f7 df                	neg    %edi
  402f0e:	f7 d6                	not    %esi
  402f10:	c1 c7 f2             	rol    $0xf2,%edi
  402f13:	4f                   	dec    %edi
  402f14:	f7 d7                	not    %edi
  402f16:	81 c7 90 fe e4 b0    	add    $0xb0e4fe90,%edi
  402f1c:	83 ef fb             	sub    $0xfffffffb,%edi
  402f1f:	81 c7 b4 d7 3d 03    	add    $0x33dd7b4,%edi
  402f25:	fd                   	std    
  402f26:	c1 c7 67             	rol    $0x67,%edi
  402f29:	c1 ea 09             	shr    $0x9,%edx
  402f2c:	81 f7 e4 47 9c bc    	xor    $0xbc9c47e4,%edi
  402f32:	ba f6 83 cb 9b       	mov    $0x9bcb83f6,%edx
  402f37:	83 f7 a3             	xor    $0xffffffa3,%edi
  402f3a:	81 f7 f1 b0 4c 87    	xor    $0x874cb0f1,%edi
  402f40:	f7 df                	neg    %edi
  402f42:	f7 d7                	not    %edi
  402f44:	c1 d5 0b             	rcl    $0xb,%ebp
  402f47:	0f cf                	bswap  %edi
  402f49:	c1 c5 1e             	rol    $0x1e,%ebp
  402f4c:	81 ef b9 aa 36 56    	sub    $0x5636aab9,%edi
  402f52:	83 db e5             	sbb    $0xffffffe5,%ebx
  402f55:	f7 df                	neg    %edi
  402f57:	f7 d7                	not    %edi
  402f59:	f9                   	stc    
  402f5a:	4f                   	dec    %edi
  402f5b:	81 f7 6c 69 f7 22    	xor    $0x22f7696c,%edi
  402f61:	f7 d1                	not    %ecx
  402f63:	c1 cf 36             	ror    $0x36,%edi
  402f66:	0f cf                	bswap  %edi
  402f68:	83 f7 a9             	xor    $0xffffffa9,%edi
  402f6b:	d1 c7                	rol    %edi
  402f6d:	83 c8 ca             	or     $0xffffffca,%eax
  402f70:	0f cf                	bswap  %edi
  402f72:	83 f7 6d             	xor    $0x6d,%edi
  402f75:	f7 df                	neg    %edi
  402f77:	83 f7 6d             	xor    $0x6d,%edi
  402f7a:	d1 c7                	rol    %edi
  402f7c:	b9 9f ff a0 c4       	mov    $0xc4a0ff9f,%ecx
  402f81:	81 f7 e4 c5 4c 66    	xor    $0x664cc5e4,%edi
  402f87:	23 d8                	and    %eax,%ebx
  402f89:	4f                   	dec    %edi
  402f8a:	d3 e9                	shr    %cl,%ecx
  402f8c:	f7 df                	neg    %edi
  402f8e:	f7 d7                	not    %edi
  402f90:	c1 c7 f9             	rol    $0xf9,%edi
  402f93:	83 fb af             	cmp    $0xffffffaf,%ebx
  402f96:	81 f7 cc 6e 2c 53    	xor    $0x532c6ecc,%edi
  402f9c:	03 d7                	add    %edi,%edx
  402f9e:	0f cf                	bswap  %edi
  402fa0:	d1 cf                	ror    %edi
  402fa2:	f7 d5                	not    %ebp
  402fa4:	81 c7 43 b1 f2 75    	add    $0x75f2b143,%edi
  402faa:	83 ef e5             	sub    $0xffffffe5,%edi
  402fad:	83 ce 15             	or     $0x15,%esi
  402fb0:	f7 d7                	not    %edi
  402fb2:	81 ef d1 7c fc f2    	sub    $0xf2fc7cd1,%edi
  402fb8:	83 f7 1b             	xor    $0x1b,%edi
  402fbb:	be 61 c0 2d 47       	mov    $0x472dc061,%esi
  402fc0:	0f cf                	bswap  %edi
  402fc2:	d3 e0                	shl    %cl,%eax
  402fc4:	c1 c7 e7             	rol    $0xe7,%edi
  402fc7:	d1 c7                	rol    %edi
  402fc9:	d3 e0                	shl    %cl,%eax
  402fcb:	0f cf                	bswap  %edi
  402fcd:	f7 df                	neg    %edi
  402fcf:	0f ba f9 b3          	btc    $0xb3,%ecx
  402fd3:	d1 cf                	ror    %edi
  402fd5:	f7 d7                	not    %edi
  402fd7:	81 f7 84 17 cd 2e    	xor    $0x2ecd1784,%edi
  402fdd:	81 ef 3a fc db 63    	sub    $0x63dbfc3a,%edi
  402fe3:	83 e5 cf             	and    $0xffffffcf,%ebp
  402fe6:	4f                   	dec    %edi
  402fe7:	0f cf                	bswap  %edi
  402fe9:	0b cd                	or     %ebp,%ecx
  402feb:	81 f7 73 e4 cb da    	xor    $0xdacbe473,%edi
  402ff1:	f7 d7                	not    %edi
  402ff3:	f7 dd                	neg    %ebp
  402ff5:	c1 c7 c1             	rol    $0xc1,%edi
  402ff8:	0f cf                	bswap  %edi
  402ffa:	8b ef                	mov    %edi,%ebp
  402ffc:	83 ef 05             	sub    $0x5,%edi
  402fff:	83 f5 85             	xor    $0xffffff85,%ebp
  403002:	83 c5 aa             	add    $0xffffffaa,%ebp
  403005:	1b da                	sbb    %edx,%ebx
  403007:	f7 d5                	not    %ebp
  403009:	c1 ce 06             	ror    $0x6,%esi
  40300c:	4d                   	dec    %ebp
  40300d:	81 ea ba 52 1e 20    	sub    $0x201e52ba,%edx
  403013:	c1 cd ae             	ror    $0xae,%ebp
  403016:	83 f6 c0             	xor    $0xffffffc0,%esi
  403019:	0f cd                	bswap  %ebp
  40301b:	55                   	push   %ebp
  40301c:	5a                   	pop    %edx
  40301d:	f7 d8                	neg    %eax
  40301f:	83 c2 ab             	add    $0xffffffab,%edx
  403022:	83 c3 6b             	add    $0x6b,%ebx
  403025:	81 c2 38 5e e8 0f    	add    $0xfe85e38,%edx
  40302b:	0f ca                	bswap  %edx
  40302d:	f7 da                	neg    %edx
  40302f:	81 f2 c5 f3 cb a5    	xor    $0xa5cbf3c5,%edx
  403035:	f7 d2                	not    %edx
  403037:	f7 d3                	not    %ebx
  403039:	83 f2 a7             	xor    $0xffffffa7,%edx
  40303c:	03 e9                	add    %ecx,%ebp
  40303e:	f7 da                	neg    %edx
  403040:	c1 ca 40             	ror    $0x40,%edx
  403043:	81 c2 c7 28 e1 fb    	add    $0xfbe128c7,%edx
  403049:	52                   	push   %edx
  40304a:	59                   	pop    %ecx
  40304b:	41                   	inc    %ecx
  40304c:	48                   	dec    %eax
  40304d:	83 f1 9d             	xor    $0xffffff9d,%ecx
  403050:	f7 de                	neg    %esi
  403052:	c1 c9 6f             	ror    $0x6f,%ecx
  403055:	81 f1 50 56 79 63    	xor    $0x63795650,%ecx
  40305b:	83 e9 5e             	sub    $0x5e,%ecx
  40305e:	c1 c1 8d             	rol    $0x8d,%ecx
  403061:	0f c9                	bswap  %ecx
  403063:	f7 d9                	neg    %ecx
  403065:	8b ff                	mov    %edi,%edi
  403067:	41                   	inc    %ecx
  403068:	f7 d9                	neg    %ecx
  40306a:	83 f6 01             	xor    $0x1,%esi
  40306d:	83 f1 62             	xor    $0x62,%ecx
  403070:	42                   	inc    %edx
  403071:	c1 c9 37             	ror    $0x37,%ecx
  403074:	83 d8 d2             	sbb    $0xffffffd2,%eax
  403077:	81 f1 3c 25 63 d2    	xor    $0xd263253c,%ecx
  40307d:	b8 88 ff b0 a5       	mov    $0xa5b0ff88,%eax
  403082:	c1 c9 19             	ror    $0x19,%ecx
  403085:	83 f1 27             	xor    $0x27,%ecx
  403088:	4f                   	dec    %edi
  403089:	49                   	dec    %ecx
  40308a:	d1 c9                	ror    %ecx
  40308c:	f7 d9                	neg    %ecx
  40308e:	d3 da                	rcr    %cl,%edx
  403090:	83 f1 52             	xor    $0x52,%ecx
  403093:	f8                   	clc    
  403094:	0f c9                	bswap  %ecx
  403096:	c1 c9 13             	ror    $0x13,%ecx
  403099:	d3 c6                	rol    %cl,%esi
  40309b:	d1 c1                	rol    %ecx
  40309d:	0f c9                	bswap  %ecx
  40309f:	fd                   	std    
  4030a0:	d1 c9                	ror    %ecx
  4030a2:	0f ba f0 92          	btr    $0x92,%eax
  4030a6:	0f c9                	bswap  %ecx
  4030a8:	c1 e8 0b             	shr    $0xb,%eax
  4030ab:	81 f1 bd f3 25 69    	xor    $0x6925f3bd,%ecx
  4030b1:	81 e9 07 69 90 1c    	sub    $0x1c906907,%ecx
  4030b7:	d3 ee                	shr    %cl,%esi
  4030b9:	0f c9                	bswap  %ecx
  4030bb:	d1 c1                	rol    %ecx
  4030bd:	81 ca 45 3c ce b7    	or     $0xb7ce3c45,%edx
  4030c3:	83 c1 d1             	add    $0xffffffd1,%ecx
  4030c6:	f7 d0                	not    %eax
  4030c8:	83 f1 62             	xor    $0x62,%ecx
  4030cb:	2b df                	sub    %edi,%ebx
  4030cd:	41                   	inc    %ecx
  4030ce:	2b f6                	sub    %esi,%esi
  4030d0:	81 c1 2d 84 03 02    	add    $0x203842d,%ecx
  4030d6:	fd                   	std    
  4030d7:	c1 c9 c1             	ror    $0xc1,%ecx
  4030da:	bf 5a 82 b6 3c       	mov    $0x3cb6825a,%edi
  4030df:	d1 c1                	rol    %ecx
  4030e1:	8b f1                	mov    %ecx,%esi
  4030e3:	81 f6 a3 f2 20 f0    	xor    $0xf020f2a3,%esi
  4030e9:	c1 ce 6d             	ror    $0x6d,%esi
  4030ec:	81 eb e3 9c 65 f7    	sub    $0xf7659ce3,%ebx
  4030f2:	83 c6 26             	add    $0x26,%esi
  4030f5:	d3 df                	rcr    %cl,%edi
  4030f7:	4e                   	dec    %esi
  4030f8:	81 f6 10 73 aa bd    	xor    $0xbdaa7310,%esi
  4030fe:	4e                   	dec    %esi
  4030ff:	81 eb 25 51 1d df    	sub    $0xdf1d5125,%ebx
  403105:	83 f6 34             	xor    $0x34,%esi
  403108:	13 ed                	adc    %ebp,%ebp
  40310a:	46                   	inc    %esi
  40310b:	81 ee 49 e5 86 16    	sub    $0x1686e549,%esi
  403111:	81 fa 20 a2 db f1    	cmp    $0xf1dba220,%edx
  403117:	d1 c6                	rol    %esi
  403119:	c1 da 12             	rcr    $0x12,%edx
  40311c:	81 c6 d5 23 48 5f    	add    $0x5f4823d5,%esi
  403122:	0f ba fd 23          	btc    $0x23,%ebp
  403126:	0f ce                	bswap  %esi
  403128:	d1 ce                	ror    %esi
  40312a:	f7 de                	neg    %esi
  40312c:	4a                   	dec    %edx
  40312d:	81 c6 6a fc 03 7f    	add    $0x7f03fc6a,%esi
  403133:	46                   	inc    %esi
  403134:	bb cd 28 46 05       	mov    $0x54628cd,%ebx
  403139:	c1 ce 1a             	ror    $0x1a,%esi
  40313c:	81 c6 88 26 7a ce    	add    $0xce7a2688,%esi
  403142:	83 f6 f1             	xor    $0xfffffff1,%esi
  403145:	46                   	inc    %esi
  403146:	fd                   	std    
  403147:	c1 ce 28             	ror    $0x28,%esi
  40314a:	83 e9 c1             	sub    $0xffffffc1,%ecx
  40314d:	83 f6 8c             	xor    $0xffffff8c,%esi
  403150:	d3 d3                	rcl    %cl,%ebx
  403152:	0f ce                	bswap  %esi
  403154:	0b ff                	or     %edi,%edi
  403156:	81 c6 c4 f7 8c 45    	add    $0x458cf7c4,%esi
  40315c:	83 f6 89             	xor    $0xffffff89,%esi
  40315f:	0f ba ef 62          	bts    $0x62,%edi
  403163:	0f ce                	bswap  %esi
  403165:	c1 c6 5d             	rol    $0x5d,%esi
  403168:	83 f6 9d             	xor    $0xffffff9d,%esi
  40316b:	40                   	inc    %eax
  40316c:	46                   	inc    %esi
  40316d:	81 ee 01 45 82 86    	sub    $0x86824501,%esi
  403173:	bb de 19 55 36       	mov    $0x365519de,%ebx
  403178:	83 ee 00             	sub    $0x0,%esi
  40317b:	81 c6 f5 c2 e5 15    	add    $0x15e5c2f5,%esi
  403181:	81 f6 f9 00 ab 17    	xor    $0x17ab00f9,%esi
  403187:	d3 e5                	shl    %cl,%ebp
  403189:	f7 de                	neg    %esi
  40318b:	40                   	inc    %eax
  40318c:	83 f6 2d             	xor    $0x2d,%esi
  40318f:	8b ee                	mov    %esi,%ebp
  403191:	b9 89 9f 49 65       	mov    $0x65499f89,%ecx
  403196:	f7 dd                	neg    %ebp
  403198:	c1 cd 1d             	ror    $0x1d,%ebp
  40319b:	ba 65 71 58 98       	mov    $0x98587165,%edx
  4031a0:	81 ed 32 e8 dd 72    	sub    $0x72dde832,%ebp
  4031a6:	f7 dd                	neg    %ebp
  4031a8:	c1 cd e3             	ror    $0xe3,%ebp
  4031ab:	c1 ce 18             	ror    $0x18,%esi
  4031ae:	0f cd                	bswap  %ebp
  4031b0:	83 ed 9c             	sub    $0xffffff9c,%ebp
  4031b3:	d3 ca                	ror    %cl,%edx
  4031b5:	c1 cd 62             	ror    $0x62,%ebp
  4031b8:	d1 c5                	rol    %ebp
  4031ba:	f7 d5                	not    %ebp
  4031bc:	83 c5 c9             	add    $0xffffffc9,%ebp
  4031bf:	c1 c5 b0             	rol    $0xb0,%ebp
  4031c2:	4d                   	dec    %ebp
  4031c3:	d1 c5                	rol    %ebp
  4031c5:	55                   	push   %ebp
  4031c6:	5e                   	pop    %esi
  4031c7:	46                   	inc    %esi
  4031c8:	d1 ce                	ror    %esi
  4031ca:	f7 de                	neg    %esi
  4031cc:	c1 c5 1c             	rol    $0x1c,%ebp
  4031cf:	f7 d6                	not    %esi
  4031d1:	c1 e7 11             	shl    $0x11,%edi
  4031d4:	c1 c6 0b             	rol    $0xb,%esi
  4031d7:	83 f6 e6             	xor    $0xffffffe6,%esi
  4031da:	83 ee 49             	sub    $0x49,%esi
  4031dd:	c1 da 14             	rcr    $0x14,%edx
  4031e0:	0f ce                	bswap  %esi
  4031e2:	d1 ce                	ror    %esi
  4031e4:	c1 ce 9f             	ror    $0x9f,%esi
  4031e7:	81 ef 58 f4 59 0b    	sub    $0xb59f458,%edi
  4031ed:	4e                   	dec    %esi
  4031ee:	83 c6 e8             	add    $0xffffffe8,%esi
  4031f1:	46                   	inc    %esi
  4031f2:	d3 d3                	rcl    %cl,%ebx
  4031f4:	f7 d6                	not    %esi
  4031f6:	d3 d3                	rcl    %cl,%ebx
  4031f8:	4e                   	dec    %esi
  4031f9:	81 ee 8c 30 48 f2    	sub    $0xf248308c,%esi
  4031ff:	c1 ce 84             	ror    $0x84,%esi
  403202:	c1 d0 0e             	rcl    $0xe,%eax
  403205:	f7 de                	neg    %esi
  403207:	b9 6d f7 18 08       	mov    $0x818f76d,%ecx
  40320c:	81 c6 38 aa c5 03    	add    $0x3c5aa38,%esi
  403212:	0f ce                	bswap  %esi
  403214:	d3 e2                	shl    %cl,%edx
  403216:	f7 de                	neg    %esi
  403218:	25 94 5c 15 c1       	and    $0xc1155c94,%eax
  40321d:	46                   	inc    %esi
  40321e:	f7 de                	neg    %esi
  403220:	0f ce                	bswap  %esi
  403222:	f7 de                	neg    %esi
  403224:	d1 c6                	rol    %esi
  403226:	d3 c7                	rol    %cl,%edi
  403228:	81 f6 10 91 35 41    	xor    $0x41359110,%esi
  40322e:	83 cb 7a             	or     $0x7a,%ebx
  403231:	0f ce                	bswap  %esi
  403233:	83 f6 a1             	xor    $0xffffffa1,%esi
  403236:	83 c6 a5             	add    $0xffffffa5,%esi
  403239:	1b dc                	sbb    %esp,%ebx
  40323b:	c1 c6 15             	rol    $0x15,%esi
  40323e:	c1 da 1e             	rcr    $0x1e,%edx
  403241:	4e                   	dec    %esi
  403242:	0f ce                	bswap  %esi
  403244:	1b d9                	sbb    %ecx,%ebx
  403246:	4e                   	dec    %esi
  403247:	81 e9 80 ac 52 93    	sub    $0x9352ac80,%ecx
  40324d:	83 ee 96             	sub    $0xffffff96,%esi
  403250:	81 c6 64 38 94 55    	add    $0x55943864,%esi
  403256:	0f ce                	bswap  %esi
  403258:	f7 d6                	not    %esi
  40325a:	8b f9                	mov    %ecx,%edi
  40325c:	0f ce                	bswap  %esi
  40325e:	83 f6 97             	xor    $0xffffff97,%esi
  403261:	81 f6 03 2f 11 e4    	xor    $0xe4112f03,%esi
  403267:	0f ba e7 b5          	bt     $0xb5,%edi
  40326b:	4e                   	dec    %esi
  40326c:	81 d2 f1 78 16 a8    	adc    $0xa81678f1,%edx
  403272:	d1 ce                	ror    %esi
  403274:	83 ea ed             	sub    $0xffffffed,%edx
  403277:	81 f6 09 3d 24 02    	xor    $0x2243d09,%esi
  40327d:	f8                   	clc    
  40327e:	81 c6 74 65 44 a0    	add    $0xa0446574,%esi
  403284:	f8                   	clc    
  403285:	4e                   	dec    %esi
  403286:	f7 d3                	not    %ebx
  403288:	83 f6 03             	xor    $0x3,%esi
  40328b:	f7 d6                	not    %esi
  40328d:	c1 c6 ed             	rol    $0xed,%esi
  403290:	f7 d7                	not    %edi
  403292:	83 ee 5b             	sub    $0x5b,%esi
  403295:	46                   	inc    %esi
  403296:	f7 de                	neg    %esi
  403298:	83 db 12             	sbb    $0x12,%ebx
  40329b:	c1 ce 85             	ror    $0x85,%esi
  40329e:	bb 53 34 83 e3       	mov    $0xe3833453,%ebx
  4032a3:	83 ee 8b             	sub    $0xffffff8b,%esi
  4032a6:	83 f6 8f             	xor    $0xffffff8f,%esi
  4032a9:	c1 c1 04             	rol    $0x4,%ecx
  4032ac:	f7 de                	neg    %esi
  4032ae:	81 c6 f8 f5 65 ab    	add    $0xab65f5f8,%esi
  4032b4:	c1 c6 7e             	rol    $0x7e,%esi
  4032b7:	83 f6 c5             	xor    $0xffffffc5,%esi
  4032ba:	c1 c6 35             	rol    $0x35,%esi
  4032bd:	4e                   	dec    %esi
  4032be:	81 ee fe 1e a5 27    	sub    $0x27a51efe,%esi
  4032c4:	f7 d6                	not    %esi
  4032c6:	d1 c6                	rol    %esi
  4032c8:	13 d6                	adc    %esi,%edx
  4032ca:	81 f6 c0 95 a3 19    	xor    $0x19a395c0,%esi
  4032d0:	d1 ce                	ror    %esi
  4032d2:	c1 c2 0f             	rol    $0xf,%edx
  4032d5:	f7 d6                	not    %esi
  4032d7:	83 c6 75             	add    $0x75,%esi
  4032da:	0f ce                	bswap  %esi
  4032dc:	c1 cd 05             	ror    $0x5,%ebp
  4032df:	81 c6 5a 1e 5f 51    	add    $0x515f1e5a,%esi
  4032e5:	c1 c6 86             	rol    $0x86,%esi
  4032e8:	4d                   	dec    %ebp
  4032e9:	f7 de                	neg    %esi
  4032eb:	0f ce                	bswap  %esi
  4032ed:	f7 dd                	neg    %ebp
  4032ef:	83 f6 b3             	xor    $0xffffffb3,%esi
  4032f2:	42                   	inc    %edx
  4032f3:	c1 ce c2             	ror    $0xc2,%esi
  4032f6:	83 f6 bb             	xor    $0xffffffbb,%esi
  4032f9:	8b d6                	mov    %esi,%edx
  4032fb:	c1 e1 16             	shl    $0x16,%ecx
  4032fe:	d1 ca                	ror    %edx
  403300:	81 ea 5f 2e 19 44    	sub    $0x44192e5f,%edx
  403306:	bf aa 4e c3 90       	mov    $0x90c34eaa,%edi
  40330b:	c1 ca d7             	ror    $0xd7,%edx
  40330e:	d1 c2                	rol    %edx
  403310:	fd                   	std    
  403311:	f7 da                	neg    %edx
  403313:	0f ba f9 f3          	btc    $0xf3,%ecx
  403317:	d1 ca                	ror    %edx
  403319:	b9 62 e0 83 d3       	mov    $0xd383e062,%ecx
  40331e:	81 f2 58 74 19 cb    	xor    $0xcb197458,%edx
  403324:	f7 d1                	not    %ecx
  403326:	d1 c2                	rol    %edx
  403328:	d3 c5                	rol    %cl,%ebp
  40332a:	4a                   	dec    %edx
  40332b:	0f ca                	bswap  %edx
  40332d:	c1 cb 02             	ror    $0x2,%ebx
  403330:	f7 da                	neg    %edx
  403332:	c1 e5 00             	shl    $0x0,%ebp
  403335:	c1 ca 59             	ror    $0x59,%edx
  403338:	bb 13 a8 b3 c9       	mov    $0xc9b3a813,%ebx
  40333d:	42                   	inc    %edx
  40333e:	52                   	push   %edx
  40333f:	5e                   	pop    %esi
  403340:	fc                   	cld    
  403341:	d1 c6                	rol    %esi
  403343:	81 ea 5e 1d 1a 4c    	sub    $0x4c1a1d5e,%edx
  403349:	81 f6 27 aa 98 17    	xor    $0x1798aa27,%esi
  40334f:	d1 c6                	rol    %esi
  403351:	4b                   	dec    %ebx
  403352:	83 c6 00             	add    $0x0,%esi
  403355:	8b ce                	mov    %esi,%ecx
  403357:	f7 d1                	not    %ecx
  403359:	0f c9                	bswap  %ecx
  40335b:	0f ba fd 89          	btc    $0x89,%ebp
  40335f:	f7 d9                	neg    %ecx
  403361:	83 f1 de             	xor    $0xffffffde,%ecx
  403364:	0f c9                	bswap  %ecx
  403366:	83 e9 b0             	sub    $0xffffffb0,%ecx
  403369:	3d 10 b0 d1 60       	cmp    $0x60d1b010,%eax
  40336e:	d1 c1                	rol    %ecx
  403370:	83 d6 2f             	adc    $0x2f,%esi
  403373:	33 ed                	xor    %ebp,%ebp
  403375:	83 c1 fd             	add    $0xfffffffd,%ecx
  403378:	49                   	dec    %ecx
  403379:	c1 cf 19             	ror    $0x19,%edi
  40337c:	81 e9 0b 66 ee 5d    	sub    $0x5dee660b,%ecx
  403382:	0f ba e2 43          	bt     $0x43,%edx
  403386:	33 e4                	xor    %esp,%esp
  403388:	41                   	inc    %ecx
  403389:	15 43 44 5f d8       	adc    $0xd85f4443,%eax
  40338e:	81 f1 8a e4 24 f6    	xor    $0xf624e48a,%ecx
  403394:	81 c1 88 54 7b 53    	add    $0x537b5488,%ecx
  40339a:	f7 d0                	not    %eax
  40339c:	81 f1 c8 bc ff a9    	xor    $0xa9ffbcc8,%ecx
  4033a2:	0f ba ee 22          	bts    $0x22,%esi
  4033a6:	81 c1 72 57 fa e6    	add    $0xe6fa5772,%ecx
  4033ac:	2b c1                	sub    %ecx,%eax
  4033ae:	f7 d9                	neg    %ecx
  4033b0:	c1 c1 26             	rol    $0x26,%ecx
  4033b3:	f7 d9                	neg    %ecx
  4033b5:	0f ba ef 14          	bts    $0x14,%edi
  4033b9:	83 f1 d6             	xor    $0xffffffd6,%ecx
  4033bc:	83 c2 af             	add    $0xffffffaf,%edx
  4033bf:	0f c9                	bswap  %ecx
  4033c1:	f7 d1                	not    %ecx
  4033c3:	d1 c1                	rol    %ecx
  4033c5:	c1 e6 11             	shl    $0x11,%esi
  4033c8:	c1 c1 89             	rol    $0x89,%ecx
  4033cb:	83 f1 af             	xor    $0xffffffaf,%ecx
  4033ce:	98                   	cwtl   
  4033cf:	f7 d9                	neg    %ecx
  4033d1:	f7 d1                	not    %ecx
  4033d3:	c1 c1 58             	rol    $0x58,%ecx
  4033d6:	83 f1 a6             	xor    $0xffffffa6,%ecx
  4033d9:	0f c9                	bswap  %ecx
  4033db:	f7 d0                	not    %eax
  4033dd:	81 f1 f4 56 49 ef    	xor    $0xef4956f4,%ecx
  4033e3:	1b f3                	sbb    %ebx,%esi
  4033e5:	c1 c1 93             	rol    $0x93,%ecx
  4033e8:	23 c4                	and    %esp,%eax
  4033ea:	83 f1 19             	xor    $0x19,%ecx
  4033ed:	0f c9                	bswap  %ecx
  4033ef:	83 f1 d2             	xor    $0xffffffd2,%ecx
  4033f2:	83 e9 72             	sub    $0x72,%ecx
  4033f5:	f7 d2                	not    %edx
  4033f7:	83 f1 d1             	xor    $0xffffffd1,%ecx
  4033fa:	81 ce 83 58 7b e6    	or     $0xe67b5883,%esi
  403400:	0f c9                	bswap  %ecx
  403402:	81 e7 c4 aa 5c c5    	and    $0xc55caac4,%edi
  403408:	c1 c1 1b             	rol    $0x1b,%ecx
  40340b:	f7 d1                	not    %ecx
  40340d:	c1 c8 1b             	ror    $0x1b,%eax
  403410:	81 e9 24 d9 47 a9    	sub    $0xa947d924,%ecx
  403416:	f9                   	stc    
  403417:	0f c9                	bswap  %ecx
  403419:	81 e7 b3 56 76 e1    	and    $0xe17656b3,%edi
  40341f:	81 f1 98 06 28 4c    	xor    $0x4c280698,%ecx
  403425:	81 ef 36 16 a4 34    	sub    $0x34a41636,%edi
  40342b:	83 e9 1a             	sub    $0x1a,%ecx
  40342e:	33 e4                	xor    %esp,%esp
  403430:	d3 d7                	rcl    %cl,%edi
  403432:	c1 c1 40             	rol    $0x40,%ecx
  403435:	0f c9                	bswap  %ecx
  403437:	0b f1                	or     %ecx,%esi
  403439:	03 25 80 43 41 00    	add    0x414380,%esp
  40343f:	23 f1                	and    %ecx,%esi
  403441:	13 ff                	adc    %edi,%edi
  403443:	c1 cf 1e             	ror    $0x1e,%edi
  403446:	83 c6 97             	add    $0xffffff97,%esi
  403449:	f7 d6                	not    %esi
  40344b:	f7 d7                	not    %edi
  40344d:	f7 d6                	not    %esi
  40344f:	41                   	inc    %ecx
  403450:	d1 ce                	ror    %esi
  403452:	83 e3 a0             	and    $0xffffffa0,%ebx
  403455:	f7 de                	neg    %esi
  403457:	83 f6 e2             	xor    $0xffffffe2,%esi
  40345a:	8b c6                	mov    %esi,%eax
  40345c:	61                   	popa   
  40345d:	f7 d8                	neg    %eax
  40345f:	35 40 2a e2 d0       	xor    $0xd0e22a40,%eax
  403464:	c1 c8 fb             	ror    $0xfb,%eax
  403467:	2d 0d 60 e2 54       	sub    $0x54e2600d,%eax
  40346c:	05 b4 ac 4a c7       	add    $0xc74aacb4,%eax
  403471:	f7 d0                	not    %eax
  403473:	b8 3d cb 96 b7       	mov    $0xb796cb3d,%eax
  403478:	d1 c0                	rol    %eax
  40347a:	83 e8 16             	sub    $0x16,%eax
  40347d:	0f ba f0 1d          	btr    $0x1d,%eax
  403481:	05 3a d0 58 26       	add    $0x2658d03a,%eax
  403486:	c1 e0 17             	shl    $0x17,%eax
  403489:	0f c8                	bswap  %eax
  40348b:	c1 c8 50             	ror    $0x50,%eax
  40348e:	23 c4                	and    %esp,%eax
  403490:	35 3e c1 1d 8d       	xor    $0x8d1dc13e,%eax
  403495:	2d bc 03 6b dc       	sub    $0xdc6b03bc,%eax
  40349a:	d1 c8                	ror    %eax
  40349c:	2d 5d 06 0a fb       	sub    $0xfb0a065d,%eax
  4034a1:	23 c0                	and    %eax,%eax
  4034a3:	0f c8                	bswap  %eax
  4034a5:	c1 e8 09             	shr    $0x9,%eax
  4034a8:	f7 d8                	neg    %eax
  4034aa:	60                   	pusha  
  4034ab:	89 25 80 43 41 00    	mov    %esp,0x414380
  4034b1:	b8 e2 ff ff ff       	mov    $0xffffffe2,%eax
  4034b6:	f7 d8                	neg    %eax
  4034b8:	0f c8                	bswap  %eax
  4034ba:	83 f0 8d             	xor    $0xffffff8d,%eax
  4034bd:	0f c8                	bswap  %eax
  4034bf:	81 ec 00 10 00 00    	sub    $0x1000,%esp
  4034c5:	50                   	push   %eax
  4034c6:	5d                   	pop    %ebp
  4034c7:	83 f5 b8             	xor    $0xffffffb8,%ebp
  4034ca:	81 ed f8 a4 b6 8e    	sub    $0x8eb6a4f8,%ebp
  4034d0:	83 f5 37             	xor    $0x37,%ebp
  4034d3:	c1 db 1d             	rcr    $0x1d,%ebx
  4034d6:	81 c5 b9 45 2b 38    	add    $0x382b45b9,%ebp
  4034dc:	d3 da                	rcr    %cl,%edx
  4034de:	83 ed 92             	sub    $0xffffff92,%ebp
  4034e1:	0b cc                	or     %esp,%ecx
  4034e3:	4d                   	dec    %ebp
  4034e4:	f8                   	clc    
  4034e5:	83 f5 07             	xor    $0x7,%ebp
  4034e8:	f7 d3                	not    %ebx
  4034ea:	d1 c5                	rol    %ebp
  4034ec:	f7 d9                	neg    %ecx
  4034ee:	83 f5 28             	xor    $0x28,%ebp
  4034f1:	83 ed 39             	sub    $0x39,%ebp
  4034f4:	81 f5 8a 46 8d 55    	xor    $0x558d468a,%ebp
  4034fa:	4d                   	dec    %ebp
  4034fb:	f7 d5                	not    %ebp
  4034fd:	be 43 19 1a fd       	mov    $0xfd1a1943,%esi
  403502:	d1 cd                	ror    %ebp
  403504:	83 c5 10             	add    $0x10,%ebp
  403507:	9f                   	lahf   
  403508:	81 c5 d0 00 a2 f6    	add    $0xf6a200d0,%ebp
  40350e:	0f cd                	bswap  %ebp
  403510:	81 f5 46 cb f5 bf    	xor    $0xbff5cb46,%ebp
  403516:	4d                   	dec    %ebp
  403517:	f7 dd                	neg    %ebp
  403519:	1b f0                	sbb    %eax,%esi
  40351b:	f7 d5                	not    %ebp
  40351d:	83 c9 dd             	or     $0xffffffdd,%ecx
  403520:	0f cd                	bswap  %ebp
  403522:	f7 de                	neg    %esi
  403524:	83 ed a3             	sub    $0xffffffa3,%ebp
  403527:	f7 d5                	not    %ebp
  403529:	83 e3 48             	and    $0x48,%ebx
  40352c:	83 c5 47             	add    $0x47,%ebp
  40352f:	4d                   	dec    %ebp
  403530:	0f cd                	bswap  %ebp
  403532:	83 da 5b             	sbb    $0x5b,%edx
  403535:	81 ed ca 0b 7a 43    	sub    $0x437a0bca,%ebp
  40353b:	d1 c5                	rol    %ebp
  40353d:	f7 dd                	neg    %ebp
  40353f:	c1 ea 1c             	shr    $0x1c,%edx
  403542:	c1 c5 0c             	rol    $0xc,%ebp
  403545:	f7 dd                	neg    %ebp
  403547:	c1 c5 4d             	rol    $0x4d,%ebp
  40354a:	81 c5 b4 ac 4a c7    	add    $0xc74aacb4,%ebp
  403550:	fd                   	std    
  403551:	f7 d5                	not    %ebp
  403553:	bb 3d cb 96 b7       	mov    $0xb796cb3d,%ebx
  403558:	d1 c5                	rol    %ebp
  40355a:	83 ed 16             	sub    $0x16,%ebp
  40355d:	0f ba f7 1d          	btr    $0x1d,%edi
  403561:	81 c5 3a d0 58 26    	add    $0x2658d03a,%ebp
  403567:	c1 e1 17             	shl    $0x17,%ecx
  40356a:	0f cd                	bswap  %ebp
  40356c:	d3 fe                	sar    %cl,%esi
  40356e:	c1 cd 50             	ror    $0x50,%ebp
  403571:	23 f4                	and    %esp,%esi
  403573:	81 f5 3e c1 1d 8d    	xor    $0x8d1dc13e,%ebp
  403579:	81 e9 bc 03 6b dc    	sub    $0xdc6b03bc,%ecx
  40357f:	d1 cd                	ror    %ebp
  403581:	81 ed 5d 06 0a fb    	sub    $0xfb0a065d,%ebp
  403587:	23 c2                	and    %edx,%eax
  403589:	0f cd                	bswap  %ebp
  40358b:	c1 eb 09             	shr    $0x9,%ebx
  40358e:	f7 dd                	neg    %ebp
  403590:	f7 d1                	not    %ecx
  403592:	81 c5 e3 75 97 4b    	add    $0x4b9775e3,%ebp
  403598:	49                   	dec    %ecx
  403599:	83 f5 41             	xor    $0x41,%ebp
  40359c:	0f ba f1 d5          	btr    $0xd5,%ecx
  4035a0:	0f cd                	bswap  %ebp
  4035a2:	40                   	inc    %eax
  4035a3:	c1 cd 16             	ror    $0x16,%ebp
  4035a6:	f7 da                	neg    %edx
  4035a8:	83 f5 04             	xor    $0x4,%ebp
  4035ab:	45                   	inc    %ebp
  4035ac:	83 f5 b9             	xor    $0xffffffb9,%ebp
  4035af:	f7 d5                	not    %ebp
  4035b1:	8b cb                	mov    %ebx,%ecx
  4035b3:	c1 cd 76             	ror    $0x76,%ebp
  4035b6:	f7 d5                	not    %ebp
  4035b8:	c1 eb 1b             	shr    $0x1b,%ebx
  4035bb:	83 f5 c2             	xor    $0xffffffc2,%ebp
  4035be:	81 c5 da 1f ea 03    	add    $0x3ea1fda,%ebp
  4035c4:	45                   	inc    %ebp
  4035c5:	83 f3 9d             	xor    $0xffffff9d,%ebx
  4035c8:	81 f5 3e 7e 8a 35    	xor    $0x358a7e3e,%ebp
  4035ce:	0b f9                	or     %ecx,%edi
  4035d0:	81 c5 8c 69 9c 5a    	add    $0x5a9c698c,%ebp
  4035d6:	42                   	inc    %edx
  4035d7:	83 f5 a3             	xor    $0xffffffa3,%ebp
  4035da:	83 c9 8b             	or     $0xffffff8b,%ecx
  4035dd:	c1 c5 76             	rol    $0x76,%ebp
  4035e0:	83 f5 b4             	xor    $0xffffffb4,%ebp
  4035e3:	bf c7 34 80 2e       	mov    $0x2e8034c7,%edi
  4035e8:	f7 d5                	not    %ebp
  4035ea:	47                   	inc    %edi
  4035eb:	f7 dd                	neg    %ebp
  4035ed:	f7 db                	neg    %ebx
  4035ef:	83 c5 e8             	add    $0xffffffe8,%ebp
  4035f2:	f8                   	clc    
  4035f3:	0f cd                	bswap  %ebp
  4035f5:	45                   	inc    %ebp
  4035f6:	d3 fe                	sar    %cl,%esi
  4035f8:	81 f5 3e e7 0d 8b    	xor    $0x8b0de73e,%ebp
  4035fe:	b9 f1 a6 b7 e3       	mov    $0xe3b7a6f1,%ecx
  403603:	0f cd                	bswap  %ebp
  403605:	83 df c3             	sbb    $0xffffffc3,%edi
  403608:	f7 d5                	not    %ebp
  40360a:	d1 c5                	rol    %ebp
  40360c:	43                   	inc    %ebx
  40360d:	f7 d5                	not    %ebp
  40360f:	f9                   	stc    
  403610:	81 f5 f4 23 8c b4    	xor    $0xb48c23f4,%ebp
  403616:	0f ba e0 3b          	bt     $0x3b,%eax
  40361a:	d1 cd                	ror    %ebp
  40361c:	c1 cd 23             	ror    $0x23,%ebp
  40361f:	83 f5 0a             	xor    $0xa,%ebp
  403622:	81 c5 46 45 d5 47    	add    $0x47d54546,%ebp
  403628:	81 f5 86 32 9e bf    	xor    $0xbf9e3286,%ebp
  40362e:	f7 dd                	neg    %ebp
  403630:	c1 ff 04             	sar    $0x4,%edi
  403633:	83 c5 b2             	add    $0xffffffb2,%ebp
  403636:	f7 d5                	not    %ebp
  403638:	c1 cd f8             	ror    $0xf8,%ebp
  40363b:	d1 c5                	rol    %ebp
  40363d:	f8                   	clc    
  40363e:	81 f5 3f 5c 5b ff    	xor    $0xff5b5c3f,%ebp
  403644:	0f ba ee 7b          	bts    $0x7b,%esi
  403648:	83 f5 76             	xor    $0x76,%ebp
  40364b:	c1 c5 b7             	rol    $0xb7,%ebp
  40364e:	0f cd                	bswap  %ebp
  403650:	f7 d1                	not    %ecx
  403652:	f7 d5                	not    %ebp
  403654:	83 f5 cf             	xor    $0xffffffcf,%ebp
  403657:	4e                   	dec    %esi
  403658:	81 f5 ed e5 e6 9d    	xor    $0x9de6e5ed,%ebp
  40365e:	d3 d0                	rcl    %cl,%eax
  403660:	f7 dd                	neg    %ebp
  403662:	25 3d dc d1 af       	and    $0xafd1dc3d,%eax
  403667:	4d                   	dec    %ebp
  403668:	83 df 24             	sbb    $0x24,%edi
  40366b:	81 f5 21 d6 57 bb    	xor    $0xbb57d621,%ebp
  403671:	4d                   	dec    %ebp
  403672:	0f cd                	bswap  %ebp
  403674:	d1 cd                	ror    %ebp
  403676:	48                   	dec    %eax
  403677:	83 f5 bf             	xor    $0xffffffbf,%ebp
  40367a:	81 c9 d0 12 17 8e    	or     $0x8e1712d0,%ecx
  403680:	81 f5 07 df 77 3b    	xor    $0x3b77df07,%ebp
  403686:	81 e3 18 d6 ed 9e    	and    $0x9eedd618,%ebx
  40368c:	c1 c5 00             	rol    $0x0,%ebp
  40368f:	f7 d5                	not    %ebp
  403691:	81 ed ef ee e2 54    	sub    $0x54e2eeef,%ebp
  403697:	0f cd                	bswap  %ebp
  403699:	81 ce 1a 9d b6 5a    	or     $0x5ab69d1a,%esi
  40369f:	d1 cd                	ror    %ebp
  4036a1:	1b c7                	sbb    %edi,%eax
  4036a3:	81 f5 5c de 83 89    	xor    $0x8983de5c,%ebp
  4036a9:	f7 d5                	not    %ebp
  4036ab:	f7 dd                	neg    %ebp
  4036ad:	0f ba e2 15          	bt     $0x15,%edx
  4036b1:	81 f5 cb 23 41 e0    	xor    $0xe04123cb,%ebp
  4036b7:	f7 d7                	not    %edi
  4036b9:	83 ed f2             	sub    $0xfffffff2,%ebp
  4036bc:	81 f5 b9 6f 0b 0f    	xor    $0xf0b6fb9,%ebp
  4036c2:	4d                   	dec    %ebp
  4036c3:	81 c5 bd 6f 50 54    	add    $0x54506fbd,%ebp
  4036c9:	f7 dd                	neg    %ebp
  4036cb:	0f cd                	bswap  %ebp
  4036cd:	25 94 8f f5 f6       	and    $0xf6f58f94,%eax
  4036d2:	4d                   	dec    %ebp
  4036d3:	83 f5 08             	xor    $0x8,%ebp
  4036d6:	47                   	inc    %edi
  4036d7:	0f cd                	bswap  %ebp
  4036d9:	d1 cd                	ror    %ebp
  4036db:	83 f5 5f             	xor    $0x5f,%ebp
  4036de:	bb f1 5d 5d 26       	mov    $0x265d5df1,%ebx
  4036e3:	81 ed f4 02 38 4a    	sub    $0x4a3802f4,%ebp
  4036e9:	81 f5 96 99 74 d8    	xor    $0xd8749996,%ebp
  4036ef:	55                   	push   %ebp
  4036f0:	5f                   	pop    %edi
  4036f1:	83 ef 6e             	sub    $0x6e,%edi
  4036f4:	4f                   	dec    %edi
  4036f5:	f7 d8                	neg    %eax
  4036f7:	f7 d7                	not    %edi
  4036f9:	f7 db                	neg    %ebx
  4036fb:	83 f7 5f             	xor    $0x5f,%edi
  4036fe:	81 ef e1 56 77 2e    	sub    $0x2e7756e1,%edi
  403704:	83 c7 fb             	add    $0xfffffffb,%edi
  403707:	81 ef ad aa d2 e1    	sub    $0xe1d2aaad,%edi
  40370d:	f7 d7                	not    %edi
  40370f:	81 c7 19 26 0c ca    	add    $0xca0c2619,%edi
  403715:	d1 cf                	ror    %edi
  403717:	f7 d7                	not    %edi
  403719:	0b df                	or     %edi,%ebx
  40371b:	23 df                	and    %edi,%ebx
  40371d:	43                   	inc    %ebx
  40371e:	d3 e6                	shl    %cl,%esi
  403720:	f7 db                	neg    %ebx
  403722:	4b                   	dec    %ebx
  403723:	83 de 51             	sbb    $0x51,%esi
  403726:	83 f3 96             	xor    $0xffffff96,%ebx
  403729:	c1 c3 d0             	rol    $0xd0,%ebx
  40372c:	0f ba f2 c9          	btr    $0xc9,%edx
  403730:	81 f3 cb 5d 99 5e    	xor    $0x5e995dcb,%ebx
  403736:	f7 df                	neg    %edi
  403738:	83 eb 30             	sub    $0x30,%ebx
  40373b:	1b c4                	sbb    %esp,%eax
  40373d:	4b                   	dec    %ebx
  40373e:	13 d4                	adc    %esp,%edx
  403740:	f7 d3                	not    %ebx
  403742:	81 f3 ee 3c 36 db    	xor    $0xdb363cee,%ebx
  403748:	0f cb                	bswap  %ebx
  40374a:	d3 de                	rcr    %cl,%esi
  40374c:	81 f3 ed 26 b9 53    	xor    $0x53b926ed,%ebx
  403752:	2b f6                	sub    %esi,%esi
  403754:	c1 cb e5             	ror    $0xe5,%ebx
  403757:	f8                   	clc    
  403758:	d1 c3                	rol    %ebx
  40375a:	f7 d3                	not    %ebx
  40375c:	43                   	inc    %ebx
  40375d:	13 ff                	adc    %edi,%edi
  40375f:	83 f3 18             	xor    $0x18,%ebx
  403762:	f7 d3                	not    %ebx
  403764:	83 ef 28             	sub    $0x28,%edi
  403767:	f7 db                	neg    %ebx
  403769:	83 f3 27             	xor    $0x27,%ebx
  40376c:	bf 08 84 83 50       	mov    $0x50838408,%edi
  403771:	4b                   	dec    %ebx
  403772:	81 f3 e5 3c 87 cf    	xor    $0xcf873ce5,%ebx
  403778:	f9                   	stc    
  403779:	83 f3 75             	xor    $0x75,%ebx
  40377c:	2f                   	das    
  40377d:	c1 c3 b5             	rol    $0xb5,%ebx
  403780:	81 c3 9c d3 94 ed    	add    $0xed94d39c,%ebx
  403786:	83 f3 3c             	xor    $0x3c,%ebx
  403789:	83 c3 21             	add    $0x21,%ebx
  40378c:	f7 d6                	not    %esi
  40378e:	83 f3 09             	xor    $0x9,%ebx
  403791:	3f                   	aas    
  403792:	81 f3 da 9d 96 ec    	xor    $0xec969dda,%ebx
  403798:	81 eb 26 34 87 64    	sub    $0x64873426,%ebx
  40379e:	d1 c3                	rol    %ebx
  4037a0:	c1 cb b5             	ror    $0xb5,%ebx
  4037a3:	0f ba f8 93          	btc    $0x93,%eax
  4037a7:	81 f3 60 40 17 94    	xor    $0x94174060,%ebx
  4037ad:	83 e0 a4             	and    $0xffffffa4,%eax
  4037b0:	83 c3 65             	add    $0x65,%ebx
  4037b3:	0f cb                	bswap  %ebx
  4037b5:	d1 c3                	rol    %ebx
  4037b7:	83 ea bc             	sub    $0xffffffbc,%edx
  4037ba:	81 eb d5 b7 da c5    	sub    $0xc5dab7d5,%ebx
  4037c0:	83 f3 c7             	xor    $0xffffffc7,%ebx
  4037c3:	b8 09 79 4d 46       	mov    $0x464d7909,%eax
  4037c8:	f7 d3                	not    %ebx
  4037ca:	c1 cb 31             	ror    $0x31,%ebx
  4037cd:	d1 cb                	ror    %ebx
  4037cf:	0f cb                	bswap  %ebx
  4037d1:	4e                   	dec    %esi
  4037d2:	c1 cb 37             	ror    $0x37,%ebx
  4037d5:	83 f3 96             	xor    $0xffffff96,%ebx
  4037d8:	4b                   	dec    %ebx
  4037d9:	d1 cb                	ror    %ebx
  4037db:	be 39 c5 b9 89       	mov    $0x89b9c539,%esi
  4037e0:	43                   	inc    %ebx
  4037e1:	d1 cb                	ror    %ebx
  4037e3:	f7 d3                	not    %ebx
  4037e5:	d1 cb                	ror    %ebx
  4037e7:	43                   	inc    %ebx
  4037e8:	83 f3 e5             	xor    $0xffffffe5,%ebx
  4037eb:	81 c3 cc 40 47 87    	add    $0x874740cc,%ebx
  4037f1:	f8                   	clc    
  4037f2:	43                   	inc    %ebx
  4037f3:	c1 c3 7b             	rol    $0x7b,%ebx
  4037f6:	0f cb                	bswap  %ebx
  4037f8:	83 c3 ab             	add    $0xffffffab,%ebx
  4037fb:	0f cb                	bswap  %ebx
  4037fd:	c1 c6 05             	rol    $0x5,%esi
  403800:	83 eb f5             	sub    $0xfffffff5,%ebx
  403803:	83 f3 31             	xor    $0x31,%ebx
  403806:	c1 cb 7f             	ror    $0x7f,%ebx
  403809:	d3 df                	rcr    %cl,%edi
  40380b:	f7 db                	neg    %ebx
  40380d:	81 c3 e2 7e 43 2b    	add    $0x2b437ee2,%ebx
  403813:	f7 d5                	not    %ebp
  403815:	4b                   	dec    %ebx
  403816:	81 da fb f2 c6 5c    	sbb    $0x5cc6f2fb,%edx
  40381c:	81 f3 f0 8c eb 3c    	xor    $0x3ceb8cf0,%ebx
  403822:	c1 c3 3a             	rol    $0x3a,%ebx
  403825:	53                   	push   %ebx
  403826:	58                   	pop    %eax
  403827:	35 dd a8 83 11       	xor    $0x1183a8dd,%eax
  40382c:	50                   	push   %eax
  40382d:	5b                   	pop    %ebx
  40382e:	f7 d3                	not    %ebx
  403830:	48                   	dec    %eax
  403831:	c1 cb 10             	ror    $0x10,%ebx
  403834:	d3 e9                	shr    %cl,%ecx
  403836:	0f cb                	bswap  %ebx
  403838:	81 e7 8b 46 eb 33    	and    $0x33eb468b,%edi
  40383e:	83 c3 7e             	add    $0x7e,%ebx
  403841:	83 f3 dc             	xor    $0xffffffdc,%ebx
  403844:	23 f2                	and    %edx,%esi
  403846:	c1 c3 bc             	rol    $0xbc,%ebx
  403849:	0f cb                	bswap  %ebx
  40384b:	d1 c3                	rol    %ebx
  40384d:	0f ba e9 70          	bts    $0x70,%ecx
  403851:	c1 cb 91             	ror    $0x91,%ebx
  403854:	0b c3                	or     %ebx,%eax
  403856:	23 c3                	and    %ebx,%eax
  403858:	f7 db                	neg    %ebx
  40385a:	0f c8                	bswap  %eax
  40385c:	f7 d8                	neg    %eax
  40385e:	c1 c0 f6             	rol    $0xf6,%eax
  403861:	d3 e3                	shl    %cl,%ebx
  403863:	48                   	dec    %eax
  403864:	d3 fd                	sar    %cl,%ebp
  403866:	83 f0 54             	xor    $0x54,%eax
  403869:	f7 d1                	not    %ecx
  40386b:	d1 c0                	rol    %eax
  40386d:	81 e2 7a 28 7f 92    	and    $0x927f287a,%edx
  403873:	f7 d8                	neg    %eax
  403875:	35 40 2a e2 d0       	xor    $0xd0e22a40,%eax
  40387a:	c1 c8 fb             	ror    $0xfb,%eax
  40387d:	2d 0d 60 e2 54       	sub    $0x54e2600d,%eax
  403882:	f7 d8                	neg    %eax
  403884:	49                   	dec    %ecx
  403885:	d1 c0                	rol    %eax
  403887:	83 f0 a5             	xor    $0xffffffa5,%eax
  40388a:	0f ba e3 08          	bt     $0x8,%ebx
  40388e:	40                   	inc    %eax
  40388f:	2d 09 e9 f7 f6       	sub    $0xf6f7e909,%eax
  403894:	d1 c8                	ror    %eax
  403896:	c1 c0 e8             	rol    $0xe8,%eax
  403899:	c1 c1 0e             	rol    $0xe,%ecx
  40389c:	05 ec 42 8a f4       	add    $0xf48a42ec,%eax
  4038a1:	f7 d8                	neg    %eax
  4038a3:	f9                   	stc    
  4038a4:	83 f0 44             	xor    $0x44,%eax
  4038a7:	c1 c5 1a             	rol    $0x1a,%ebp
  4038aa:	d1 c0                	rol    %eax
  4038ac:	81 fb 31 d6 64 8c    	cmp    $0x8c64d631,%ebx
  4038b2:	f7 d8                	neg    %eax
  4038b4:	83 f0 6e             	xor    $0x6e,%eax
  4038b7:	0f c8                	bswap  %eax
  4038b9:	ba 94 8e 21 93       	mov    $0x93218e94,%edx
  4038be:	f7 d8                	neg    %eax
  4038c0:	05 7e 0e 4d 96       	add    $0x964d0e7e,%eax
  4038c5:	c1 da 1d             	rcr    $0x1d,%edx
  4038c8:	83 c0 d7             	add    $0xffffffd7,%eax
  4038cb:	35 92 8a 7d 96       	xor    $0x967d8a92,%eax
  4038d0:	fd                   	std    
  4038d1:	2d b4 97 f5 a0       	sub    $0xa0f597b4,%eax
  4038d6:	d1 c0                	rol    %eax
  4038d8:	c1 c8 79             	ror    $0x79,%eax
  4038db:	13 f3                	adc    %ebx,%esi
  4038dd:	83 c0 37             	add    $0x37,%eax
  4038e0:	2d cf 3f 4a 73       	sub    $0x734a3fcf,%eax
  4038e5:	35 e0 19 12 e3       	xor    $0xe31219e0,%eax
  4038ea:	40                   	inc    %eax
  4038eb:	41                   	inc    %ecx
  4038ec:	f7 d8                	neg    %eax
  4038ee:	d1 c0                	rol    %eax
  4038f0:	c1 c8 fe             	ror    $0xfe,%eax
  4038f3:	1b fd                	sbb    %ebp,%edi
  4038f5:	40                   	inc    %eax
  4038f6:	33 f6                	xor    %esi,%esi
  4038f8:	f7 d8                	neg    %eax
  4038fa:	83 fd 49             	cmp    $0x49,%ebp
  4038fd:	d1 c0                	rol    %eax
  4038ff:	f8                   	clc    
  403900:	83 e8 98             	sub    $0xffffff98,%eax
  403903:	40                   	inc    %eax
  403904:	d3 c1                	rol    %cl,%ecx
  403906:	35 4d bd 31 0f       	xor    $0xf31bd4d,%eax
  40390b:	d3 e3                	shl    %cl,%ebx
  40390d:	05 90 a8 15 7d       	add    $0x7d15a890,%eax
  403912:	f7 d6                	not    %esi
  403914:	f7 d8                	neg    %eax
  403916:	0f ba f5 af          	btr    $0xaf,%ebp
  40391a:	f7 d0                	not    %eax
  40391c:	f7 d6                	not    %esi
  40391e:	0f c8                	bswap  %eax
  403920:	bf f6 d3 09 21       	mov    $0x2109d3f6,%edi
  403925:	83 f0 b2             	xor    $0xffffffb2,%eax
  403928:	c1 ea 10             	shr    $0x10,%edx
  40392b:	f7 d8                	neg    %eax
  40392d:	c1 c0 5f             	rol    $0x5f,%eax
  403930:	f7 d0                	not    %eax
  403932:	d1 c8                	ror    %eax
  403934:	bd 77 8d 30 12       	mov    $0x12308d77,%ebp
  403939:	c1 c0 3b             	rol    $0x3b,%eax
  40393c:	2d 6d 1b c2 71       	sub    $0x71c21b6d,%eax
  403941:	f7 d0                	not    %eax
  403943:	4a                   	dec    %edx
  403944:	83 c0 b7             	add    $0xffffffb7,%eax
  403947:	f7 d0                	not    %eax
  403949:	f7 d8                	neg    %eax
  40394b:	f7 d3                	not    %ebx
  40394d:	0f c8                	bswap  %eax
  40394f:	c1 de 1c             	rcr    $0x1c,%esi
  403952:	c1 c8 11             	ror    $0x11,%eax
  403955:	03 de                	add    %esi,%ebx
  403957:	0f c8                	bswap  %eax
  403959:	d1 c0                	rol    %eax
  40395b:	c1 c0 9a             	rol    $0x9a,%eax
  40395e:	81 db 1e 44 cf 13    	sbb    $0x13cf441e,%ebx
  403964:	0f c8                	bswap  %eax
  403966:	41                   	inc    %ecx
  403967:	f7 d0                	not    %eax
  403969:	d1 c0                	rol    %eax
  40396b:	4f                   	dec    %edi
  40396c:	f7 d8                	neg    %eax
  40396e:	43                   	inc    %ebx
  40396f:	35 8a 9a 87 cc       	xor    $0xcc879a8a,%eax
  403974:	33 ce                	xor    %esi,%ecx
  403976:	0f c8                	bswap  %eax
  403978:	f8                   	clc    
  403979:	40                   	inc    %eax
  40397a:	0f ba f7 bd          	btr    $0xbd,%edi
  40397e:	83 f0 26             	xor    $0x26,%eax
  403981:	35 72 d2 be ef       	xor    $0xefbed272,%eax
  403986:	0f c8                	bswap  %eax
  403988:	2d 5f 69 0a 31       	sub    $0x310a695f,%eax
  40398d:	d1 c0                	rol    %eax
  40398f:	b9 af 4d a5 16       	mov    $0x16a54daf,%ecx
  403994:	c1 c8 34             	ror    $0x34,%eax
  403997:	43                   	inc    %ebx
  403998:	35 7a 9f 36 47       	xor    $0x47369f7a,%eax
  40399d:	43                   	inc    %ebx
  40399e:	c1 c0 9d             	rol    $0x9d,%eax
  4039a1:	40                   	inc    %eax
  4039a2:	2d ef ec 04 5c       	sub    $0x5c04ecef,%eax
  4039a7:	83 e8 05             	sub    $0x5,%eax
  4039aa:	be f1 d8 fd df       	mov    $0xdffdd8f1,%esi
  4039af:	05 48 a0 b3 c0       	add    $0xc0b3a048,%eax
  4039b4:	f7 d8                	neg    %eax
  4039b6:	0b f9                	or     %ecx,%edi
  4039b8:	f7 d0                	not    %eax
  4039ba:	f9                   	stc    
  4039bb:	c1 c8 7c             	ror    $0x7c,%eax
  4039be:	83 c0 2b             	add    $0x2b,%eax
  4039c1:	bd 36 56 f4 84       	mov    $0x84f45636,%ebp
  4039c6:	f7 d0                	not    %eax
  4039c8:	d3 da                	rcr    %cl,%edx
  4039ca:	40                   	inc    %eax
  4039cb:	f7 d8                	neg    %eax
  4039cd:	d3 cd                	ror    %cl,%ebp
  4039cf:	48                   	dec    %eax
  4039d0:	0f c8                	bswap  %eax
  4039d2:	81 c2 6f 18 f9 ef    	add    $0xeff9186f,%edx
  4039d8:	35 a0 95 e7 c8       	xor    $0xc8e795a0,%eax
  4039dd:	c1 cf 1f             	ror    $0x1f,%edi
  4039e0:	d1 c8                	ror    %eax
  4039e2:	0f ba fd 48          	btc    $0x48,%ebp
  4039e6:	35 ee fa 42 b0       	xor    $0xb042faee,%eax
  4039eb:	42                   	inc    %edx
  4039ec:	f7 d8                	neg    %eax
  4039ee:	f7 d6                	not    %esi
  4039f0:	48                   	dec    %eax
  4039f1:	c1 e9 04             	shr    $0x4,%ecx
  4039f4:	83 f0 db             	xor    $0xffffffdb,%eax
  4039f7:	f7 d0                	not    %eax
  4039f9:	d1 c0                	rol    %eax
  4039fb:	83 e8 02             	sub    $0x2,%eax
  4039fe:	2d c1 44 90 6e       	sub    $0x6e9044c1,%eax
  403a03:	f7 d0                	not    %eax
  403a05:	f7 d8                	neg    %eax
  403a07:	40                   	inc    %eax
  403a08:	d1 c8                	ror    %eax
  403a0a:	f7 d0                	not    %eax
  403a0c:	83 f0 c6             	xor    $0xffffffc6,%eax
  403a0f:	d1 c0                	rol    %eax
  403a11:	83 c0 86             	add    $0xffffff86,%eax
  403a14:	d3 c2                	rol    %cl,%edx
  403a16:	35 c5 0d d0 41       	xor    $0x41d00dc5,%eax
  403a1b:	05 07 ae a3 5d       	add    $0x5da3ae07,%eax
  403a20:	c1 c8 dc             	ror    $0xdc,%eax
  403a23:	d1 c8                	ror    %eax
  403a25:	48                   	dec    %eax
  403a26:	45                   	inc    %ebp
  403a27:	05 96 ad 0b d5       	add    $0xd50bad96,%eax
  403a2c:	40                   	inc    %eax
  403a2d:	bd 25 21 77 b1       	mov    $0xb1772125,%ebp
  403a32:	f7 d0                	not    %eax
  403a34:	83 e8 ce             	sub    $0xffffffce,%eax
  403a37:	35 65 87 67 f1       	xor    $0xf1678765,%eax
  403a3c:	f7 d8                	neg    %eax
  403a3e:	c1 c0 9b             	rol    $0x9b,%eax
  403a41:	f7 d0                	not    %eax
  403a43:	0f ba eb ad          	bts    $0xad,%ebx
  403a47:	83 c0 2a             	add    $0x2a,%eax
  403a4a:	c1 c8 88             	ror    $0x88,%eax
  403a4d:	83 f0 e3             	xor    $0xffffffe3,%eax
  403a50:	f7 d8                	neg    %eax
  403a52:	48                   	dec    %eax
  403a53:	0f ba ef 99          	bts    $0x99,%edi
  403a57:	83 c0 e3             	add    $0xffffffe3,%eax
  403a5a:	d1 c8                	ror    %eax
  403a5c:	83 f2 01             	xor    $0x1,%edx
  403a5f:	c1 c8 ea             	ror    $0xea,%eax
  403a62:	d3 e6                	shl    %cl,%esi
  403a64:	35 24 1e f3 22       	xor    $0x22f31e24,%eax
  403a69:	f7 d7                	not    %edi
  403a6b:	d1 c0                	rol    %eax
  403a6d:	83 f0 98             	xor    $0xffffff98,%eax
  403a70:	0b e9                	or     %ecx,%ebp
  403a72:	83 e8 5d             	sub    $0x5d,%eax
  403a75:	2d fb 04 81 82       	sub    $0x828104fb,%eax
  403a7a:	35 4a 1a 60 f0       	xor    $0xf0601a4a,%eax
  403a7f:	f7 d7                	not    %edi
  403a81:	d1 c0                	rol    %eax
  403a83:	03 e8                	add    %eax,%ebp
  403a85:	40                   	inc    %eax
  403a86:	4f                   	dec    %edi
  403a87:	f7 d8                	neg    %eax
  403a89:	93                   	xchg   %eax,%ebx
  403a8a:	f9                   	stc    
  403a8b:	83 c3 66             	add    $0x66,%ebx
  403a8e:	f7 d3                	not    %ebx
  403a90:	83 d6 bb             	adc    $0xffffffbb,%esi
  403a93:	83 eb 5b             	sub    $0x5b,%ebx
  403a96:	d1 c3                	rol    %ebx
  403a98:	83 f9 f7             	cmp    $0xfffffff7,%ecx
  403a9b:	0f cb                	bswap  %ebx
  403a9d:	4b                   	dec    %ebx
  403a9e:	f7 d5                	not    %ebp
  403aa0:	f7 db                	neg    %ebx
  403aa2:	d3 fd                	sar    %cl,%ebp
  403aa4:	81 f3 4e cd 0a 50    	xor    $0x500acd4e,%ebx
  403aaa:	f7 d3                	not    %ebx
  403aac:	83 f3 9c             	xor    $0xffffff9c,%ebx
  403aaf:	fc                   	cld    
  403ab0:	f7 db                	neg    %ebx
  403ab2:	43                   	inc    %ebx
  403ab3:	48                   	dec    %eax
  403ab4:	c1 c3 fb             	rol    $0xfb,%ebx
  403ab7:	81 fa be 57 57 4d    	cmp    $0x4d5757be,%edx
  403abd:	d1 c3                	rol    %ebx
  403abf:	81 c3 59 80 b3 91    	add    $0x91b38059,%ebx
  403ac5:	c1 ee 07             	shr    $0x7,%esi
  403ac8:	83 f3 15             	xor    $0x15,%ebx
  403acb:	0f ba e7 88          	bt     $0x88,%edi
  403acf:	f7 d3                	not    %ebx
  403ad1:	81 c3 0f f5 c1 9f    	add    $0x9fc1f50f,%ebx
  403ad7:	83 f3 0a             	xor    $0xa,%ebx
  403ada:	d3 ca                	ror    %cl,%edx
  403adc:	83 c3 c4             	add    $0xffffffc4,%ebx
  403adf:	f7 db                	neg    %ebx
  403ae1:	f8                   	clc    
  403ae2:	f7 d3                	not    %ebx
  403ae4:	83 f3 5c             	xor    $0x5c,%ebx
  403ae7:	f7 dd                	neg    %ebp
  403ae9:	83 eb 7f             	sub    $0x7f,%ebx
  403aec:	f7 d0                	not    %eax
  403aee:	f7 d3                	not    %ebx
  403af0:	c1 cb 04             	ror    $0x4,%ebx
  403af3:	c1 d0 1e             	rcl    $0x1e,%eax
  403af6:	83 eb 85             	sub    $0xffffff85,%ebx
  403af9:	81 c1 f2 2e 58 37    	add    $0x37582ef2,%ecx
  403aff:	83 f3 f1             	xor    $0xfffffff1,%ebx
  403b02:	f7 dd                	neg    %ebp
  403b04:	f7 db                	neg    %ebx
  403b06:	81 eb 24 04 2c 33    	sub    $0x332c0424,%ebx
  403b0c:	f7 da                	neg    %edx
  403b0e:	f7 db                	neg    %ebx
  403b10:	f7 d3                	not    %ebx
  403b12:	0f ba f9 44          	btc    $0x44,%ecx
  403b16:	c1 cb a5             	ror    $0xa5,%ebx
  403b19:	f7 db                	neg    %ebx
  403b1b:	d3 c9                	ror    %cl,%ecx
  403b1d:	0f cb                	bswap  %ebx
  403b1f:	d1 cb                	ror    %ebx
  403b21:	81 f3 01 47 ff 16    	xor    $0x16ff4701,%ebx
  403b27:	d3 da                	rcr    %cl,%edx
  403b29:	83 f3 c9             	xor    $0xffffffc9,%ebx
  403b2c:	4b                   	dec    %ebx
  403b2d:	4d                   	dec    %ebp
  403b2e:	0f cb                	bswap  %ebx
  403b30:	d3 d7                	rcl    %cl,%edi
  403b32:	43                   	inc    %ebx
  403b33:	81 f2 e4 fd 64 50    	xor    $0x5064fde4,%edx
  403b39:	d1 cb                	ror    %ebx
  403b3b:	83 c3 da             	add    $0xffffffda,%ebx
  403b3e:	83 f7 85             	xor    $0xffffff85,%edi
  403b41:	f7 db                	neg    %ebx
  403b43:	d1 c3                	rol    %ebx
  403b45:	53                   	push   %ebx
  403b46:	5d                   	pop    %ebp
  403b47:	83 f5 e3             	xor    $0xffffffe3,%ebp
  403b4a:	81 ed 18 b9 7f 65    	sub    $0x657fb918,%ebp
  403b50:	d3 ea                	shr    %cl,%edx
  403b52:	81 f5 3f 2c 91 12    	xor    $0x12912c3f,%ebp
  403b58:	83 f6 c2             	xor    $0xffffffc2,%esi
  403b5b:	0f cd                	bswap  %ebp
  403b5d:	d1 cd                	ror    %ebp
  403b5f:	45                   	inc    %ebp
  403b60:	0f ba e6 5c          	bt     $0x5c,%esi
  403b64:	83 ed c2             	sub    $0xffffffc2,%ebp
  403b67:	4d                   	dec    %ebp
  403b68:	47                   	inc    %edi
  403b69:	0f cd                	bswap  %ebp
  403b6b:	fd                   	std    
  403b6c:	83 f5 67             	xor    $0x67,%ebp
  403b6f:	81 ed 59 32 c8 83    	sub    $0x83c83259,%ebp
  403b75:	03 d4                	add    %esp,%edx
  403b77:	83 f5 27             	xor    $0x27,%ebp
  403b7a:	d3 e1                	shl    %cl,%ecx
  403b7c:	f7 d5                	not    %ebp
  403b7e:	b8 99 14 3f 7e       	mov    $0x7e3f1499,%eax
  403b83:	c1 c5 8e             	rol    $0x8e,%ebp
  403b86:	0f cd                	bswap  %ebp
  403b88:	81 c5 7e 58 32 ca    	add    $0xca32587e,%ebp
  403b8e:	83 f5 b2             	xor    $0xffffffb2,%ebp
  403b91:	0f ba f7 8a          	btr    $0x8a,%edi
  403b95:	4d                   	dec    %ebp
  403b96:	81 c5 55 29 da c1    	add    $0xc1da2955,%ebp
  403b9c:	81 f6 f8 8c ef 07    	xor    $0x7ef8cf8,%esi
  403ba2:	83 f5 67             	xor    $0x67,%ebp
  403ba5:	2d 0e 65 a2 8e       	sub    $0x8ea2650e,%eax
  403baa:	81 f5 22 d0 42 56    	xor    $0x5642d022,%ebp
  403bb0:	13 db                	adc    %ebx,%ebx
  403bb2:	f7 d5                	not    %ebp
  403bb4:	83 ed aa             	sub    $0xffffffaa,%ebp
  403bb7:	f7 d1                	not    %ecx
  403bb9:	0f cd                	bswap  %ebp
  403bbb:	f7 dd                	neg    %ebp
  403bbd:	0f cd                	bswap  %ebp
  403bbf:	55                   	push   %ebp
  403bc0:	5f                   	pop    %edi
  403bc1:	c1 cf 38             	ror    $0x38,%edi
  403bc4:	47                   	inc    %edi
  403bc5:	f7 d6                	not    %esi
  403bc7:	f7 d7                	not    %edi
  403bc9:	57                   	push   %edi
  403bca:	5a                   	pop    %edx
  403bcb:	46                   	inc    %esi
  403bcc:	4a                   	dec    %edx
  403bcd:	81 c2 61 62 8d 57    	add    $0x578d6261,%edx
  403bd3:	81 cd ef 18 f0 37    	or     $0x37f018ef,%ebp
  403bd9:	83 f2 ee             	xor    $0xffffffee,%edx
  403bdc:	0b de                	or     %esi,%ebx
  403bde:	f7 d2                	not    %edx
  403be0:	8b fa                	mov    %edx,%edi
  403be2:	2b c6                	sub    %esi,%eax
  403be4:	83 f7 91             	xor    $0xffffff91,%edi
  403be7:	81 c5 7b fc ce ee    	add    $0xeecefc7b,%ebp
  403bed:	81 c7 7b b9 1e aa    	add    $0xaa1eb97b,%edi
  403bf3:	d1 c7                	rol    %edi
  403bf5:	3f                   	aas    
  403bf6:	47                   	inc    %edi
  403bf7:	c1 fd 00             	sar    $0x0,%ebp
  403bfa:	c1 c7 92             	rol    $0x92,%edi
  403bfd:	83 c7 5d             	add    $0x5d,%edi
  403c00:	83 f7 4a             	xor    $0x4a,%edi
  403c03:	f7 df                	neg    %edi
  403c05:	57                   	push   %edi
  403c06:	58                   	pop    %eax
  403c07:	f7 d0                	not    %eax
  403c09:	f7 d8                	neg    %eax
  403c0b:	c1 c0 09             	rol    $0x9,%eax
  403c0e:	d3 e7                	shl    %cl,%edi
  403c10:	40                   	inc    %eax
  403c11:	35 d5 8a c3 c1       	xor    $0xc1c38ad5,%eax
  403c16:	f7 d0                	not    %eax
  403c18:	c1 c8 25             	ror    $0x25,%eax
  403c1b:	35 35 6f 6f 6d       	xor    $0x6d6f6f35,%eax
  403c20:	83 e8 61             	sub    $0x61,%eax
  403c23:	ba a0 61 18 80       	mov    $0x801861a0,%edx
  403c28:	f7 d8                	neg    %eax
  403c2a:	d3 e5                	shl    %cl,%ebp
  403c2c:	83 c0 f3             	add    $0xfffffff3,%eax
  403c2f:	81 ce 2c f1 70 91    	or     $0x9170f12c,%esi
  403c35:	83 f0 10             	xor    $0x10,%eax
  403c38:	05 50 eb 02 b1       	add    $0xb102eb50,%eax
  403c3d:	0f c8                	bswap  %eax
  403c3f:	83 f3 36             	xor    $0x36,%ebx
  403c42:	35 5b 72 10 5e       	xor    $0x5e10725b,%eax
  403c47:	97                   	xchg   %eax,%edi
  403c48:	b8 65 23 4a cf       	mov    $0xcf4a2365,%eax
  403c4d:	c1 cf d8             	ror    $0xd8,%edi
  403c50:	4f                   	dec    %edi
  403c51:	f7 da                	neg    %edx
  403c53:	d1 cf                	ror    %edi
  403c55:	f7 d9                	neg    %ecx
  403c57:	81 f7 a5 fc 07 71    	xor    $0x7107fca5,%edi
  403c5d:	83 f7 4f             	xor    $0x4f,%edi
  403c60:	83 ea 7b             	sub    $0x7b,%edx
  403c63:	0f cf                	bswap  %edi
  403c65:	43                   	inc    %ebx
  403c66:	c1 cf ef             	ror    $0xef,%edi
  403c69:	c1 c9 1b             	ror    $0x1b,%ecx
  403c6c:	0f cf                	bswap  %edi
  403c6e:	b8 db e7 6c 0e       	mov    $0xe6ce7db,%eax
  403c73:	81 c7 8e 20 e4 11    	add    $0x11e4208e,%edi
  403c79:	45                   	inc    %ebp
  403c7a:	f7 d7                	not    %edi
  403c7c:	4f                   	dec    %edi
  403c7d:	83 c7 5e             	add    $0x5e,%edi
  403c80:	0f ba ee c6          	bts    $0xc6,%esi
  403c84:	f7 d7                	not    %edi
  403c86:	15 45 37 a4 76       	adc    $0x76a43745,%eax
  403c8b:	83 ef ad             	sub    $0xffffffad,%edi
  403c8e:	48                   	dec    %eax
  403c8f:	83 f7 7a             	xor    $0x7a,%edi
  403c92:	81 c7 28 da db 05    	add    $0x5dbda28,%edi
  403c98:	d1 cf                	ror    %edi
  403c9a:	4f                   	dec    %edi
  403c9b:	40                   	inc    %eax
  403c9c:	f7 d7                	not    %edi
  403c9e:	bb dc b7 ff 85       	mov    $0x85ffb7dc,%ebx
  403ca3:	0f cf                	bswap  %edi
  403ca5:	81 c7 eb 47 02 10    	add    $0x100247eb,%edi
  403cab:	81 f7 6a 4e 3b b9    	xor    $0xb93b4e6a,%edi
  403cb1:	f7 df                	neg    %edi
  403cb3:	d3 e1                	shl    %cl,%ecx
  403cb5:	c1 cf e2             	ror    $0xe2,%edi
  403cb8:	81 f7 d1 41 46 23    	xor    $0x234641d1,%edi
  403cbe:	83 ef 20             	sub    $0x20,%edi
  403cc1:	83 f2 5c             	xor    $0x5c,%edx
  403cc4:	81 f7 70 01 79 62    	xor    $0x62790170,%edi
  403cca:	83 c7 24             	add    $0x24,%edi
  403ccd:	f7 df                	neg    %edi
  403ccf:	81 c7 2f 03 64 d7    	add    $0xd764032f,%edi
  403cd5:	83 c3 ea             	add    $0xffffffea,%ebx
  403cd8:	c1 c7 83             	rol    $0x83,%edi
  403cdb:	83 c7 cf             	add    $0xffffffcf,%edi
  403cde:	81 ef 26 50 b1 e8    	sub    $0xe8b15026,%edi
  403ce4:	ba 01 21 92 14       	mov    $0x14922101,%edx
  403ce9:	f7 d7                	not    %edi
  403ceb:	2f                   	das    
  403cec:	d1 c7                	rol    %edi
  403cee:	81 f7 90 51 b7 9e    	xor    $0x9eb75190,%edi
  403cf4:	83 ef 5d             	sub    $0x5d,%edi
  403cf7:	81 ef 2e a3 5f 7a    	sub    $0x7a5fa32e,%edi
  403cfd:	83 f7 6a             	xor    $0x6a,%edi
  403d00:	4f                   	dec    %edi
  403d01:	d1 cf                	ror    %edi
  403d03:	81 c7 e5 90 95 9b    	add    $0x9b9590e5,%edi
  403d09:	d3 ee                	shr    %cl,%esi
  403d0b:	81 f7 51 45 c2 c5    	xor    $0xc5c24551,%edi
  403d11:	b8 09 21 99 84       	mov    $0x84992109,%eax
  403d16:	d1 cf                	ror    %edi
  403d18:	57                   	push   %edi
  403d19:	5b                   	pop    %ebx
  403d1a:	81 f3 97 e7 7d 47    	xor    $0x477de797,%ebx
  403d20:	87 d9                	xchg   %ebx,%ecx
  403d22:	f7 da                	neg    %edx
  403d24:	83 f1 78             	xor    $0x78,%ecx
  403d27:	bd cf e3 61 57       	mov    $0x5761e3cf,%ebp
  403d2c:	0f c9                	bswap  %ecx
  403d2e:	0f ba f3 79          	btr    $0x79,%ebx
  403d32:	81 c1 66 8c 7f d0    	add    $0xd07f8c66,%ecx
  403d38:	0f ba f7 c8          	btr    $0xc8,%edi
  403d3c:	49                   	dec    %ecx
  403d3d:	d1 c9                	ror    %ecx
  403d3f:	f7 d1                	not    %ecx
  403d41:	8b fa                	mov    %edx,%edi
  403d43:	81 c1 f3 2a 3a 78    	add    $0x783a2af3,%ecx
  403d49:	81 f1 ab 97 e1 01    	xor    $0x1e197ab,%ecx
  403d4f:	0f c9                	bswap  %ecx
  403d51:	42                   	inc    %edx
  403d52:	83 e9 8b             	sub    $0xffffff8b,%ecx
  403d55:	0b df                	or     %edi,%ebx
  403d57:	c1 c9 80             	ror    $0x80,%ecx
  403d5a:	d3 ef                	shr    %cl,%edi
  403d5c:	81 e9 f3 96 52 8d    	sub    $0x8d5296f3,%ecx
  403d62:	c1 c1 95             	rol    $0x95,%ecx
  403d65:	83 f1 38             	xor    $0x38,%ecx
  403d68:	d1 c1                	rol    %ecx
  403d6a:	23 e9                	and    %ecx,%ebp
  403d6c:	0b e9                	or     %ecx,%ebp
  403d6e:	81 f6 3b 0c 08 e4    	xor    $0xe4080c3b,%esi
  403d74:	f7 d5                	not    %ebp
  403d76:	83 c5 17             	add    $0x17,%ebp
  403d79:	c1 e3 09             	shl    $0x9,%ebx
  403d7c:	c1 c5 33             	rol    $0x33,%ebp
  403d7f:	0f ba ef ee          	bts    $0xee,%edi
  403d83:	81 c5 fe 3f 21 cc    	add    $0xcc213ffe,%ebp
  403d89:	83 f5 8d             	xor    $0xffffff8d,%ebp
  403d8c:	b9 4e 1d 58 98       	mov    $0x98581d4e,%ecx
  403d91:	83 c5 8b             	add    $0xffffff8b,%ebp
  403d94:	03 f1                	add    %ecx,%esi
  403d96:	0f cd                	bswap  %ebp
  403d98:	25 63 14 b4 eb       	and    $0xebb41463,%eax
  403d9d:	83 f5 d6             	xor    $0xffffffd6,%ebp
  403da0:	c1 e7 18             	shl    $0x18,%edi
  403da3:	f7 d5                	not    %ebp
  403da5:	f7 db                	neg    %ebx
  403da7:	f7 dd                	neg    %ebp
  403da9:	13 db                	adc    %ebx,%ebx
  403dab:	0f cd                	bswap  %ebp
  403dad:	45                   	inc    %ebp
  403dae:	83 ed a9             	sub    $0xffffffa9,%ebp
  403db1:	f7 d5                	not    %ebp
  403db3:	c1 cd cc             	ror    $0xcc,%ebp
  403db6:	81 ed dc fd d5 fd    	sub    $0xfdd5fddc,%ebp
  403dbc:	81 f5 07 d4 9e d7    	xor    $0xd79ed407,%ebp
  403dc2:	d3 ee                	shr    %cl,%esi
  403dc4:	0f cd                	bswap  %ebp
  403dc6:	d3 f8                	sar    %cl,%eax
  403dc8:	4d                   	dec    %ebp
  403dc9:	c1 cd 97             	ror    $0x97,%ebp
  403dcc:	f7 dd                	neg    %ebp
  403dce:	f7 d0                	not    %eax
  403dd0:	d1 cd                	ror    %ebp
  403dd2:	c1 c5 35             	rol    $0x35,%ebp
  403dd5:	81 ed 40 1d db 12    	sub    $0x12db1d40,%ebp
  403ddb:	0f cd                	bswap  %ebp
  403ddd:	d3 db                	rcr    %cl,%ebx
  403ddf:	81 ed db 79 ba b4    	sub    $0xb4ba79db,%ebp
  403de5:	f7 d5                	not    %ebp
  403de7:	ba 00 1f 1a 12       	mov    $0x121a1f00,%edx
  403dec:	45                   	inc    %ebp
  403ded:	81 ed e8 53 33 e2    	sub    $0xe23353e8,%ebp
  403df3:	b9 f4 c2 2b ce       	mov    $0xce2bc2f4,%ecx
  403df8:	83 f5 f7             	xor    $0xfffffff7,%ebp
  403dfb:	f7 dd                	neg    %ebp
  403dfd:	81 f5 66 34 0c 0c    	xor    $0xc0c3466,%ebp
  403e03:	f7 d5                	not    %ebp
  403e05:	c1 ee 17             	shr    $0x17,%esi
  403e08:	d1 cd                	ror    %ebp
  403e0a:	fd                   	std    
  403e0b:	45                   	inc    %ebp
  403e0c:	f7 d5                	not    %ebp
  403e0e:	d3 ca                	ror    %cl,%edx
  403e10:	c1 c5 2b             	rol    $0x2b,%ebp
  403e13:	81 e1 10 32 d8 b1    	and    $0xb1d83210,%ecx
  403e19:	f7 dd                	neg    %ebp
  403e1b:	83 c5 71             	add    $0x71,%ebp
  403e1e:	81 f5 5a bc ea 11    	xor    $0x11eabc5a,%ebp
  403e24:	c1 c5 61             	rol    $0x61,%ebp
  403e27:	0f cd                	bswap  %ebp
  403e29:	c1 cd f0             	ror    $0xf0,%ebp
  403e2c:	d3 eb                	shr    %cl,%ebx
  403e2e:	f7 dd                	neg    %ebp
  403e30:	f9                   	stc    
  403e31:	83 ed 62             	sub    $0x62,%ebp
  403e34:	d3 e2                	shl    %cl,%edx
  403e36:	81 f5 92 af e7 9d    	xor    $0x9de7af92,%ebp
  403e3c:	4d                   	dec    %ebp
  403e3d:	81 fe 32 29 5d 5f    	cmp    $0x5f5d2932,%esi
  403e43:	d1 cd                	ror    %ebp
  403e45:	83 ed 05             	sub    $0x5,%ebp
  403e48:	f7 d5                	not    %ebp
  403e4a:	83 ed 40             	sub    $0x40,%ebp
  403e4d:	fc                   	cld    
  403e4e:	f7 dd                	neg    %ebp
  403e50:	81 de 20 b0 b0 bd    	sbb    $0xbdb0b020,%esi
  403e56:	0f cd                	bswap  %ebp
  403e58:	f7 dd                	neg    %ebp
  403e5a:	55                   	push   %ebp
  403e5b:	58                   	pop    %eax
  403e5c:	83 cd 55             	or     $0x55,%ebp
  403e5f:	05 e8 4e 22 fc       	add    $0xfc224ee8,%eax
  403e64:	23 d0                	and    %eax,%edx
  403e66:	0b d0                	or     %eax,%edx
  403e68:	bd 58 1a 5a f6       	mov    $0xf65a1a58,%ebp
  403e6d:	0f ca                	bswap  %edx
  403e6f:	83 ea 2c             	sub    $0x2c,%edx
  403e72:	81 ea d5 58 42 d6    	sub    $0xd64258d5,%edx
  403e78:	83 ce 2d             	or     $0x2d,%esi
  403e7b:	83 ea 40             	sub    $0x40,%edx
  403e7e:	c1 eb 05             	shr    $0x5,%ebx
  403e81:	f7 da                	neg    %edx
  403e83:	c1 c2 90             	rol    $0x90,%edx
  403e86:	4a                   	dec    %edx
  403e87:	d1 ca                	ror    %edx
  403e89:	4a                   	dec    %edx
  403e8a:	0f ca                	bswap  %edx
  403e8c:	4d                   	dec    %ebp
  403e8d:	f7 da                	neg    %edx
  403e8f:	81 c2 94 43 bb 4b    	add    $0x4bbb4394,%edx
  403e95:	83 f2 d5             	xor    $0xffffffd5,%edx
  403e98:	c1 e3 02             	shl    $0x2,%ebx
  403e9b:	c1 ca e3             	ror    $0xe3,%edx
  403e9e:	83 c2 83             	add    $0xffffff83,%edx
  403ea1:	0f ba f0 fd          	btr    $0xfd,%eax
  403ea5:	42                   	inc    %edx
  403ea6:	81 f2 39 d3 e6 e5    	xor    $0xe5e6d339,%edx
  403eac:	f7 da                	neg    %edx
  403eae:	83 c2 28             	add    $0x28,%edx
  403eb1:	42                   	inc    %edx
  403eb2:	43                   	inc    %ebx
  403eb3:	f7 d2                	not    %edx
  403eb5:	d1 ca                	ror    %edx
  403eb7:	81 d1 3b dc f3 f8    	adc    $0xf8f3dc3b,%ecx
  403ebd:	81 c2 17 51 91 db    	add    $0xdb915117,%edx
  403ec3:	83 fe b3             	cmp    $0xffffffb3,%esi
  403ec6:	83 f2 e6             	xor    $0xffffffe6,%edx
  403ec9:	83 e7 82             	and    $0xffffff82,%edi
  403ecc:	81 f2 c4 30 c1 b6    	xor    $0xb6c130c4,%edx
  403ed2:	0f ba f9 12          	btc    $0x12,%ecx
  403ed6:	f7 d2                	not    %edx
  403ed8:	f9                   	stc    
  403ed9:	83 f2 5b             	xor    $0x5b,%edx
  403edc:	c1 e5 09             	shl    $0x9,%ebp
  403edf:	81 c2 33 77 2e df    	add    $0xdf2e7733,%edx
  403ee5:	f7 d9                	neg    %ecx
  403ee7:	0f ca                	bswap  %edx
  403ee9:	42                   	inc    %edx
  403eea:	f7 da                	neg    %edx
  403eec:	c1 d3 0a             	rcl    $0xa,%ebx
  403eef:	d1 ca                	ror    %edx
  403ef1:	83 c3 b9             	add    $0xffffffb9,%ebx
  403ef4:	c1 c2 a0             	rol    $0xa0,%edx
  403ef7:	83 e6 3e             	and    $0x3e,%esi
  403efa:	42                   	inc    %edx
  403efb:	d3 c5                	rol    %cl,%ebp
  403efd:	83 f2 cc             	xor    $0xffffffcc,%edx
  403f00:	81 f2 b6 94 ba a5    	xor    $0xa5ba94b6,%edx
  403f06:	c1 df 0b             	rcr    $0xb,%edi
  403f09:	d1 ca                	ror    %edx
  403f0b:	83 e9 13             	sub    $0x13,%ecx
  403f0e:	f7 d2                	not    %edx
  403f10:	83 ea cf             	sub    $0xffffffcf,%edx
  403f13:	52                   	push   %edx
  403f14:	5b                   	pop    %ebx
  403f15:	0f cb                	bswap  %ebx
  403f17:	4b                   	dec    %ebx
  403f18:	83 f3 35             	xor    $0x35,%ebx
  403f1b:	d3 e8                	shr    %cl,%eax
  403f1d:	4b                   	dec    %ebx
  403f1e:	0f cb                	bswap  %ebx
  403f20:	d3 ee                	shr    %cl,%esi
  403f22:	c1 c3 4c             	rol    $0x4c,%ebx
  403f25:	83 ef 0b             	sub    $0xb,%edi
  403f28:	43                   	inc    %ebx
  403f29:	fd                   	std    
  403f2a:	f7 d3                	not    %ebx
  403f2c:	d3 c2                	rol    %cl,%edx
  403f2e:	4b                   	dec    %ebx
  403f2f:	83 eb 8e             	sub    $0xffffff8e,%ebx
  403f32:	f7 d3                	not    %ebx
  403f34:	d3 ef                	shr    %cl,%edi
  403f36:	d1 cb                	ror    %ebx
  403f38:	d3 d8                	rcr    %cl,%eax
  403f3a:	81 f3 28 72 84 bc    	xor    $0xbc847228,%ebx
  403f40:	81 eb e4 a6 c1 7c    	sub    $0x7cc1a6e4,%ebx
  403f46:	fd                   	std    
  403f47:	f7 db                	neg    %ebx
  403f49:	fc                   	cld    
  403f4a:	c1 c3 b5             	rol    $0xb5,%ebx
  403f4d:	d1 c3                	rol    %ebx
  403f4f:	c1 e5 1c             	shl    $0x1c,%ebp
  403f52:	83 f3 78             	xor    $0x78,%ebx
  403f55:	43                   	inc    %ebx
  403f56:	81 f3 89 fd 4a f5    	xor    $0xf54afd89,%ebx
  403f5c:	0f cb                	bswap  %ebx
  403f5e:	83 c3 2e             	add    $0x2e,%ebx
  403f61:	ba 1b 64 05 4b       	mov    $0x4b05641b,%edx
  403f66:	81 c3 4d 43 6d 25    	add    $0x256d434d,%ebx
  403f6c:	83 fe 88             	cmp    $0xffffff88,%esi
  403f6f:	f7 d3                	not    %ebx
  403f71:	46                   	inc    %esi
  403f72:	f7 db                	neg    %ebx
  403f74:	bd e7 bc ff d2       	mov    $0xd2ffbce7,%ebp
  403f79:	f7 d3                	not    %ebx
  403f7b:	bf 49 75 70 ad       	mov    $0xad707549,%edi
  403f80:	83 f3 11             	xor    $0x11,%ebx
  403f83:	fc                   	cld    
  403f84:	4b                   	dec    %ebx
  403f85:	81 eb 5e ed 89 1c    	sub    $0x1c89ed5e,%ebx
  403f8b:	4a                   	dec    %edx
  403f8c:	83 f3 23             	xor    $0x23,%ebx
  403f8f:	f7 d3                	not    %ebx
  403f91:	f7 db                	neg    %ebx
  403f93:	b8 ef 95 27 5f       	mov    $0x5f2795ef,%eax
  403f98:	81 f3 fb 08 26 d8    	xor    $0xd82608fb,%ebx
  403f9e:	f7 db                	neg    %ebx
  403fa0:	d3 e1                	shl    %cl,%ecx
  403fa2:	81 f3 88 fe 5d fb    	xor    $0xfb5dfe88,%ebx
  403fa8:	d1 cb                	ror    %ebx
  403faa:	83 ea 50             	sub    $0x50,%edx
  403fad:	c1 c3 dd             	rol    $0xdd,%ebx
  403fb0:	0f ba e5 fa          	bt     $0xfa,%ebp
  403fb4:	43                   	inc    %ebx
  403fb5:	c1 c3 61             	rol    $0x61,%ebx
  403fb8:	0f cb                	bswap  %ebx
  403fba:	d3 c5                	rol    %cl,%ebp
  403fbc:	81 eb 64 1a 0b 33    	sub    $0x330b1a64,%ebx
  403fc2:	f7 d3                	not    %ebx
  403fc4:	c1 d7 09             	rcl    $0x9,%edi
  403fc7:	81 eb 2a b0 31 78    	sub    $0x7831b02a,%ebx
  403fcd:	fc                   	cld    
  403fce:	f7 db                	neg    %ebx
  403fd0:	1b fc                	sbb    %esp,%edi
  403fd2:	81 f3 da 99 41 85    	xor    $0x854199da,%ebx
  403fd8:	83 f3 bf             	xor    $0xffffffbf,%ebx
  403fdb:	c1 e7 1b             	shl    $0x1b,%edi
  403fde:	81 c3 58 37 c3 de    	add    $0xdec33758,%ebx
  403fe4:	43                   	inc    %ebx
  403fe5:	d1 cb                	ror    %ebx
  403fe7:	f7 db                	neg    %ebx
  403fe9:	0f cb                	bswap  %ebx
  403feb:	f7 d3                	not    %ebx
  403fed:	f7 df                	neg    %edi
  403fef:	0f cb                	bswap  %ebx
  403ff1:	0f ba e5 6a          	bt     $0x6a,%ebp
  403ff5:	43                   	inc    %ebx
  403ff6:	83 c3 7c             	add    $0x7c,%ebx
  403ff9:	0f cb                	bswap  %ebx
  403ffb:	87 de                	xchg   %ebx,%esi
  403ffd:	d3 e0                	shl    %cl,%eax
  403fff:	83 ee ba             	sub    $0xffffffba,%esi
  404002:	c1 ce 59             	ror    $0x59,%esi
  404005:	83 ee 3c             	sub    $0x3c,%esi
  404008:	0f ce                	bswap  %esi
  40400a:	42                   	inc    %edx
  40400b:	81 f6 c6 72 b0 f7    	xor    $0xf7b072c6,%esi
  404011:	4e                   	dec    %esi
  404012:	f7 d6                	not    %esi
  404014:	c1 fa 04             	sar    $0x4,%edx
  404017:	83 f6 12             	xor    $0x12,%esi
  40401a:	ba bd 85 57 5a       	mov    $0x5a5785bd,%edx
  40401f:	0f ce                	bswap  %esi
  404021:	c1 ce e7             	ror    $0xe7,%esi
  404024:	fc                   	cld    
  404025:	81 c6 2c d8 96 0e    	add    $0xe96d82c,%esi
  40402b:	f7 dd                	neg    %ebp
  40402d:	81 f6 c4 3c 02 fc    	xor    $0xfc023cc4,%esi
  404033:	98                   	cwtl   
  404034:	0f ce                	bswap  %esi
  404036:	c1 cd 06             	ror    $0x6,%ebp
  404039:	c1 c6 85             	rol    $0x85,%esi
  40403c:	f7 d6                	not    %esi
  40403e:	c1 c6 c1             	rol    $0xc1,%esi
  404041:	0f ba e2 9d          	bt     $0x9d,%edx
  404045:	f7 d6                	not    %esi
  404047:	d1 ce                	ror    %esi
  404049:	83 c0 47             	add    $0x47,%eax
  40404c:	c1 c6 ed             	rol    $0xed,%esi
  40404f:	f7 d6                	not    %esi
  404051:	0f ce                	bswap  %esi
  404053:	56                   	push   %esi
  404054:	58                   	pop    %eax
  404055:	d1 c0                	rol    %eax
  404057:	83 f0 0f             	xor    $0xf,%eax
  40405a:	0f c8                	bswap  %eax
  40405c:	81 cf 06 2c 54 d4    	or     $0xd4542c06,%edi
  404062:	35 7b 16 43 d7       	xor    $0xd743167b,%eax
  404067:	48                   	dec    %eax
  404068:	0f c8                	bswap  %eax
  40406a:	0b f3                	or     %ebx,%esi
  40406c:	83 f0 57             	xor    $0x57,%eax
  40406f:	0f c8                	bswap  %eax
  404071:	c1 e6 03             	shl    $0x3,%esi
  404074:	83 f0 b4             	xor    $0xffffffb4,%eax
  404077:	50                   	push   %eax
  404078:	5f                   	pop    %edi
  404079:	f7 d2                	not    %edx
  40407b:	4f                   	dec    %edi
  40407c:	d1 cf                	ror    %edi
  40407e:	83 ea 89             	sub    $0xffffff89,%edx
  404081:	83 f7 8a             	xor    $0xffffff8a,%edi
  404084:	81 ef 5a 97 41 12    	sub    $0x1241975a,%edi
  40408a:	f7 df                	neg    %edi
  40408c:	f7 d6                	not    %esi
  40408e:	c1 c7 f2             	rol    $0xf2,%edi
  404091:	4f                   	dec    %edi
  404092:	f7 d7                	not    %edi
  404094:	81 c7 90 fe e4 b0    	add    $0xb0e4fe90,%edi
  40409a:	83 ef fb             	sub    $0xfffffffb,%edi
  40409d:	81 c7 b4 d7 3d 03    	add    $0x33dd7b4,%edi
  4040a3:	fd                   	std    
  4040a4:	c1 c7 67             	rol    $0x67,%edi
  4040a7:	c1 ea 09             	shr    $0x9,%edx
  4040aa:	81 f7 e4 47 9c bc    	xor    $0xbc9c47e4,%edi
  4040b0:	ba f6 83 cb 9b       	mov    $0x9bcb83f6,%edx
  4040b5:	83 f7 a3             	xor    $0xffffffa3,%edi
  4040b8:	81 f7 f1 b0 4c 87    	xor    $0x874cb0f1,%edi
  4040be:	f7 df                	neg    %edi
  4040c0:	f7 d7                	not    %edi
  4040c2:	c1 d5 0b             	rcl    $0xb,%ebp
  4040c5:	0f cf                	bswap  %edi
  4040c7:	c1 c5 1e             	rol    $0x1e,%ebp
  4040ca:	81 ef b9 aa 36 56    	sub    $0x5636aab9,%edi
  4040d0:	83 db e5             	sbb    $0xffffffe5,%ebx
  4040d3:	f7 df                	neg    %edi
  4040d5:	f7 d7                	not    %edi
  4040d7:	f9                   	stc    
  4040d8:	4f                   	dec    %edi
  4040d9:	81 f7 6c 69 f7 22    	xor    $0x22f7696c,%edi
  4040df:	f7 d1                	not    %ecx
  4040e1:	c1 cf 36             	ror    $0x36,%edi
  4040e4:	0f cf                	bswap  %edi
  4040e6:	83 f7 a9             	xor    $0xffffffa9,%edi
  4040e9:	d1 c7                	rol    %edi
  4040eb:	83 c8 ca             	or     $0xffffffca,%eax
  4040ee:	0f cf                	bswap  %edi
  4040f0:	83 f7 6d             	xor    $0x6d,%edi
  4040f3:	f7 df                	neg    %edi
  4040f5:	83 f7 6d             	xor    $0x6d,%edi
  4040f8:	d1 c7                	rol    %edi
  4040fa:	b9 9f ff a0 c4       	mov    $0xc4a0ff9f,%ecx
  4040ff:	81 f7 e4 c5 4c 66    	xor    $0x664cc5e4,%edi
  404105:	23 d8                	and    %eax,%ebx
  404107:	4f                   	dec    %edi
  404108:	d3 e9                	shr    %cl,%ecx
  40410a:	f7 df                	neg    %edi
  40410c:	f7 d7                	not    %edi
  40410e:	c1 c7 f9             	rol    $0xf9,%edi
  404111:	83 fb af             	cmp    $0xffffffaf,%ebx
  404114:	81 f7 cc 6e 2c 53    	xor    $0x532c6ecc,%edi
  40411a:	03 d7                	add    %edi,%edx
  40411c:	0f cf                	bswap  %edi
  40411e:	d1 cf                	ror    %edi
  404120:	f7 d5                	not    %ebp
  404122:	81 c7 43 b1 f2 75    	add    $0x75f2b143,%edi
  404128:	83 ef e5             	sub    $0xffffffe5,%edi
  40412b:	83 ce 15             	or     $0x15,%esi
  40412e:	f7 d7                	not    %edi
  404130:	81 ef d1 7c fc f2    	sub    $0xf2fc7cd1,%edi
  404136:	83 f7 1b             	xor    $0x1b,%edi
  404139:	be 61 c0 2d 47       	mov    $0x472dc061,%esi
  40413e:	0f cf                	bswap  %edi
  404140:	d3 e0                	shl    %cl,%eax
  404142:	c1 c7 e7             	rol    $0xe7,%edi
  404145:	d1 c7                	rol    %edi
  404147:	d3 e0                	shl    %cl,%eax
  404149:	0f cf                	bswap  %edi
  40414b:	f7 df                	neg    %edi
  40414d:	0f ba f9 b3          	btc    $0xb3,%ecx
  404151:	d1 cf                	ror    %edi
  404153:	f7 d7                	not    %edi
  404155:	81 f7 84 17 cd 2e    	xor    $0x2ecd1784,%edi
  40415b:	81 ef 3a fc db 63    	sub    $0x63dbfc3a,%edi
  404161:	83 e5 cf             	and    $0xffffffcf,%ebp
  404164:	4f                   	dec    %edi
  404165:	0f cf                	bswap  %edi
  404167:	0b cd                	or     %ebp,%ecx
  404169:	81 f7 73 e4 cb da    	xor    $0xdacbe473,%edi
  40416f:	f7 d7                	not    %edi
  404171:	f7 dd                	neg    %ebp
  404173:	c1 c7 c1             	rol    $0xc1,%edi
  404176:	0f cf                	bswap  %edi
  404178:	8b ef                	mov    %edi,%ebp
  40417a:	83 ef 05             	sub    $0x5,%edi
  40417d:	83 f5 85             	xor    $0xffffff85,%ebp
  404180:	83 c5 aa             	add    $0xffffffaa,%ebp
  404183:	1b da                	sbb    %edx,%ebx
  404185:	f7 d5                	not    %ebp
  404187:	c1 ce 06             	ror    $0x6,%esi
  40418a:	4d                   	dec    %ebp
  40418b:	81 ea ba 52 1e 20    	sub    $0x201e52ba,%edx
  404191:	c1 cd ae             	ror    $0xae,%ebp
  404194:	83 f6 c0             	xor    $0xffffffc0,%esi
  404197:	0f cd                	bswap  %ebp
  404199:	55                   	push   %ebp
  40419a:	5a                   	pop    %edx
  40419b:	f7 d8                	neg    %eax
  40419d:	83 c2 ab             	add    $0xffffffab,%edx
  4041a0:	83 c3 6b             	add    $0x6b,%ebx
  4041a3:	81 c2 38 5e e8 0f    	add    $0xfe85e38,%edx
  4041a9:	0f ca                	bswap  %edx
  4041ab:	f7 da                	neg    %edx
  4041ad:	81 f2 c5 f3 cb a5    	xor    $0xa5cbf3c5,%edx
  4041b3:	f7 d2                	not    %edx
  4041b5:	f7 d3                	not    %ebx
  4041b7:	83 f2 a7             	xor    $0xffffffa7,%edx
  4041ba:	03 e9                	add    %ecx,%ebp
  4041bc:	f7 da                	neg    %edx
  4041be:	c1 ca 40             	ror    $0x40,%edx
  4041c1:	81 c2 c7 28 e1 fb    	add    $0xfbe128c7,%edx
  4041c7:	52                   	push   %edx
  4041c8:	59                   	pop    %ecx
  4041c9:	41                   	inc    %ecx
  4041ca:	48                   	dec    %eax
  4041cb:	83 f1 9d             	xor    $0xffffff9d,%ecx
  4041ce:	f7 de                	neg    %esi
  4041d0:	c1 c9 6f             	ror    $0x6f,%ecx
  4041d3:	81 f1 50 56 79 63    	xor    $0x63795650,%ecx
  4041d9:	83 e9 5e             	sub    $0x5e,%ecx
  4041dc:	c1 c1 8d             	rol    $0x8d,%ecx
  4041df:	0f c9                	bswap  %ecx
  4041e1:	f7 d9                	neg    %ecx
  4041e3:	8b ff                	mov    %edi,%edi
  4041e5:	41                   	inc    %ecx
  4041e6:	f7 d9                	neg    %ecx
  4041e8:	83 f6 01             	xor    $0x1,%esi
  4041eb:	83 f1 62             	xor    $0x62,%ecx
  4041ee:	42                   	inc    %edx
  4041ef:	c1 c9 37             	ror    $0x37,%ecx
  4041f2:	83 d8 d2             	sbb    $0xffffffd2,%eax
  4041f5:	81 f1 3c 25 63 d2    	xor    $0xd263253c,%ecx
  4041fb:	b8 88 ff b0 a5       	mov    $0xa5b0ff88,%eax
  404200:	c1 c9 19             	ror    $0x19,%ecx
  404203:	83 f1 27             	xor    $0x27,%ecx
  404206:	4f                   	dec    %edi
  404207:	49                   	dec    %ecx
  404208:	d1 c9                	ror    %ecx
  40420a:	f7 d9                	neg    %ecx
  40420c:	d3 da                	rcr    %cl,%edx
  40420e:	83 f1 52             	xor    $0x52,%ecx
  404211:	f8                   	clc    
  404212:	0f c9                	bswap  %ecx
  404214:	c1 c9 13             	ror    $0x13,%ecx
  404217:	d3 c6                	rol    %cl,%esi
  404219:	d1 c1                	rol    %ecx
  40421b:	0f c9                	bswap  %ecx
  40421d:	fd                   	std    
  40421e:	d1 c9                	ror    %ecx
  404220:	0f ba f0 92          	btr    $0x92,%eax
  404224:	0f c9                	bswap  %ecx
  404226:	c1 e8 0b             	shr    $0xb,%eax
  404229:	81 f1 bd f3 25 69    	xor    $0x6925f3bd,%ecx
  40422f:	81 e9 07 69 90 1c    	sub    $0x1c906907,%ecx
  404235:	d3 ee                	shr    %cl,%esi
  404237:	0f c9                	bswap  %ecx
  404239:	d1 c1                	rol    %ecx
  40423b:	81 ca 45 3c ce b7    	or     $0xb7ce3c45,%edx
  404241:	83 c1 d1             	add    $0xffffffd1,%ecx
  404244:	f7 d0                	not    %eax
  404246:	83 f1 62             	xor    $0x62,%ecx
  404249:	2b df                	sub    %edi,%ebx
  40424b:	41                   	inc    %ecx
  40424c:	2b f6                	sub    %esi,%esi
  40424e:	81 c1 2d 84 03 02    	add    $0x203842d,%ecx
  404254:	fd                   	std    
  404255:	c1 c9 c1             	ror    $0xc1,%ecx
  404258:	bf 5a 82 b6 3c       	mov    $0x3cb6825a,%edi
  40425d:	d1 c1                	rol    %ecx
  40425f:	8b f1                	mov    %ecx,%esi
  404261:	81 f6 a3 f2 20 f0    	xor    $0xf020f2a3,%esi
  404267:	c1 ce 6d             	ror    $0x6d,%esi
  40426a:	81 eb e3 9c 65 f7    	sub    $0xf7659ce3,%ebx
  404270:	83 c6 26             	add    $0x26,%esi
  404273:	d3 df                	rcr    %cl,%edi
  404275:	4e                   	dec    %esi
  404276:	81 f6 10 73 aa bd    	xor    $0xbdaa7310,%esi
  40427c:	4e                   	dec    %esi
  40427d:	81 eb 25 51 1d df    	sub    $0xdf1d5125,%ebx
  404283:	83 f6 34             	xor    $0x34,%esi
  404286:	13 ed                	adc    %ebp,%ebp
  404288:	46                   	inc    %esi
  404289:	81 ee 49 e5 86 16    	sub    $0x1686e549,%esi
  40428f:	81 fa 20 a2 db f1    	cmp    $0xf1dba220,%edx
  404295:	d1 c6                	rol    %esi
  404297:	c1 da 12             	rcr    $0x12,%edx
  40429a:	81 c6 d5 23 48 5f    	add    $0x5f4823d5,%esi
  4042a0:	0f ba fd 23          	btc    $0x23,%ebp
  4042a4:	0f ce                	bswap  %esi
  4042a6:	d1 ce                	ror    %esi
  4042a8:	f7 de                	neg    %esi
  4042aa:	4a                   	dec    %edx
  4042ab:	81 c6 6a fc 03 7f    	add    $0x7f03fc6a,%esi
  4042b1:	46                   	inc    %esi
  4042b2:	bb cd 28 46 05       	mov    $0x54628cd,%ebx
  4042b7:	c1 ce 1a             	ror    $0x1a,%esi
  4042ba:	81 c6 88 26 7a ce    	add    $0xce7a2688,%esi
  4042c0:	83 f6 f1             	xor    $0xfffffff1,%esi
  4042c3:	46                   	inc    %esi
  4042c4:	fd                   	std    
  4042c5:	c1 ce 28             	ror    $0x28,%esi
  4042c8:	83 e9 c1             	sub    $0xffffffc1,%ecx
  4042cb:	83 f6 8c             	xor    $0xffffff8c,%esi
  4042ce:	d3 d3                	rcl    %cl,%ebx
  4042d0:	0f ce                	bswap  %esi
  4042d2:	0b ff                	or     %edi,%edi
  4042d4:	81 c6 c4 f7 8c 45    	add    $0x458cf7c4,%esi
  4042da:	83 f6 89             	xor    $0xffffff89,%esi
  4042dd:	0f ba ef 62          	bts    $0x62,%edi
  4042e1:	0f ce                	bswap  %esi
  4042e3:	c1 c6 5d             	rol    $0x5d,%esi
  4042e6:	83 f6 9d             	xor    $0xffffff9d,%esi
  4042e9:	40                   	inc    %eax
  4042ea:	46                   	inc    %esi
  4042eb:	81 ee 01 45 82 86    	sub    $0x86824501,%esi
  4042f1:	bb de 19 55 36       	mov    $0x365519de,%ebx
  4042f6:	83 ee 00             	sub    $0x0,%esi
  4042f9:	81 c6 f5 c2 e5 15    	add    $0x15e5c2f5,%esi
  4042ff:	81 f6 f9 00 ab 17    	xor    $0x17ab00f9,%esi
  404305:	d3 e5                	shl    %cl,%ebp
  404307:	f7 de                	neg    %esi
  404309:	40                   	inc    %eax
  40430a:	83 f6 2d             	xor    $0x2d,%esi
  40430d:	8b ee                	mov    %esi,%ebp
  40430f:	b9 89 9f 49 65       	mov    $0x65499f89,%ecx
  404314:	f7 dd                	neg    %ebp
  404316:	c1 cd 1d             	ror    $0x1d,%ebp
  404319:	ba 65 71 58 98       	mov    $0x98587165,%edx
  40431e:	81 ed 32 e8 dd 72    	sub    $0x72dde832,%ebp
  404324:	f7 dd                	neg    %ebp
  404326:	c1 cd e3             	ror    $0xe3,%ebp
  404329:	c1 ce 18             	ror    $0x18,%esi
  40432c:	0f cd                	bswap  %ebp
  40432e:	83 ed 9c             	sub    $0xffffff9c,%ebp
  404331:	d3 ca                	ror    %cl,%edx
  404333:	c1 cd 62             	ror    $0x62,%ebp
  404336:	d1 c5                	rol    %ebp
  404338:	f7 d5                	not    %ebp
  40433a:	83 c5 c9             	add    $0xffffffc9,%ebp
  40433d:	c1 c5 b0             	rol    $0xb0,%ebp
  404340:	4d                   	dec    %ebp
  404341:	d1 c5                	rol    %ebp
  404343:	55                   	push   %ebp
  404344:	5e                   	pop    %esi
  404345:	46                   	inc    %esi
  404346:	d1 ce                	ror    %esi
  404348:	f7 de                	neg    %esi
  40434a:	c1 c5 1c             	rol    $0x1c,%ebp
  40434d:	f7 d6                	not    %esi
  40434f:	c1 e7 11             	shl    $0x11,%edi
  404352:	c1 c6 0b             	rol    $0xb,%esi
  404355:	83 f6 e6             	xor    $0xffffffe6,%esi
  404358:	83 ee 49             	sub    $0x49,%esi
  40435b:	c1 da 14             	rcr    $0x14,%edx
  40435e:	0f ce                	bswap  %esi
  404360:	d1 ce                	ror    %esi
  404362:	c1 ce 9f             	ror    $0x9f,%esi
  404365:	81 ef 58 f4 59 0b    	sub    $0xb59f458,%edi
  40436b:	4e                   	dec    %esi
  40436c:	83 c6 e8             	add    $0xffffffe8,%esi
  40436f:	46                   	inc    %esi
  404370:	d3 d3                	rcl    %cl,%ebx
  404372:	f7 d6                	not    %esi
  404374:	d3 d3                	rcl    %cl,%ebx
  404376:	4e                   	dec    %esi
  404377:	81 ee 8c 30 48 f2    	sub    $0xf248308c,%esi
  40437d:	c1 ce 84             	ror    $0x84,%esi
  404380:	c1 d0 0e             	rcl    $0xe,%eax
  404383:	f7 de                	neg    %esi
  404385:	b9 6d f7 18 08       	mov    $0x818f76d,%ecx
  40438a:	81 c6 38 aa c5 03    	add    $0x3c5aa38,%esi
  404390:	0f ce                	bswap  %esi
  404392:	d3 e2                	shl    %cl,%edx
  404394:	f7 de                	neg    %esi
  404396:	25 94 5c 15 c1       	and    $0xc1155c94,%eax
  40439b:	46                   	inc    %esi
  40439c:	f7 de                	neg    %esi
  40439e:	0f ce                	bswap  %esi
  4043a0:	f7 de                	neg    %esi
  4043a2:	d1 c6                	rol    %esi
  4043a4:	d3 c7                	rol    %cl,%edi
  4043a6:	81 f6 10 91 35 41    	xor    $0x41359110,%esi
  4043ac:	83 cb 7a             	or     $0x7a,%ebx
  4043af:	0f ce                	bswap  %esi
  4043b1:	83 f6 a1             	xor    $0xffffffa1,%esi
  4043b4:	83 c6 a5             	add    $0xffffffa5,%esi
  4043b7:	1b dc                	sbb    %esp,%ebx
  4043b9:	c1 c6 15             	rol    $0x15,%esi
  4043bc:	c1 da 1e             	rcr    $0x1e,%edx
  4043bf:	4e                   	dec    %esi
  4043c0:	0f ce                	bswap  %esi
  4043c2:	1b d9                	sbb    %ecx,%ebx
  4043c4:	4e                   	dec    %esi
  4043c5:	81 e9 80 ac 52 93    	sub    $0x9352ac80,%ecx
  4043cb:	83 ee 96             	sub    $0xffffff96,%esi
  4043ce:	81 c6 64 38 94 55    	add    $0x55943864,%esi
  4043d4:	0f ce                	bswap  %esi
  4043d6:	f7 d6                	not    %esi
  4043d8:	8b f9                	mov    %ecx,%edi
  4043da:	0f ce                	bswap  %esi
  4043dc:	83 f6 97             	xor    $0xffffff97,%esi
  4043df:	81 f6 03 2f 11 e4    	xor    $0xe4112f03,%esi
  4043e5:	0f ba e7 b5          	bt     $0xb5,%edi
  4043e9:	4e                   	dec    %esi
  4043ea:	81 d2 f1 78 16 a8    	adc    $0xa81678f1,%edx
  4043f0:	d1 ce                	ror    %esi
  4043f2:	83 ea ed             	sub    $0xffffffed,%edx
  4043f5:	81 f6 09 3d 24 02    	xor    $0x2243d09,%esi
  4043fb:	f8                   	clc    
  4043fc:	81 c6 74 65 44 a0    	add    $0xa0446574,%esi
  404402:	f8                   	clc    
  404403:	4e                   	dec    %esi
  404404:	f7 d3                	not    %ebx
  404406:	83 f6 03             	xor    $0x3,%esi
  404409:	f7 d6                	not    %esi
  40440b:	c1 c6 ed             	rol    $0xed,%esi
  40440e:	f7 d7                	not    %edi
  404410:	83 ee 5b             	sub    $0x5b,%esi
  404413:	46                   	inc    %esi
  404414:	f7 de                	neg    %esi
  404416:	83 db 12             	sbb    $0x12,%ebx
  404419:	c1 ce 85             	ror    $0x85,%esi
  40441c:	bb 53 34 83 e3       	mov    $0xe3833453,%ebx
  404421:	83 ee 8b             	sub    $0xffffff8b,%esi
  404424:	83 f6 8f             	xor    $0xffffff8f,%esi
  404427:	c1 c1 04             	rol    $0x4,%ecx
  40442a:	f7 de                	neg    %esi
  40442c:	81 c6 f8 f5 65 ab    	add    $0xab65f5f8,%esi
  404432:	c1 c6 7e             	rol    $0x7e,%esi
  404435:	83 f6 c5             	xor    $0xffffffc5,%esi
  404438:	c1 c6 35             	rol    $0x35,%esi
  40443b:	4e                   	dec    %esi
  40443c:	81 ee fe 1e a5 27    	sub    $0x27a51efe,%esi
  404442:	f7 d6                	not    %esi
  404444:	d1 c6                	rol    %esi
  404446:	13 d6                	adc    %esi,%edx
  404448:	81 f6 c0 95 a3 19    	xor    $0x19a395c0,%esi
  40444e:	d1 ce                	ror    %esi
  404450:	c1 c2 0f             	rol    $0xf,%edx
  404453:	f7 d6                	not    %esi
  404455:	83 c6 75             	add    $0x75,%esi
  404458:	0f ce                	bswap  %esi
  40445a:	c1 cd 05             	ror    $0x5,%ebp
  40445d:	81 c6 5a 1e 5f 51    	add    $0x515f1e5a,%esi
  404463:	c1 c6 86             	rol    $0x86,%esi
  404466:	4d                   	dec    %ebp
  404467:	f7 de                	neg    %esi
  404469:	0f ce                	bswap  %esi
  40446b:	f7 dd                	neg    %ebp
  40446d:	83 f6 b3             	xor    $0xffffffb3,%esi
  404470:	42                   	inc    %edx
  404471:	c1 ce c2             	ror    $0xc2,%esi
  404474:	83 f6 bb             	xor    $0xffffffbb,%esi
  404477:	8b d6                	mov    %esi,%edx
  404479:	c1 e1 16             	shl    $0x16,%ecx
  40447c:	d1 ca                	ror    %edx
  40447e:	81 ea 5f 2e 19 44    	sub    $0x44192e5f,%edx
  404484:	bf aa 4e c3 90       	mov    $0x90c34eaa,%edi
  404489:	c1 ca d7             	ror    $0xd7,%edx
  40448c:	d1 c2                	rol    %edx
  40448e:	fd                   	std    
  40448f:	f7 da                	neg    %edx
  404491:	0f ba f9 f3          	btc    $0xf3,%ecx
  404495:	d1 ca                	ror    %edx
  404497:	b9 62 e0 83 d3       	mov    $0xd383e062,%ecx
  40449c:	81 f2 58 74 19 cb    	xor    $0xcb197458,%edx
  4044a2:	f7 d1                	not    %ecx
  4044a4:	d1 c2                	rol    %edx
  4044a6:	d3 c5                	rol    %cl,%ebp
  4044a8:	4a                   	dec    %edx
  4044a9:	0f ca                	bswap  %edx
  4044ab:	c1 cb 02             	ror    $0x2,%ebx
  4044ae:	f7 da                	neg    %edx
  4044b0:	c1 e5 00             	shl    $0x0,%ebp
  4044b3:	c1 ca 59             	ror    $0x59,%edx
  4044b6:	bb 13 a8 b3 c9       	mov    $0xc9b3a813,%ebx
  4044bb:	42                   	inc    %edx
  4044bc:	52                   	push   %edx
  4044bd:	5e                   	pop    %esi
  4044be:	fc                   	cld    
  4044bf:	d1 c6                	rol    %esi
  4044c1:	81 ea 5e 1d 1a 4c    	sub    $0x4c1a1d5e,%edx
  4044c7:	81 f6 27 aa 98 17    	xor    $0x1798aa27,%esi
  4044cd:	d1 c6                	rol    %esi
  4044cf:	4b                   	dec    %ebx
  4044d0:	83 c6 00             	add    $0x0,%esi
  4044d3:	8b ce                	mov    %esi,%ecx
  4044d5:	f7 d1                	not    %ecx
  4044d7:	0f c9                	bswap  %ecx
  4044d9:	0f ba fd 89          	btc    $0x89,%ebp
  4044dd:	f7 d9                	neg    %ecx
  4044df:	83 f1 de             	xor    $0xffffffde,%ecx
  4044e2:	0f c9                	bswap  %ecx
  4044e4:	83 e9 b0             	sub    $0xffffffb0,%ecx
  4044e7:	3d 10 b0 d1 60       	cmp    $0x60d1b010,%eax
  4044ec:	d1 c1                	rol    %ecx
  4044ee:	83 d6 2f             	adc    $0x2f,%esi
  4044f1:	33 ed                	xor    %ebp,%ebp
  4044f3:	83 c1 fd             	add    $0xfffffffd,%ecx
  4044f6:	49                   	dec    %ecx
  4044f7:	c1 cf 19             	ror    $0x19,%edi
  4044fa:	81 e9 0b 66 ee 5d    	sub    $0x5dee660b,%ecx
  404500:	0f ba e2 43          	bt     $0x43,%edx
  404504:	33 e4                	xor    %esp,%esp
  404506:	41                   	inc    %ecx
  404507:	15 43 44 5f d8       	adc    $0xd85f4443,%eax
  40450c:	81 f1 8a e4 24 f6    	xor    $0xf624e48a,%ecx
  404512:	81 c1 88 54 7b 53    	add    $0x537b5488,%ecx
  404518:	f7 d0                	not    %eax
  40451a:	81 f1 c8 bc ff a9    	xor    $0xa9ffbcc8,%ecx
  404520:	0f ba ee 22          	bts    $0x22,%esi
  404524:	81 c1 72 57 fa e6    	add    $0xe6fa5772,%ecx
  40452a:	2b c1                	sub    %ecx,%eax
  40452c:	f7 d9                	neg    %ecx
  40452e:	c1 c1 26             	rol    $0x26,%ecx
  404531:	f7 d9                	neg    %ecx
  404533:	0f ba ef 14          	bts    $0x14,%edi
  404537:	83 f1 d6             	xor    $0xffffffd6,%ecx
  40453a:	83 c2 af             	add    $0xffffffaf,%edx
  40453d:	0f c9                	bswap  %ecx
  40453f:	f7 d1                	not    %ecx
  404541:	d1 c1                	rol    %ecx
  404543:	c1 e6 11             	shl    $0x11,%esi
  404546:	c1 c1 89             	rol    $0x89,%ecx
  404549:	83 f1 af             	xor    $0xffffffaf,%ecx
  40454c:	98                   	cwtl   
  40454d:	f7 d9                	neg    %ecx
  40454f:	f7 d1                	not    %ecx
  404551:	c1 c1 58             	rol    $0x58,%ecx
  404554:	83 f1 a6             	xor    $0xffffffa6,%ecx
  404557:	0f c9                	bswap  %ecx
  404559:	f7 d0                	not    %eax
  40455b:	81 f1 f4 56 49 ef    	xor    $0xef4956f4,%ecx
  404561:	1b f3                	sbb    %ebx,%esi
  404563:	c1 c1 93             	rol    $0x93,%ecx
  404566:	23 c4                	and    %esp,%eax
  404568:	83 f1 19             	xor    $0x19,%ecx
  40456b:	0f c9                	bswap  %ecx
  40456d:	83 f1 d2             	xor    $0xffffffd2,%ecx
  404570:	83 e9 72             	sub    $0x72,%ecx
  404573:	f7 d2                	not    %edx
  404575:	83 f1 d1             	xor    $0xffffffd1,%ecx
  404578:	81 ce 83 58 7b e6    	or     $0xe67b5883,%esi
  40457e:	0f c9                	bswap  %ecx
  404580:	81 e7 c4 aa 5c c5    	and    $0xc55caac4,%edi
  404586:	c1 c1 1b             	rol    $0x1b,%ecx
  404589:	f7 d1                	not    %ecx
  40458b:	c1 c8 1b             	ror    $0x1b,%eax
  40458e:	81 e9 24 d9 47 a9    	sub    $0xa947d924,%ecx
  404594:	f9                   	stc    
  404595:	0f c9                	bswap  %ecx
  404597:	81 e7 b3 56 76 e1    	and    $0xe17656b3,%edi
  40459d:	81 f1 98 06 28 4c    	xor    $0x4c280698,%ecx
  4045a3:	81 ef 36 16 a4 34    	sub    $0x34a41636,%edi
  4045a9:	83 e9 1a             	sub    $0x1a,%ecx
  4045ac:	33 e4                	xor    %esp,%esp
  4045ae:	d3 d7                	rcl    %cl,%edi
  4045b0:	c1 c1 40             	rol    $0x40,%ecx
  4045b3:	0f c9                	bswap  %ecx
  4045b5:	0b f1                	or     %ecx,%esi
  4045b7:	03 25 80 43 41 00    	add    0x414380,%esp
  4045bd:	23 f1                	and    %ecx,%esi
  4045bf:	13 ff                	adc    %edi,%edi
  4045c1:	c1 cf 1e             	ror    $0x1e,%edi
  4045c4:	83 c6 97             	add    $0xffffff97,%esi
  4045c7:	f7 d6                	not    %esi
  4045c9:	f7 d7                	not    %edi
  4045cb:	f7 d6                	not    %esi
  4045cd:	41                   	inc    %ecx
  4045ce:	d1 ce                	ror    %esi
  4045d0:	83 e3 a0             	and    $0xffffffa0,%ebx
  4045d3:	f7 de                	neg    %esi
  4045d5:	83 f6 e2             	xor    $0xffffffe2,%esi
  4045d8:	8b c6                	mov    %esi,%eax
  4045da:	61                   	popa   
  4045db:	f7 d8                	neg    %eax
  4045dd:	35 40 2a e2 d0       	xor    $0xd0e22a40,%eax
  4045e2:	c1 c8 fb             	ror    $0xfb,%eax
  4045e5:	2d 0d 60 e2 54       	sub    $0x54e2600d,%eax
  4045ea:	e8 61 cb ff ff       	call   0x401150
  4045ef:	05 b4 ac 4a c7       	add    $0xc74aacb4,%eax
  4045f4:	f7 d0                	not    %eax
  4045f6:	b8 3d cb 96 b7       	mov    $0xb796cb3d,%eax
  4045fb:	d1 c0                	rol    %eax
  4045fd:	83 e8 16             	sub    $0x16,%eax
  404600:	0f ba f0 1d          	btr    $0x1d,%eax
  404604:	05 3a d0 58 26       	add    $0x2658d03a,%eax
  404609:	c1 e0 17             	shl    $0x17,%eax
  40460c:	0f c8                	bswap  %eax
  40460e:	c1 c8 50             	ror    $0x50,%eax
  404611:	23 c4                	and    %esp,%eax
  404613:	35 3e c1 1d 8d       	xor    $0x8d1dc13e,%eax
  404618:	2d bc 03 6b dc       	sub    $0xdc6b03bc,%eax
  40461d:	d1 c8                	ror    %eax
  40461f:	2d 5d 06 0a fb       	sub    $0xfb0a065d,%eax
  404624:	23 c0                	and    %eax,%eax
  404626:	0f c8                	bswap  %eax
  404628:	c1 e8 09             	shr    $0x9,%eax
  40462b:	f7 d8                	neg    %eax
  40462d:	60                   	pusha  
  40462e:	89 25 80 43 41 00    	mov    %esp,0x414380
  404634:	b8 e2 ff ff ff       	mov    $0xffffffe2,%eax
  404639:	f7 d8                	neg    %eax
  40463b:	0f c8                	bswap  %eax
  40463d:	83 f0 8d             	xor    $0xffffff8d,%eax
  404640:	0f c8                	bswap  %eax
  404642:	81 ec 00 10 00 00    	sub    $0x1000,%esp
  404648:	50                   	push   %eax
  404649:	5d                   	pop    %ebp
  40464a:	83 f5 b8             	xor    $0xffffffb8,%ebp
  40464d:	81 ed f8 a4 b6 8e    	sub    $0x8eb6a4f8,%ebp
  404653:	83 f5 37             	xor    $0x37,%ebp
  404656:	c1 db 1d             	rcr    $0x1d,%ebx
  404659:	81 c5 b9 45 2b 38    	add    $0x382b45b9,%ebp
  40465f:	d3 da                	rcr    %cl,%edx
  404661:	83 ed 92             	sub    $0xffffff92,%ebp
  404664:	0b cc                	or     %esp,%ecx
  404666:	4d                   	dec    %ebp
  404667:	f8                   	clc    
  404668:	83 f5 07             	xor    $0x7,%ebp
  40466b:	f7 d3                	not    %ebx
  40466d:	d1 c5                	rol    %ebp
  40466f:	f7 d9                	neg    %ecx
  404671:	83 f5 28             	xor    $0x28,%ebp
  404674:	83 ed 39             	sub    $0x39,%ebp
  404677:	81 f5 8a 46 8d 55    	xor    $0x558d468a,%ebp
  40467d:	4d                   	dec    %ebp
  40467e:	f7 d5                	not    %ebp
  404680:	be 43 19 1a fd       	mov    $0xfd1a1943,%esi
  404685:	d1 cd                	ror    %ebp
  404687:	83 c5 10             	add    $0x10,%ebp
  40468a:	9f                   	lahf   
  40468b:	81 c5 d0 00 a2 f6    	add    $0xf6a200d0,%ebp
  404691:	0f cd                	bswap  %ebp
  404693:	81 f5 46 cb f5 bf    	xor    $0xbff5cb46,%ebp
  404699:	4d                   	dec    %ebp
  40469a:	f7 dd                	neg    %ebp
  40469c:	1b f0                	sbb    %eax,%esi
  40469e:	f7 d5                	not    %ebp
  4046a0:	83 c9 dd             	or     $0xffffffdd,%ecx
  4046a3:	0f cd                	bswap  %ebp
  4046a5:	f7 de                	neg    %esi
  4046a7:	83 ed a3             	sub    $0xffffffa3,%ebp
  4046aa:	f7 d5                	not    %ebp
  4046ac:	83 e3 48             	and    $0x48,%ebx
  4046af:	83 c5 47             	add    $0x47,%ebp
  4046b2:	4d                   	dec    %ebp
  4046b3:	0f cd                	bswap  %ebp
  4046b5:	83 da 5b             	sbb    $0x5b,%edx
  4046b8:	81 ed ca 0b 7a 43    	sub    $0x437a0bca,%ebp
  4046be:	d1 c5                	rol    %ebp
  4046c0:	f7 dd                	neg    %ebp
  4046c2:	c1 ea 1c             	shr    $0x1c,%edx
  4046c5:	c1 c5 0c             	rol    $0xc,%ebp
  4046c8:	f7 dd                	neg    %ebp
  4046ca:	c1 c5 4d             	rol    $0x4d,%ebp
  4046cd:	81 c5 b4 ac 4a c7    	add    $0xc74aacb4,%ebp
  4046d3:	fd                   	std    
  4046d4:	f7 d5                	not    %ebp
  4046d6:	bb 3d cb 96 b7       	mov    $0xb796cb3d,%ebx
  4046db:	d1 c5                	rol    %ebp
  4046dd:	83 ed 16             	sub    $0x16,%ebp
  4046e0:	0f ba f7 1d          	btr    $0x1d,%edi
  4046e4:	81 c5 3a d0 58 26    	add    $0x2658d03a,%ebp
  4046ea:	c1 e1 17             	shl    $0x17,%ecx
  4046ed:	0f cd                	bswap  %ebp
  4046ef:	d3 fe                	sar    %cl,%esi
  4046f1:	c1 cd 50             	ror    $0x50,%ebp
  4046f4:	23 f4                	and    %esp,%esi
  4046f6:	81 f5 3e c1 1d 8d    	xor    $0x8d1dc13e,%ebp
  4046fc:	81 e9 bc 03 6b dc    	sub    $0xdc6b03bc,%ecx
  404702:	d1 cd                	ror    %ebp
  404704:	81 ed 5d 06 0a fb    	sub    $0xfb0a065d,%ebp
  40470a:	23 c2                	and    %edx,%eax
  40470c:	0f cd                	bswap  %ebp
  40470e:	c1 eb 09             	shr    $0x9,%ebx
  404711:	f7 dd                	neg    %ebp
  404713:	f7 d1                	not    %ecx
  404715:	81 c5 e3 75 97 4b    	add    $0x4b9775e3,%ebp
  40471b:	49                   	dec    %ecx
  40471c:	83 f5 41             	xor    $0x41,%ebp
  40471f:	0f ba f1 d5          	btr    $0xd5,%ecx
  404723:	0f cd                	bswap  %ebp
  404725:	40                   	inc    %eax
  404726:	c1 cd 16             	ror    $0x16,%ebp
  404729:	f7 da                	neg    %edx
  40472b:	83 f5 04             	xor    $0x4,%ebp
  40472e:	45                   	inc    %ebp
  40472f:	83 f5 b9             	xor    $0xffffffb9,%ebp
  404732:	f7 d5                	not    %ebp
  404734:	8b cb                	mov    %ebx,%ecx
  404736:	c1 cd 76             	ror    $0x76,%ebp
  404739:	f7 d5                	not    %ebp
  40473b:	c1 eb 1b             	shr    $0x1b,%ebx
  40473e:	83 f5 c2             	xor    $0xffffffc2,%ebp
  404741:	81 c5 da 1f ea 03    	add    $0x3ea1fda,%ebp
  404747:	45                   	inc    %ebp
  404748:	83 f3 9d             	xor    $0xffffff9d,%ebx
  40474b:	81 f5 3e 7e 8a 35    	xor    $0x358a7e3e,%ebp
  404751:	0b f9                	or     %ecx,%edi
  404753:	81 c5 8c 69 9c 5a    	add    $0x5a9c698c,%ebp
  404759:	42                   	inc    %edx
  40475a:	83 f5 a3             	xor    $0xffffffa3,%ebp
  40475d:	83 c9 8b             	or     $0xffffff8b,%ecx
  404760:	c1 c5 76             	rol    $0x76,%ebp
  404763:	83 f5 b4             	xor    $0xffffffb4,%ebp
  404766:	bf c7 34 80 2e       	mov    $0x2e8034c7,%edi
  40476b:	f7 d5                	not    %ebp
  40476d:	47                   	inc    %edi
  40476e:	f7 dd                	neg    %ebp
  404770:	f7 db                	neg    %ebx
  404772:	83 c5 e8             	add    $0xffffffe8,%ebp
  404775:	f8                   	clc    
  404776:	0f cd                	bswap  %ebp
  404778:	45                   	inc    %ebp
  404779:	d3 fe                	sar    %cl,%esi
  40477b:	81 f5 3e e7 0d 8b    	xor    $0x8b0de73e,%ebp
  404781:	b9 f1 a6 b7 e3       	mov    $0xe3b7a6f1,%ecx
  404786:	0f cd                	bswap  %ebp
  404788:	83 df c3             	sbb    $0xffffffc3,%edi
  40478b:	f7 d5                	not    %ebp
  40478d:	d1 c5                	rol    %ebp
  40478f:	43                   	inc    %ebx
  404790:	f7 d5                	not    %ebp
  404792:	f9                   	stc    
  404793:	81 f5 f4 23 8c b4    	xor    $0xb48c23f4,%ebp
  404799:	0f ba e0 3b          	bt     $0x3b,%eax
  40479d:	d1 cd                	ror    %ebp
  40479f:	c1 cd 23             	ror    $0x23,%ebp
  4047a2:	83 f5 0a             	xor    $0xa,%ebp
  4047a5:	81 c5 46 45 d5 47    	add    $0x47d54546,%ebp
  4047ab:	81 f5 86 32 9e bf    	xor    $0xbf9e3286,%ebp
  4047b1:	f7 dd                	neg    %ebp
  4047b3:	c1 ff 04             	sar    $0x4,%edi
  4047b6:	83 c5 b2             	add    $0xffffffb2,%ebp
  4047b9:	f7 d5                	not    %ebp
  4047bb:	c1 cd f8             	ror    $0xf8,%ebp
  4047be:	d1 c5                	rol    %ebp
  4047c0:	f8                   	clc    
  4047c1:	81 f5 3f 5c 5b ff    	xor    $0xff5b5c3f,%ebp
  4047c7:	0f ba ee 7b          	bts    $0x7b,%esi
  4047cb:	83 f5 76             	xor    $0x76,%ebp
  4047ce:	c1 c5 b7             	rol    $0xb7,%ebp
  4047d1:	0f cd                	bswap  %ebp
  4047d3:	f7 d1                	not    %ecx
  4047d5:	f7 d5                	not    %ebp
  4047d7:	83 f5 cf             	xor    $0xffffffcf,%ebp
  4047da:	4e                   	dec    %esi
  4047db:	81 f5 ed e5 e6 9d    	xor    $0x9de6e5ed,%ebp
  4047e1:	d3 d0                	rcl    %cl,%eax
  4047e3:	f7 dd                	neg    %ebp
  4047e5:	25 3d dc d1 af       	and    $0xafd1dc3d,%eax
  4047ea:	4d                   	dec    %ebp
  4047eb:	83 df 24             	sbb    $0x24,%edi
  4047ee:	81 f5 21 d6 57 bb    	xor    $0xbb57d621,%ebp
  4047f4:	4d                   	dec    %ebp
  4047f5:	0f cd                	bswap  %ebp
  4047f7:	d1 cd                	ror    %ebp
  4047f9:	48                   	dec    %eax
  4047fa:	83 f5 bf             	xor    $0xffffffbf,%ebp
  4047fd:	81 c9 d0 12 17 8e    	or     $0x8e1712d0,%ecx
  404803:	81 f5 07 df 77 3b    	xor    $0x3b77df07,%ebp
  404809:	81 e3 18 d6 ed 9e    	and    $0x9eedd618,%ebx
  40480f:	c1 c5 00             	rol    $0x0,%ebp
  404812:	f7 d5                	not    %ebp
  404814:	81 ed ef ee e2 54    	sub    $0x54e2eeef,%ebp
  40481a:	0f cd                	bswap  %ebp
  40481c:	81 ce 1a 9d b6 5a    	or     $0x5ab69d1a,%esi
  404822:	d1 cd                	ror    %ebp
  404824:	1b c7                	sbb    %edi,%eax
  404826:	81 f5 5c de 83 89    	xor    $0x8983de5c,%ebp
  40482c:	f7 d5                	not    %ebp
  40482e:	f7 dd                	neg    %ebp
  404830:	0f ba e2 15          	bt     $0x15,%edx
  404834:	81 f5 cb 23 41 e0    	xor    $0xe04123cb,%ebp
  40483a:	f7 d7                	not    %edi
  40483c:	83 ed f2             	sub    $0xfffffff2,%ebp
  40483f:	81 f5 b9 6f 0b 0f    	xor    $0xf0b6fb9,%ebp
  404845:	4d                   	dec    %ebp
  404846:	81 c5 bd 6f 50 54    	add    $0x54506fbd,%ebp
  40484c:	f7 dd                	neg    %ebp
  40484e:	0f cd                	bswap  %ebp
  404850:	25 94 8f f5 f6       	and    $0xf6f58f94,%eax
  404855:	4d                   	dec    %ebp
  404856:	83 f5 08             	xor    $0x8,%ebp
  404859:	47                   	inc    %edi
  40485a:	0f cd                	bswap  %ebp
  40485c:	d1 cd                	ror    %ebp
  40485e:	83 f5 5f             	xor    $0x5f,%ebp
  404861:	bb f1 5d 5d 26       	mov    $0x265d5df1,%ebx
  404866:	81 ed f4 02 38 4a    	sub    $0x4a3802f4,%ebp
  40486c:	81 f5 96 99 74 d8    	xor    $0xd8749996,%ebp
  404872:	55                   	push   %ebp
  404873:	5f                   	pop    %edi
  404874:	83 ef 6e             	sub    $0x6e,%edi
  404877:	4f                   	dec    %edi
  404878:	f7 d8                	neg    %eax
  40487a:	f7 d7                	not    %edi
  40487c:	f7 db                	neg    %ebx
  40487e:	83 f7 5f             	xor    $0x5f,%edi
  404881:	81 ef e1 56 77 2e    	sub    $0x2e7756e1,%edi
  404887:	83 c7 fb             	add    $0xfffffffb,%edi
  40488a:	81 ef ad aa d2 e1    	sub    $0xe1d2aaad,%edi
  404890:	f7 d7                	not    %edi
  404892:	81 c7 19 26 0c ca    	add    $0xca0c2619,%edi
  404898:	d1 cf                	ror    %edi
  40489a:	f7 d7                	not    %edi
  40489c:	0b df                	or     %edi,%ebx
  40489e:	23 df                	and    %edi,%ebx
  4048a0:	43                   	inc    %ebx
  4048a1:	d3 e6                	shl    %cl,%esi
  4048a3:	f7 db                	neg    %ebx
  4048a5:	4b                   	dec    %ebx
  4048a6:	83 de 51             	sbb    $0x51,%esi
  4048a9:	83 f3 96             	xor    $0xffffff96,%ebx
  4048ac:	c1 c3 d0             	rol    $0xd0,%ebx
  4048af:	0f ba f2 c9          	btr    $0xc9,%edx
  4048b3:	81 f3 cb 5d 99 5e    	xor    $0x5e995dcb,%ebx
  4048b9:	f7 df                	neg    %edi
  4048bb:	83 eb 30             	sub    $0x30,%ebx
  4048be:	1b c4                	sbb    %esp,%eax
  4048c0:	4b                   	dec    %ebx
  4048c1:	13 d4                	adc    %esp,%edx
  4048c3:	f7 d3                	not    %ebx
  4048c5:	81 f3 ee 3c 36 db    	xor    $0xdb363cee,%ebx
  4048cb:	0f cb                	bswap  %ebx
  4048cd:	d3 de                	rcr    %cl,%esi
  4048cf:	81 f3 ed 26 b9 53    	xor    $0x53b926ed,%ebx
  4048d5:	2b f6                	sub    %esi,%esi
  4048d7:	c1 cb e5             	ror    $0xe5,%ebx
  4048da:	f8                   	clc    
  4048db:	d1 c3                	rol    %ebx
  4048dd:	f7 d3                	not    %ebx
  4048df:	43                   	inc    %ebx
  4048e0:	13 ff                	adc    %edi,%edi
  4048e2:	83 f3 18             	xor    $0x18,%ebx
  4048e5:	f7 d3                	not    %ebx
  4048e7:	83 ef 28             	sub    $0x28,%edi
  4048ea:	f7 db                	neg    %ebx
  4048ec:	83 f3 27             	xor    $0x27,%ebx
  4048ef:	bf 08 84 83 50       	mov    $0x50838408,%edi
  4048f4:	4b                   	dec    %ebx
  4048f5:	81 f3 e5 3c 87 cf    	xor    $0xcf873ce5,%ebx
  4048fb:	f9                   	stc    
  4048fc:	83 f3 75             	xor    $0x75,%ebx
  4048ff:	2f                   	das    
  404900:	c1 c3 b5             	rol    $0xb5,%ebx
  404903:	81 c3 9c d3 94 ed    	add    $0xed94d39c,%ebx
  404909:	83 f3 3c             	xor    $0x3c,%ebx
  40490c:	83 c3 21             	add    $0x21,%ebx
  40490f:	f7 d6                	not    %esi
  404911:	83 f3 09             	xor    $0x9,%ebx
  404914:	3f                   	aas    
  404915:	81 f3 da 9d 96 ec    	xor    $0xec969dda,%ebx
  40491b:	81 eb 26 34 87 64    	sub    $0x64873426,%ebx
  404921:	d1 c3                	rol    %ebx
  404923:	c1 cb b5             	ror    $0xb5,%ebx
  404926:	0f ba f8 93          	btc    $0x93,%eax
