
official:     file format elf64-x86-64


Disassembly of section .init:

0000000000000d40 <_init@@Base>:
 d40:	48 83 ec 08          	sub    $0x8,%rsp
 d44:	48 8b 05 bd 21 20 00 	mov    0x2021bd(%rip),%rax        # 202f08 <_fini@@Base+0x201054>
 d4b:	48 85 c0             	test   %rax,%rax
 d4e:	74 05                	je     d55 <_init@@Base+0x15>
 d50:	e8 3b 00 00 00       	callq  d90 <_init@@Base+0x50>
 d55:	48 83 c4 08          	add    $0x8,%rsp
 d59:	c3                   	retq   

Disassembly of section .plt:

0000000000000d60 <.plt>:
 d60:	ff 35 72 21 20 00    	pushq  0x202172(%rip)        # 202ed8 <_fini@@Base+0x201024>
 d66:	ff 25 74 21 20 00    	jmpq   *0x202174(%rip)        # 202ee0 <_fini@@Base+0x20102c>
 d6c:	0f 1f 40 00          	nopl   0x0(%rax)

Disassembly of section .plt.got:

0000000000000d70 <.plt.got>:
 d70:	ff 25 72 21 20 00    	jmpq   *0x202172(%rip)        # 202ee8 <_fini@@Base+0x201034>
 d76:	66 90                	xchg   %ax,%ax
 d78:	ff 25 72 21 20 00    	jmpq   *0x202172(%rip)        # 202ef0 <_fini@@Base+0x20103c>
 d7e:	66 90                	xchg   %ax,%ax
 d80:	ff 25 72 21 20 00    	jmpq   *0x202172(%rip)        # 202ef8 <_fini@@Base+0x201044>
 d86:	66 90                	xchg   %ax,%ax
 d88:	ff 25 72 21 20 00    	jmpq   *0x202172(%rip)        # 202f00 <_fini@@Base+0x20104c>
 d8e:	66 90                	xchg   %ax,%ax
 d90:	ff 25 72 21 20 00    	jmpq   *0x202172(%rip)        # 202f08 <_fini@@Base+0x201054>
 d96:	66 90                	xchg   %ax,%ax
 d98:	ff 25 7a 21 20 00    	jmpq   *0x20217a(%rip)        # 202f18 <_fini@@Base+0x201064>
 d9e:	66 90                	xchg   %ax,%ax
 da0:	ff 25 7a 21 20 00    	jmpq   *0x20217a(%rip)        # 202f20 <_fini@@Base+0x20106c>
 da6:	66 90                	xchg   %ax,%ax
 da8:	ff 25 7a 21 20 00    	jmpq   *0x20217a(%rip)        # 202f28 <_fini@@Base+0x201074>
 dae:	66 90                	xchg   %ax,%ax
 db0:	ff 25 7a 21 20 00    	jmpq   *0x20217a(%rip)        # 202f30 <_fini@@Base+0x20107c>
 db6:	66 90                	xchg   %ax,%ax
 db8:	ff 25 7a 21 20 00    	jmpq   *0x20217a(%rip)        # 202f38 <_fini@@Base+0x201084>
 dbe:	66 90                	xchg   %ax,%ax
 dc0:	ff 25 7a 21 20 00    	jmpq   *0x20217a(%rip)        # 202f40 <_fini@@Base+0x20108c>
 dc6:	66 90                	xchg   %ax,%ax
 dc8:	ff 25 7a 21 20 00    	jmpq   *0x20217a(%rip)        # 202f48 <_fini@@Base+0x201094>
 dce:	66 90                	xchg   %ax,%ax
 dd0:	ff 25 7a 21 20 00    	jmpq   *0x20217a(%rip)        # 202f50 <_fini@@Base+0x20109c>
 dd6:	66 90                	xchg   %ax,%ax
 dd8:	ff 25 7a 21 20 00    	jmpq   *0x20217a(%rip)        # 202f58 <_fini@@Base+0x2010a4>
 dde:	66 90                	xchg   %ax,%ax
 de0:	ff 25 7a 21 20 00    	jmpq   *0x20217a(%rip)        # 202f60 <_fini@@Base+0x2010ac>
 de6:	66 90                	xchg   %ax,%ax
 de8:	ff 25 82 21 20 00    	jmpq   *0x202182(%rip)        # 202f70 <_fini@@Base+0x2010bc>
 dee:	66 90                	xchg   %ax,%ax
 df0:	ff 25 8a 21 20 00    	jmpq   *0x20218a(%rip)        # 202f80 <_fini@@Base+0x2010cc>
 df6:	66 90                	xchg   %ax,%ax
 df8:	ff 25 8a 21 20 00    	jmpq   *0x20218a(%rip)        # 202f88 <_fini@@Base+0x2010d4>
 dfe:	66 90                	xchg   %ax,%ax
 e00:	ff 25 8a 21 20 00    	jmpq   *0x20218a(%rip)        # 202f90 <_fini@@Base+0x2010dc>
 e06:	66 90                	xchg   %ax,%ax
 e08:	ff 25 92 21 20 00    	jmpq   *0x202192(%rip)        # 202fa0 <_fini@@Base+0x2010ec>
 e0e:	66 90                	xchg   %ax,%ax
 e10:	ff 25 92 21 20 00    	jmpq   *0x202192(%rip)        # 202fa8 <_fini@@Base+0x2010f4>
 e16:	66 90                	xchg   %ax,%ax
 e18:	ff 25 92 21 20 00    	jmpq   *0x202192(%rip)        # 202fb0 <_fini@@Base+0x2010fc>
 e1e:	66 90                	xchg   %ax,%ax
 e20:	ff 25 92 21 20 00    	jmpq   *0x202192(%rip)        # 202fb8 <_fini@@Base+0x201104>
 e26:	66 90                	xchg   %ax,%ax
 e28:	ff 25 92 21 20 00    	jmpq   *0x202192(%rip)        # 202fc0 <_fini@@Base+0x20110c>
 e2e:	66 90                	xchg   %ax,%ax
 e30:	ff 25 92 21 20 00    	jmpq   *0x202192(%rip)        # 202fc8 <_fini@@Base+0x201114>
 e36:	66 90                	xchg   %ax,%ax
 e38:	ff 25 92 21 20 00    	jmpq   *0x202192(%rip)        # 202fd0 <_fini@@Base+0x20111c>
 e3e:	66 90                	xchg   %ax,%ax
 e40:	ff 25 9a 21 20 00    	jmpq   *0x20219a(%rip)        # 202fe0 <_fini@@Base+0x20112c>
 e46:	66 90                	xchg   %ax,%ax
 e48:	ff 25 9a 21 20 00    	jmpq   *0x20219a(%rip)        # 202fe8 <_fini@@Base+0x201134>
 e4e:	66 90                	xchg   %ax,%ax
 e50:	ff 25 9a 21 20 00    	jmpq   *0x20219a(%rip)        # 202ff0 <_fini@@Base+0x20113c>
 e56:	66 90                	xchg   %ax,%ax

Disassembly of section .text:

0000000000000e60 <.text>:
     e60:	31 ed                	xor    %ebp,%ebp
     e62:	49 89 d1             	mov    %rdx,%r9
     e65:	5e                   	pop    %rsi
     e66:	48 89 e2             	mov    %rsp,%rdx
     e69:	48 83 e4 f0          	and    $0xfffffffffffffff0,%rsp
     e6d:	50                   	push   %rax
     e6e:	54                   	push   %rsp
     e6f:	4c 8d 05 3a 10 00 00 	lea    0x103a(%rip),%r8        # 1eb0 <_init@@Base+0x1170>
     e76:	48 8d 0d c3 0f 00 00 	lea    0xfc3(%rip),%rcx        # 1e40 <_init@@Base+0x1100>
     e7d:	48 8d 3d 0c 01 00 00 	lea    0x10c(%rip),%rdi        # f90 <_init@@Base+0x250>
     e84:	e8 3f ff ff ff       	callq  dc8 <_init@@Base+0x88>
     e89:	f4                   	hlt    
     e8a:	66 0f 1f 44 00 00    	nopw   0x0(%rax,%rax,1)
     e90:	48 8d 3d 79 21 20 00 	lea    0x202179(%rip),%rdi        # 203010 <_edata@@Base>
     e97:	48 8d 05 79 21 20 00 	lea    0x202179(%rip),%rax        # 203017 <_edata@@Base+0x7>
     e9e:	55                   	push   %rbp
     e9f:	48 29 f8             	sub    %rdi,%rax
     ea2:	48 89 e5             	mov    %rsp,%rbp
     ea5:	48 83 f8 0e          	cmp    $0xe,%rax
     ea9:	76 15                	jbe    ec0 <_init@@Base+0x180>
     eab:	48 8b 05 b6 20 20 00 	mov    0x2020b6(%rip),%rax        # 202f68 <_fini@@Base+0x2010b4>
     eb2:	48 85 c0             	test   %rax,%rax
     eb5:	74 09                	je     ec0 <_init@@Base+0x180>
     eb7:	5d                   	pop    %rbp
     eb8:	ff e0                	jmpq   *%rax
     eba:	66 0f 1f 44 00 00    	nopw   0x0(%rax,%rax,1)
     ec0:	5d                   	pop    %rbp
     ec1:	c3                   	retq   
     ec2:	0f 1f 40 00          	nopl   0x0(%rax)
     ec6:	66 2e 0f 1f 84 00 00 	nopw   %cs:0x0(%rax,%rax,1)
     ecd:	00 00 00 
     ed0:	48 8d 3d 39 21 20 00 	lea    0x202139(%rip),%rdi        # 203010 <_edata@@Base>
     ed7:	48 8d 35 32 21 20 00 	lea    0x202132(%rip),%rsi        # 203010 <_edata@@Base>
     ede:	55                   	push   %rbp
     edf:	48 29 fe             	sub    %rdi,%rsi
     ee2:	48 89 e5             	mov    %rsp,%rbp
     ee5:	48 c1 fe 03          	sar    $0x3,%rsi
     ee9:	48 89 f0             	mov    %rsi,%rax
     eec:	48 c1 e8 3f          	shr    $0x3f,%rax
     ef0:	48 01 c6             	add    %rax,%rsi
     ef3:	48 d1 fe             	sar    %rsi
     ef6:	74 18                	je     f10 <_init@@Base+0x1d0>
     ef8:	48 8b 05 79 20 20 00 	mov    0x202079(%rip),%rax        # 202f78 <_fini@@Base+0x2010c4>
     eff:	48 85 c0             	test   %rax,%rax
     f02:	74 0c                	je     f10 <_init@@Base+0x1d0>
     f04:	5d                   	pop    %rbp
     f05:	ff e0                	jmpq   *%rax
     f07:	66 0f 1f 84 00 00 00 	nopw   0x0(%rax,%rax,1)
     f0e:	00 00 
     f10:	5d                   	pop    %rbp
     f11:	c3                   	retq   
     f12:	0f 1f 40 00          	nopl   0x0(%rax)
     f16:	66 2e 0f 1f 84 00 00 	nopw   %cs:0x0(%rax,%rax,1)
     f1d:	00 00 00 
     f20:	80 3d f9 20 20 00 00 	cmpb   $0x0,0x2020f9(%rip)        # 203020 <_edata@@Base+0x10>
     f27:	75 27                	jne    f50 <_init@@Base+0x210>
     f29:	48 83 3d 4f 20 20 00 	cmpq   $0x0,0x20204f(%rip)        # 202f80 <_fini@@Base+0x2010cc>
     f30:	00 
     f31:	55                   	push   %rbp
     f32:	48 89 e5             	mov    %rsp,%rbp
     f35:	74 0c                	je     f43 <_init@@Base+0x203>
     f37:	48 8b 3d ca 20 20 00 	mov    0x2020ca(%rip),%rdi        # 203008 <_fini@@Base+0x201154>
     f3e:	e8 ad fe ff ff       	callq  df0 <_init@@Base+0xb0>
     f43:	e8 48 ff ff ff       	callq  e90 <_init@@Base+0x150>
     f48:	5d                   	pop    %rbp
     f49:	c6 05 d0 20 20 00 01 	movb   $0x1,0x2020d0(%rip)        # 203020 <_edata@@Base+0x10>
     f50:	f3 c3                	repz retq 
     f52:	0f 1f 40 00          	nopl   0x0(%rax)
     f56:	66 2e 0f 1f 84 00 00 	nopw   %cs:0x0(%rax,%rax,1)
     f5d:	00 00 00 
     f60:	48 8d 3d 61 1d 20 00 	lea    0x201d61(%rip),%rdi        # 202cc8 <_fini@@Base+0x200e14>
     f67:	48 83 3f 00          	cmpq   $0x0,(%rdi)
     f6b:	75 0b                	jne    f78 <_init@@Base+0x238>
     f6d:	e9 5e ff ff ff       	jmpq   ed0 <_init@@Base+0x190>
     f72:	66 0f 1f 44 00 00    	nopw   0x0(%rax,%rax,1)
     f78:	48 8b 05 91 1f 20 00 	mov    0x201f91(%rip),%rax        # 202f10 <_fini@@Base+0x20105c>
     f7f:	48 85 c0             	test   %rax,%rax
     f82:	74 e9                	je     f6d <_init@@Base+0x22d>
     f84:	55                   	push   %rbp
     f85:	48 89 e5             	mov    %rsp,%rbp
     f88:	ff d0                	callq  *%rax
     f8a:	5d                   	pop    %rbp
     f8b:	e9 40 ff ff ff       	jmpq   ed0 <_init@@Base+0x190>
     f90:	55                   	push   %rbp
     f91:	48 89 e5             	mov    %rsp,%rbp
     f94:	48 83 ec 10          	sub    $0x10,%rsp
     f98:	48 8b 05 f9 1f 20 00 	mov    0x201ff9(%rip),%rax        # 202f98 <_fini@@Base+0x2010e4>
     f9f:	48 8b 00             	mov    (%rax),%rax
     fa2:	be 00 00 00 00       	mov    $0x0,%esi
     fa7:	48 89 c7             	mov    %rax,%rdi
     faa:	e8 59 fe ff ff       	callq  e08 <_init@@Base+0xc8>
     faf:	48 8b 05 42 20 20 00 	mov    0x202042(%rip),%rax        # 202ff8 <_fini@@Base+0x201144>
     fb6:	48 8b 00             	mov    (%rax),%rax
     fb9:	be 00 00 00 00       	mov    $0x0,%esi
     fbe:	48 89 c7             	mov    %rax,%rdi
     fc1:	e8 42 fe ff ff       	callq  e08 <_init@@Base+0xc8>
     fc6:	48 8b 05 0b 20 20 00 	mov    0x20200b(%rip),%rax        # 202fd8 <_fini@@Base+0x201124>
     fcd:	48 8b 00             	mov    (%rax),%rax
     fd0:	be 00 00 00 00       	mov    $0x0,%esi
     fd5:	48 89 c7             	mov    %rax,%rdi
     fd8:	e8 2b fe ff ff       	callq  e08 <_init@@Base+0xc8>
     fdd:	bf 50 00 00 00       	mov    $0x50,%edi
     fe2:	e8 d1 fd ff ff       	callq  db8 <_init@@Base+0x78>
     fe7:	48 89 45 f8          	mov    %rax,-0x8(%rbp)
     feb:	48 8b 45 f8          	mov    -0x8(%rbp),%rax
     fef:	48 89 c7             	mov    %rax,%rdi
     ff2:	e8 24 00 00 00       	callq  101b <_init@@Base+0x2db>
     ff7:	48 8b 45 f8          	mov    -0x8(%rbp),%rax
     ffb:	48 89 c7             	mov    %rax,%rdi
     ffe:	b8 00 00 00 00       	mov    $0x0,%eax
    1003:	e8 28 02 00 00       	callq  1230 <_init@@Base+0x4f0>
    1008:	48 8d 3d 96 12 00 00 	lea    0x1296(%rip),%rdi        # 22a5 <_fini@@Base+0x3f1>
    100f:	e8 84 fd ff ff       	callq  d98 <_init@@Base+0x58>
    1014:	b8 00 00 00 00       	mov    $0x0,%eax
    1019:	c9                   	leaveq 
    101a:	c3                   	retq   
    101b:	55                   	push   %rbp
    101c:	48 89 e5             	mov    %rsp,%rbp
    101f:	48 83 ec 20          	sub    $0x20,%rsp
    1023:	48 89 7d e8          	mov    %rdi,-0x18(%rbp)
    1027:	48 8b 45 e8          	mov    -0x18(%rbp),%rax
    102b:	48 89 c7             	mov    %rax,%rdi
    102e:	e8 ed fd ff ff       	callq  e20 <_init@@Base+0xe0>
    1033:	48 8b 45 e8          	mov    -0x18(%rbp),%rax
    1037:	48 83 c0 10          	add    $0x10,%rax
    103b:	48 89 c7             	mov    %rax,%rdi
    103e:	e8 dd fd ff ff       	callq  e20 <_init@@Base+0xe0>
    1043:	48 8b 45 e8          	mov    -0x18(%rbp),%rax
    1047:	48 83 c0 20          	add    $0x20,%rax
    104b:	48 89 c7             	mov    %rax,%rdi
    104e:	e8 cd fd ff ff       	callq  e20 <_init@@Base+0xe0>
    1053:	48 8b 45 e8          	mov    -0x18(%rbp),%rax
    1057:	48 83 c0 30          	add    $0x30,%rax
    105b:	48 89 c7             	mov    %rax,%rdi
    105e:	e8 bd fd ff ff       	callq  e20 <_init@@Base+0xe0>
    1063:	48 8b 45 e8          	mov    -0x18(%rbp),%rax
    1067:	48 83 c0 40          	add    $0x40,%rax
    106b:	48 89 c7             	mov    %rax,%rdi
    106e:	e8 ad fd ff ff       	callq  e20 <_init@@Base+0xe0>
    1073:	48 8d 35 3c 12 00 00 	lea    0x123c(%rip),%rsi        # 22b6 <_fini@@Base+0x402>
    107a:	48 8d 3d 37 12 00 00 	lea    0x1237(%rip),%rdi        # 22b8 <_fini@@Base+0x404>
    1081:	e8 3a fd ff ff       	callq  dc0 <_init@@Base+0x80>
    1086:	48 89 45 f8          	mov    %rax,-0x8(%rbp)
    108a:	48 83 7d f8 00       	cmpq   $0x0,-0x8(%rbp)
    108f:	75 16                	jne    10a7 <_init@@Base+0x367>
    1091:	48 8d 3d 28 12 00 00 	lea    0x1228(%rip),%rdi        # 22c0 <_fini@@Base+0x40c>
    1098:	e8 fb fc ff ff       	callq  d98 <_init@@Base+0x58>
    109d:	bf 01 00 00 00       	mov    $0x1,%edi
    10a2:	e8 f9 fc ff ff       	callq  da0 <_init@@Base+0x60>
    10a7:	48 8b 45 f8          	mov    -0x8(%rbp),%rax
    10ab:	48 89 c2             	mov    %rax,%rdx
    10ae:	be 64 00 00 00       	mov    $0x64,%esi
    10b3:	48 8d 05 a6 20 20 00 	lea    0x2020a6(%rip),%rax        # 203160 <_edata@@Base+0x150>
    10ba:	48 89 c7             	mov    %rax,%rdi
    10bd:	e8 16 fd ff ff       	callq  dd8 <_init@@Base+0x98>
    10c2:	48 8b 45 f8          	mov    -0x8(%rbp),%rax
    10c6:	48 89 c7             	mov    %rax,%rdi
    10c9:	e8 62 fd ff ff       	callq  e30 <_init@@Base+0xf0>
    10ce:	48 8b 45 e8          	mov    -0x18(%rbp),%rax
    10d2:	ba 0a 00 00 00       	mov    $0xa,%edx
    10d7:	48 8d 0d 82 20 20 00 	lea    0x202082(%rip),%rcx        # 203160 <_edata@@Base+0x150>
    10de:	48 89 ce             	mov    %rcx,%rsi
    10e1:	48 89 c7             	mov    %rax,%rdi
    10e4:	e8 3f fd ff ff       	callq  e28 <_init@@Base+0xe8>
    10e9:	89 45 f4             	mov    %eax,-0xc(%rbp)
    10ec:	83 7d f4 00          	cmpl   $0x0,-0xc(%rbp)
    10f0:	74 1f                	je     1111 <_init@@Base+0x3d1>
    10f2:	48 8d 0d ff 13 00 00 	lea    0x13ff(%rip),%rcx        # 24f8 <_fini@@Base+0x644>
    10f9:	ba 5a 00 00 00       	mov    $0x5a,%edx
    10fe:	48 8d 35 e2 11 00 00 	lea    0x11e2(%rip),%rsi        # 22e7 <_fini@@Base+0x433>
    1105:	48 8d 3d e6 11 00 00 	lea    0x11e6(%rip),%rdi        # 22f2 <_fini@@Base+0x43e>
    110c:	e8 97 fc ff ff       	callq  da8 <_init@@Base+0x68>
    1111:	48 8d 05 b0 0d 00 00 	lea    0xdb0(%rip),%rax        # 1ec8 <_fini@@Base+0x14>
    1118:	48 8b 55 e8          	mov    -0x18(%rbp),%rdx
    111c:	48 8d 4a 10          	lea    0x10(%rdx),%rcx
    1120:	ba 0a 00 00 00       	mov    $0xa,%edx
    1125:	48 89 c6             	mov    %rax,%rsi
    1128:	48 89 cf             	mov    %rcx,%rdi
    112b:	e8 f8 fc ff ff       	callq  e28 <_init@@Base+0xe8>
    1130:	89 45 f4             	mov    %eax,-0xc(%rbp)
    1133:	83 7d f4 00          	cmpl   $0x0,-0xc(%rbp)
    1137:	74 1f                	je     1158 <_init@@Base+0x418>
    1139:	48 8d 0d b8 13 00 00 	lea    0x13b8(%rip),%rcx        # 24f8 <_fini@@Base+0x644>
    1140:	ba 5c 00 00 00       	mov    $0x5c,%edx
    1145:	48 8d 35 9b 11 00 00 	lea    0x119b(%rip),%rsi        # 22e7 <_fini@@Base+0x433>
    114c:	48 8d 3d 9f 11 00 00 	lea    0x119f(%rip),%rdi        # 22f2 <_fini@@Base+0x43e>
    1153:	e8 50 fc ff ff       	callq  da8 <_init@@Base+0x68>
    1158:	48 8d 05 a1 0e 00 00 	lea    0xea1(%rip),%rax        # 2000 <_fini@@Base+0x14c>
    115f:	48 8b 55 e8          	mov    -0x18(%rbp),%rdx
    1163:	48 8d 4a 20          	lea    0x20(%rdx),%rcx
    1167:	ba 0a 00 00 00       	mov    $0xa,%edx
    116c:	48 89 c6             	mov    %rax,%rsi
    116f:	48 89 cf             	mov    %rcx,%rdi
    1172:	e8 b1 fc ff ff       	callq  e28 <_init@@Base+0xe8>
    1177:	89 45 f4             	mov    %eax,-0xc(%rbp)
    117a:	83 7d f4 00          	cmpl   $0x0,-0xc(%rbp)
    117e:	74 1f                	je     119f <_init@@Base+0x45f>
    1180:	48 8d 0d 71 13 00 00 	lea    0x1371(%rip),%rcx        # 24f8 <_fini@@Base+0x644>
    1187:	ba 5e 00 00 00       	mov    $0x5e,%edx
    118c:	48 8d 35 54 11 00 00 	lea    0x1154(%rip),%rsi        # 22e7 <_fini@@Base+0x433>
    1193:	48 8d 3d 58 11 00 00 	lea    0x1158(%rip),%rdi        # 22f2 <_fini@@Base+0x43e>
    119a:	e8 09 fc ff ff       	callq  da8 <_init@@Base+0x68>
    119f:	48 8d 05 92 0f 00 00 	lea    0xf92(%rip),%rax        # 2138 <_fini@@Base+0x284>
    11a6:	48 8b 55 e8          	mov    -0x18(%rbp),%rdx
    11aa:	48 8d 4a 30          	lea    0x30(%rdx),%rcx
    11ae:	ba 0a 00 00 00       	mov    $0xa,%edx
    11b3:	48 89 c6             	mov    %rax,%rsi
    11b6:	48 89 cf             	mov    %rcx,%rdi
    11b9:	e8 6a fc ff ff       	callq  e28 <_init@@Base+0xe8>
    11be:	89 45 f4             	mov    %eax,-0xc(%rbp)
    11c1:	83 7d f4 00          	cmpl   $0x0,-0xc(%rbp)
    11c5:	74 1f                	je     11e6 <_init@@Base+0x4a6>
    11c7:	48 8d 0d 2a 13 00 00 	lea    0x132a(%rip),%rcx        # 24f8 <_fini@@Base+0x644>
    11ce:	ba 60 00 00 00       	mov    $0x60,%edx
    11d3:	48 8d 35 0d 11 00 00 	lea    0x110d(%rip),%rsi        # 22e7 <_fini@@Base+0x433>
    11da:	48 8d 3d 11 11 00 00 	lea    0x1111(%rip),%rdi        # 22f2 <_fini@@Base+0x43e>
    11e1:	e8 c2 fb ff ff       	callq  da8 <_init@@Base+0x68>
    11e6:	48 8d 05 83 0f 00 00 	lea    0xf83(%rip),%rax        # 2170 <_fini@@Base+0x2bc>
    11ed:	48 8b 55 e8          	mov    -0x18(%rbp),%rdx
    11f1:	48 8d 4a 40          	lea    0x40(%rdx),%rcx
    11f5:	ba 0a 00 00 00       	mov    $0xa,%edx
    11fa:	48 89 c6             	mov    %rax,%rsi
    11fd:	48 89 cf             	mov    %rcx,%rdi
    1200:	e8 23 fc ff ff       	callq  e28 <_init@@Base+0xe8>
    1205:	89 45 f4             	mov    %eax,-0xc(%rbp)
    1208:	83 7d f4 00          	cmpl   $0x0,-0xc(%rbp)
    120c:	74 1f                	je     122d <_init@@Base+0x4ed>
    120e:	48 8d 0d e3 12 00 00 	lea    0x12e3(%rip),%rcx        # 24f8 <_fini@@Base+0x644>
    1215:	ba 62 00 00 00       	mov    $0x62,%edx
    121a:	48 8d 35 c6 10 00 00 	lea    0x10c6(%rip),%rsi        # 22e7 <_fini@@Base+0x433>
    1221:	48 8d 3d ca 10 00 00 	lea    0x10ca(%rip),%rdi        # 22f2 <_fini@@Base+0x43e>
    1228:	e8 7b fb ff ff       	callq  da8 <_init@@Base+0x68>
    122d:	90                   	nop
    122e:	c9                   	leaveq 
    122f:	c3                   	retq   
    1230:	55                   	push   %rbp
    1231:	48 89 e5             	mov    %rsp,%rbp
    1234:	48 83 ec 20          	sub    $0x20,%rsp
    1238:	48 89 7d e8          	mov    %rdi,-0x18(%rbp)
    123c:	c6 45 ff 00          	movb   $0x0,-0x1(%rbp)
    1240:	e9 c5 00 00 00       	jmpq   130a <_init@@Base+0x5ca>
    1245:	b8 00 00 00 00       	mov    $0x0,%eax
    124a:	e8 c8 00 00 00       	callq  1317 <_init@@Base+0x5d7>
    124f:	48 8d 3d aa 10 00 00 	lea    0x10aa(%rip),%rdi        # 2300 <_fini@@Base+0x44c>
    1256:	e8 3d fb ff ff       	callq  d98 <_init@@Base+0x58>
    125b:	48 8d 3d d4 10 00 00 	lea    0x10d4(%rip),%rdi        # 2336 <_fini@@Base+0x482>
    1262:	e8 31 fb ff ff       	callq  d98 <_init@@Base+0x58>
    1267:	48 8d 3d d1 10 00 00 	lea    0x10d1(%rip),%rdi        # 233f <_fini@@Base+0x48b>
    126e:	e8 25 fb ff ff       	callq  d98 <_init@@Base+0x58>
    1273:	48 8d 3d d1 10 00 00 	lea    0x10d1(%rip),%rdi        # 234b <_fini@@Base+0x497>
    127a:	e8 19 fb ff ff       	callq  d98 <_init@@Base+0x58>
    127f:	48 8d 3d ce 10 00 00 	lea    0x10ce(%rip),%rdi        # 2354 <_fini@@Base+0x4a0>
    1286:	b8 00 00 00 00       	mov    $0x0,%eax
    128b:	e8 f8 fa ff ff       	callq  d88 <_init@@Base+0x48>
    1290:	b8 00 00 00 00       	mov    $0x0,%eax
    1295:	e8 55 0b 00 00       	callq  1def <_init@@Base+0x10af>
    129a:	88 45 ff             	mov    %al,-0x1(%rbp)
    129d:	0f be 45 ff          	movsbl -0x1(%rbp),%eax
    12a1:	83 e8 45             	sub    $0x45,%eax
    12a4:	83 f8 33             	cmp    $0x33,%eax
    12a7:	77 49                	ja     12f2 <_init@@Base+0x5b2>
    12a9:	89 c0                	mov    %eax,%eax
    12ab:	48 8d 14 85 00 00 00 	lea    0x0(,%rax,4),%rdx
    12b2:	00 
    12b3:	48 8d 05 c2 10 00 00 	lea    0x10c2(%rip),%rax        # 237c <_fini@@Base+0x4c8>
    12ba:	8b 04 02             	mov    (%rdx,%rax,1),%eax
    12bd:	48 63 d0             	movslq %eax,%rdx
    12c0:	48 8d 05 b5 10 00 00 	lea    0x10b5(%rip),%rax        # 237c <_fini@@Base+0x4c8>
    12c7:	48 01 d0             	add    %rdx,%rax
    12ca:	ff e0                	jmpq   *%rax
    12cc:	48 8b 45 e8          	mov    -0x18(%rbp),%rax
    12d0:	48 89 c7             	mov    %rax,%rdi
    12d3:	b8 00 00 00 00       	mov    $0x0,%eax
    12d8:	e8 e5 00 00 00       	callq  13c2 <_init@@Base+0x682>
    12dd:	eb 2b                	jmp    130a <_init@@Base+0x5ca>
    12df:	48 8b 45 e8          	mov    -0x18(%rbp),%rax
    12e3:	48 89 c7             	mov    %rax,%rdi
    12e6:	b8 00 00 00 00       	mov    $0x0,%eax
    12eb:	e8 cf 01 00 00       	callq  14bf <_init@@Base+0x77f>
    12f0:	eb 18                	jmp    130a <_init@@Base+0x5ca>
    12f2:	0f be 45 ff          	movsbl -0x1(%rbp),%eax
    12f6:	89 c6                	mov    %eax,%esi
    12f8:	48 8d 3d 59 10 00 00 	lea    0x1059(%rip),%rdi        # 2358 <_fini@@Base+0x4a4>
    12ff:	b8 00 00 00 00       	mov    $0x0,%eax
    1304:	e8 7f fa ff ff       	callq  d88 <_init@@Base+0x48>
    1309:	90                   	nop
    130a:	80 7d ff 45          	cmpb   $0x45,-0x1(%rbp)
    130e:	0f 85 31 ff ff ff    	jne    1245 <_init@@Base+0x505>
    1314:	90                   	nop
    1315:	c9                   	leaveq 
    1316:	c3                   	retq   
    1317:	55                   	push   %rbp
    1318:	48 89 e5             	mov    %rsp,%rbp
    131b:	48 83 ec 10          	sub    $0x10,%rsp
    131f:	48 8d 35 26 11 00 00 	lea    0x1126(%rip),%rsi        # 244c <_fini@@Base+0x598>
    1326:	48 8d 3d 22 11 00 00 	lea    0x1122(%rip),%rdi        # 244f <_fini@@Base+0x59b>
    132d:	e8 8e fa ff ff       	callq  dc0 <_init@@Base+0x80>
    1332:	48 89 45 f8          	mov    %rax,-0x8(%rbp)
    1336:	48 8b 45 f8          	mov    -0x8(%rbp),%rax
    133a:	48 89 c1             	mov    %rax,%rcx
    133d:	ba 01 00 00 00       	mov    $0x1,%edx
    1342:	be 14 00 00 00       	mov    $0x14,%esi
    1347:	48 8d 05 f2 1d 20 00 	lea    0x201df2(%rip),%rax        # 203140 <_edata@@Base+0x130>
    134e:	48 89 c7             	mov    %rax,%rdi
    1351:	e8 ba fa ff ff       	callq  e10 <_init@@Base+0xd0>
    1356:	90                   	nop
    1357:	c9                   	leaveq 
    1358:	c3                   	retq   
    1359:	55                   	push   %rbp
    135a:	48 89 e5             	mov    %rsp,%rbp
    135d:	c7 45 fc 00 00 00 00 	movl   $0x0,-0x4(%rbp)
    1364:	eb 53                	jmp    13b9 <_init@@Base+0x679>
    1366:	48 8d 15 d3 1d 20 00 	lea    0x201dd3(%rip),%rdx        # 203140 <_edata@@Base+0x130>
    136d:	8b 45 fc             	mov    -0x4(%rbp),%eax
    1370:	48 98                	cltq   
    1372:	0f b6 04 02          	movzbl (%rdx,%rax,1),%eax
    1376:	88 45 fb             	mov    %al,-0x5(%rbp)
    1379:	b8 13 00 00 00       	mov    $0x13,%eax
    137e:	2b 45 fc             	sub    -0x4(%rbp),%eax
    1381:	48 8d 15 b8 1d 20 00 	lea    0x201db8(%rip),%rdx        # 203140 <_edata@@Base+0x130>
    1388:	48 98                	cltq   
    138a:	0f b6 0c 02          	movzbl (%rdx,%rax,1),%ecx
    138e:	48 8d 15 ab 1d 20 00 	lea    0x201dab(%rip),%rdx        # 203140 <_edata@@Base+0x130>
    1395:	8b 45 fc             	mov    -0x4(%rbp),%eax
    1398:	48 98                	cltq   
    139a:	88 0c 02             	mov    %cl,(%rdx,%rax,1)
    139d:	b8 13 00 00 00       	mov    $0x13,%eax
    13a2:	2b 45 fc             	sub    -0x4(%rbp),%eax
    13a5:	48 8d 15 94 1d 20 00 	lea    0x201d94(%rip),%rdx        # 203140 <_edata@@Base+0x130>
    13ac:	48 98                	cltq   
    13ae:	0f b6 4d fb          	movzbl -0x5(%rbp),%ecx
    13b2:	88 0c 02             	mov    %cl,(%rdx,%rax,1)
    13b5:	83 45 fc 01          	addl   $0x1,-0x4(%rbp)
    13b9:	83 7d fc 09          	cmpl   $0x9,-0x4(%rbp)
    13bd:	7e a7                	jle    1366 <_init@@Base+0x626>
    13bf:	90                   	nop
    13c0:	5d                   	pop    %rbp
    13c1:	c3                   	retq   
    13c2:	55                   	push   %rbp
    13c3:	48 89 e5             	mov    %rsp,%rbp
    13c6:	48 83 ec 20          	sub    $0x20,%rsp
    13ca:	48 89 7d e8          	mov    %rdi,-0x18(%rbp)
    13ce:	48 8d 3d 87 10 00 00 	lea    0x1087(%rip),%rdi        # 245c <_fini@@Base+0x5a8>
    13d5:	b8 00 00 00 00       	mov    $0x0,%eax
    13da:	e8 a9 f9 ff ff       	callq  d88 <_init@@Base+0x48>
    13df:	be 00 01 00 00       	mov    $0x100,%esi
    13e4:	48 8d 05 55 1c 20 00 	lea    0x201c55(%rip),%rax        # 203040 <_edata@@Base+0x30>
    13eb:	48 89 c7             	mov    %rax,%rdi
    13ee:	e8 33 09 00 00       	callq  1d26 <_init@@Base+0xfe6>
    13f3:	89 45 fc             	mov    %eax,-0x4(%rbp)
    13f6:	ba 02 00 00 00       	mov    $0x2,%edx
    13fb:	48 8d 35 5f 10 00 00 	lea    0x105f(%rip),%rsi        # 2461 <_fini@@Base+0x5ad>
    1402:	48 8d 05 37 1c 20 00 	lea    0x201c37(%rip),%rax        # 203040 <_edata@@Base+0x30>
    1409:	48 89 c7             	mov    %rax,%rdi
    140c:	e8 9f f9 ff ff       	callq  db0 <_init@@Base+0x70>
    1411:	85 c0                	test   %eax,%eax
    1413:	75 21                	jne    1436 <_init@@Base+0x6f6>
    1415:	8b 45 fc             	mov    -0x4(%rbp),%eax
    1418:	48 63 d0             	movslq %eax,%rdx
    141b:	48 8b 45 e8          	mov    -0x18(%rbp),%rax
    141f:	48 8d 0d 1a 1c 20 00 	lea    0x201c1a(%rip),%rcx        # 203040 <_edata@@Base+0x30>
    1426:	48 89 ce             	mov    %rcx,%rsi
    1429:	48 89 c7             	mov    %rax,%rdi
    142c:	e8 9e 02 00 00       	callq  16cf <_init@@Base+0x98f>
    1431:	e9 86 00 00 00       	jmpq   14bc <_init@@Base+0x77c>
    1436:	ba 02 00 00 00       	mov    $0x2,%edx
    143b:	48 8d 35 22 10 00 00 	lea    0x1022(%rip),%rsi        # 2464 <_fini@@Base+0x5b0>
    1442:	48 8d 05 f7 1b 20 00 	lea    0x201bf7(%rip),%rax        # 203040 <_edata@@Base+0x30>
    1449:	48 89 c7             	mov    %rax,%rdi
    144c:	e8 5f f9 ff ff       	callq  db0 <_init@@Base+0x70>
    1451:	85 c0                	test   %eax,%eax
    1453:	75 1e                	jne    1473 <_init@@Base+0x733>
    1455:	8b 45 fc             	mov    -0x4(%rbp),%eax
    1458:	48 63 d0             	movslq %eax,%rdx
    145b:	48 8b 45 e8          	mov    -0x18(%rbp),%rax
    145f:	48 8d 0d da 1b 20 00 	lea    0x201bda(%rip),%rcx        # 203040 <_edata@@Base+0x30>
    1466:	48 89 ce             	mov    %rcx,%rsi
    1469:	48 89 c7             	mov    %rax,%rdi
    146c:	e8 5e 02 00 00       	callq  16cf <_init@@Base+0x98f>
    1471:	eb 49                	jmp    14bc <_init@@Base+0x77c>
    1473:	ba 04 00 00 00       	mov    $0x4,%edx
    1478:	48 8d 35 e8 0f 00 00 	lea    0xfe8(%rip),%rsi        # 2467 <_fini@@Base+0x5b3>
    147f:	48 8d 05 ba 1b 20 00 	lea    0x201bba(%rip),%rax        # 203040 <_edata@@Base+0x30>
    1486:	48 89 c7             	mov    %rax,%rdi
    1489:	e8 22 f9 ff ff       	callq  db0 <_init@@Base+0x70>
    148e:	85 c0                	test   %eax,%eax
    1490:	75 1e                	jne    14b0 <_init@@Base+0x770>
    1492:	8b 45 fc             	mov    -0x4(%rbp),%eax
    1495:	48 63 d0             	movslq %eax,%rdx
    1498:	48 8b 45 e8          	mov    -0x18(%rbp),%rax
    149c:	48 8d 0d 9d 1b 20 00 	lea    0x201b9d(%rip),%rcx        # 203040 <_edata@@Base+0x30>
    14a3:	48 89 ce             	mov    %rcx,%rsi
    14a6:	48 89 c7             	mov    %rax,%rdi
    14a9:	e8 21 02 00 00       	callq  16cf <_init@@Base+0x98f>
    14ae:	eb 0c                	jmp    14bc <_init@@Base+0x77c>
    14b0:	48 8d 3d b5 0f 00 00 	lea    0xfb5(%rip),%rdi        # 246c <_fini@@Base+0x5b8>
    14b7:	e8 dc f8 ff ff       	callq  d98 <_init@@Base+0x58>
    14bc:	90                   	nop
    14bd:	c9                   	leaveq 
    14be:	c3                   	retq   
    14bf:	55                   	push   %rbp
    14c0:	48 89 e5             	mov    %rsp,%rbp
    14c3:	48 81 ec 50 01 00 00 	sub    $0x150,%rsp
    14ca:	48 89 bd b8 fe ff ff 	mov    %rdi,-0x148(%rbp)
    14d1:	64 48 8b 04 25 28 00 	mov    %fs:0x28,%rax
    14d8:	00 00 
    14da:	48 89 45 f8          	mov    %rax,-0x8(%rbp)
    14de:	31 c0                	xor    %eax,%eax
    14e0:	48 8d 3d 75 0f 00 00 	lea    0xf75(%rip),%rdi        # 245c <_fini@@Base+0x5a8>
    14e7:	b8 00 00 00 00       	mov    $0x0,%eax
    14ec:	e8 97 f8 ff ff       	callq  d88 <_init@@Base+0x48>
    14f1:	be 00 01 00 00       	mov    $0x100,%esi
    14f6:	48 8d 05 43 1b 20 00 	lea    0x201b43(%rip),%rax        # 203040 <_edata@@Base+0x30>
    14fd:	48 89 c7             	mov    %rax,%rdi
    1500:	e8 21 08 00 00       	callq  1d26 <_init@@Base+0xfe6>
    1505:	89 85 cc fe ff ff    	mov    %eax,-0x134(%rbp)
    150b:	48 8d 3d 60 0f 00 00 	lea    0xf60(%rip),%rdi        # 2472 <_fini@@Base+0x5be>
    1512:	b8 00 00 00 00       	mov    $0x0,%eax
    1517:	e8 6c f8 ff ff       	callq  d88 <_init@@Base+0x48>
    151c:	48 8d 85 f0 fe ff ff 	lea    -0x110(%rbp),%rax
    1523:	be 3c 00 00 00       	mov    $0x3c,%esi
    1528:	48 89 c7             	mov    %rax,%rdi
    152b:	e8 f6 07 00 00       	callq  1d26 <_init@@Base+0xfe6>
    1530:	48 8d 3d 3e 0f 00 00 	lea    0xf3e(%rip),%rdi        # 2475 <_fini@@Base+0x5c1>
    1537:	b8 00 00 00 00       	mov    $0x0,%eax
    153c:	e8 47 f8 ff ff       	callq  d88 <_init@@Base+0x48>
    1541:	48 8d 85 70 ff ff ff 	lea    -0x90(%rbp),%rax
    1548:	be 3c 00 00 00       	mov    $0x3c,%esi
    154d:	48 89 c7             	mov    %rax,%rdi
    1550:	e8 d1 07 00 00       	callq  1d26 <_init@@Base+0xfe6>
    1555:	48 8d 85 d0 fe ff ff 	lea    -0x130(%rbp),%rax
    155c:	48 89 c7             	mov    %rax,%rdi
    155f:	e8 bc f8 ff ff       	callq  e20 <_init@@Base+0xe0>
    1564:	48 8d 85 e0 fe ff ff 	lea    -0x120(%rbp),%rax
    156b:	48 89 c7             	mov    %rax,%rdi
    156e:	e8 ad f8 ff ff       	callq  e20 <_init@@Base+0xe0>
    1573:	48 8d 8d f0 fe ff ff 	lea    -0x110(%rbp),%rcx
    157a:	48 8d 85 d0 fe ff ff 	lea    -0x130(%rbp),%rax
    1581:	ba 0a 00 00 00       	mov    $0xa,%edx
    1586:	48 89 ce             	mov    %rcx,%rsi
    1589:	48 89 c7             	mov    %rax,%rdi
    158c:	e8 97 f8 ff ff       	callq  e28 <_init@@Base+0xe8>
    1591:	48 8d 8d 70 ff ff ff 	lea    -0x90(%rbp),%rcx
    1598:	48 8d 85 e0 fe ff ff 	lea    -0x120(%rbp),%rax
    159f:	ba 0a 00 00 00       	mov    $0xa,%edx
    15a4:	48 89 ce             	mov    %rcx,%rsi
    15a7:	48 89 c7             	mov    %rax,%rdi
    15aa:	e8 79 f8 ff ff       	callq  e28 <_init@@Base+0xe8>
    15af:	8b 85 cc fe ff ff    	mov    -0x134(%rbp),%eax
    15b5:	48 63 d0             	movslq %eax,%rdx
    15b8:	48 8d b5 e0 fe ff ff 	lea    -0x120(%rbp),%rsi
    15bf:	48 8d 8d d0 fe ff ff 	lea    -0x130(%rbp),%rcx
    15c6:	48 8b 85 b8 fe ff ff 	mov    -0x148(%rbp),%rax
    15cd:	49 89 f0             	mov    %rsi,%r8
    15d0:	48 8d 35 69 1a 20 00 	lea    0x201a69(%rip),%rsi        # 203040 <_edata@@Base+0x30>
    15d7:	48 89 c7             	mov    %rax,%rdi
    15da:	e8 a2 03 00 00       	callq  1981 <_init@@Base+0xc41>
    15df:	85 c0                	test   %eax,%eax
    15e1:	0f 84 c5 00 00 00    	je     16ac <_init@@Base+0x96c>
    15e7:	ba 02 00 00 00       	mov    $0x2,%edx
    15ec:	48 8d 35 6e 0e 00 00 	lea    0xe6e(%rip),%rsi        # 2461 <_fini@@Base+0x5ad>
    15f3:	48 8d 05 46 1a 20 00 	lea    0x201a46(%rip),%rax        # 203040 <_edata@@Base+0x30>
    15fa:	48 89 c7             	mov    %rax,%rdi
    15fd:	e8 ae f7 ff ff       	callq  db0 <_init@@Base+0x70>
    1602:	85 c0                	test   %eax,%eax
    1604:	75 11                	jne    1617 <_init@@Base+0x8d7>
    1606:	48 8d 3d 6b 0e 00 00 	lea    0xe6b(%rip),%rdi        # 2478 <_fini@@Base+0x5c4>
    160d:	e8 be f7 ff ff       	callq  dd0 <_init@@Base+0x90>
    1612:	e9 a1 00 00 00       	jmpq   16b8 <_init@@Base+0x978>
    1617:	ba 02 00 00 00       	mov    $0x2,%edx
    161c:	48 8d 35 41 0e 00 00 	lea    0xe41(%rip),%rsi        # 2464 <_fini@@Base+0x5b0>
    1623:	48 8d 05 16 1a 20 00 	lea    0x201a16(%rip),%rax        # 203040 <_edata@@Base+0x30>
    162a:	48 89 c7             	mov    %rax,%rdi
    162d:	e8 7e f7 ff ff       	callq  db0 <_init@@Base+0x70>
    1632:	85 c0                	test   %eax,%eax
    1634:	75 0e                	jne    1644 <_init@@Base+0x904>
    1636:	48 8d 3d 43 0e 00 00 	lea    0xe43(%rip),%rdi        # 2480 <_fini@@Base+0x5cc>
    163d:	e8 8e f7 ff ff       	callq  dd0 <_init@@Base+0x90>
    1642:	eb 74                	jmp    16b8 <_init@@Base+0x978>
    1644:	ba 04 00 00 00       	mov    $0x4,%edx
    1649:	48 8d 35 17 0e 00 00 	lea    0xe17(%rip),%rsi        # 2467 <_fini@@Base+0x5b3>
    1650:	48 8d 05 e9 19 20 00 	lea    0x2019e9(%rip),%rax        # 203040 <_edata@@Base+0x30>
    1657:	48 89 c7             	mov    %rax,%rdi
    165a:	e8 51 f7 ff ff       	callq  db0 <_init@@Base+0x70>
    165f:	85 c0                	test   %eax,%eax
    1661:	75 0e                	jne    1671 <_init@@Base+0x931>
    1663:	48 8d 3d 1e 0e 00 00 	lea    0xe1e(%rip),%rdi        # 2488 <_fini@@Base+0x5d4>
    166a:	e8 61 f7 ff ff       	callq  dd0 <_init@@Base+0x90>
    166f:	eb 47                	jmp    16b8 <_init@@Base+0x978>
    1671:	ba 03 00 00 00       	mov    $0x3,%edx
    1676:	48 8d 35 15 0e 00 00 	lea    0xe15(%rip),%rsi        # 2492 <_fini@@Base+0x5de>
    167d:	48 8d 05 bc 19 20 00 	lea    0x2019bc(%rip),%rax        # 203040 <_edata@@Base+0x30>
    1684:	48 89 c7             	mov    %rax,%rdi
    1687:	e8 24 f7 ff ff       	callq  db0 <_init@@Base+0x70>
    168c:	85 c0                	test   %eax,%eax
    168e:	75 0e                	jne    169e <_init@@Base+0x95e>
    1690:	48 8d 3d ff 0d 00 00 	lea    0xdff(%rip),%rdi        # 2496 <_fini@@Base+0x5e2>
    1697:	e8 34 f7 ff ff       	callq  dd0 <_init@@Base+0x90>
    169c:	eb 1a                	jmp    16b8 <_init@@Base+0x978>
    169e:	48 8d 3d fa 0d 00 00 	lea    0xdfa(%rip),%rdi        # 249f <_fini@@Base+0x5eb>
    16a5:	e8 ee f6 ff ff       	callq  d98 <_init@@Base+0x58>
    16aa:	eb 0c                	jmp    16b8 <_init@@Base+0x978>
    16ac:	48 8d 3d 02 0e 00 00 	lea    0xe02(%rip),%rdi        # 24b5 <_fini@@Base+0x601>
    16b3:	e8 e0 f6 ff ff       	callq  d98 <_init@@Base+0x58>
    16b8:	90                   	nop
    16b9:	48 8b 45 f8          	mov    -0x8(%rbp),%rax
    16bd:	64 48 33 04 25 28 00 	xor    %fs:0x28,%rax
    16c4:	00 00 
    16c6:	74 05                	je     16cd <_init@@Base+0x98d>
    16c8:	e8 4b f7 ff ff       	callq  e18 <_init@@Base+0xd8>
    16cd:	c9                   	leaveq 
    16ce:	c3                   	retq   
    16cf:	55                   	push   %rbp
    16d0:	48 89 e5             	mov    %rsp,%rbp
    16d3:	48 83 ec 50          	sub    $0x50,%rsp
    16d7:	48 89 7d c8          	mov    %rdi,-0x38(%rbp)
    16db:	48 89 75 c0          	mov    %rsi,-0x40(%rbp)
    16df:	48 89 55 b8          	mov    %rdx,-0x48(%rbp)
    16e3:	64 48 8b 04 25 28 00 	mov    %fs:0x28,%rax
    16ea:	00 00 
    16ec:	48 89 45 f8          	mov    %rax,-0x8(%rbp)
    16f0:	31 c0                	xor    %eax,%eax
    16f2:	48 8d 45 d0          	lea    -0x30(%rbp),%rax
    16f6:	48 89 c7             	mov    %rax,%rdi
    16f9:	e8 22 f7 ff ff       	callq  e20 <_init@@Base+0xe0>
    16fe:	48 8d 45 e0          	lea    -0x20(%rbp),%rax
    1702:	48 89 c7             	mov    %rax,%rdi
    1705:	e8 16 f7 ff ff       	callq  e20 <_init@@Base+0xe0>
    170a:	48 8b 7d b8          	mov    -0x48(%rbp),%rdi
    170e:	48 8b 4d c0          	mov    -0x40(%rbp),%rcx
    1712:	48 8d 55 e0          	lea    -0x20(%rbp),%rdx
    1716:	48 8d 75 d0          	lea    -0x30(%rbp),%rsi
    171a:	48 8b 45 c8          	mov    -0x38(%rbp),%rax
    171e:	49 89 f8             	mov    %rdi,%r8
    1721:	48 89 c7             	mov    %rax,%rdi
    1724:	e8 47 00 00 00       	callq  1770 <_init@@Base+0xa30>
    1729:	48 8d 45 d0          	lea    -0x30(%rbp),%rax
    172d:	48 89 c6             	mov    %rax,%rsi
    1730:	48 8d 3d 93 0d 00 00 	lea    0xd93(%rip),%rdi        # 24ca <_fini@@Base+0x616>
    1737:	b8 00 00 00 00       	mov    $0x0,%eax
    173c:	e8 3f f6 ff ff       	callq  d80 <_init@@Base+0x40>
    1741:	48 8d 45 e0          	lea    -0x20(%rbp),%rax
    1745:	48 89 c6             	mov    %rax,%rsi
    1748:	48 8d 3d 83 0d 00 00 	lea    0xd83(%rip),%rdi        # 24d2 <_fini@@Base+0x61e>
    174f:	b8 00 00 00 00       	mov    $0x0,%eax
    1754:	e8 27 f6 ff ff       	callq  d80 <_init@@Base+0x40>
    1759:	90                   	nop
    175a:	48 8b 45 f8          	mov    -0x8(%rbp),%rax
    175e:	64 48 33 04 25 28 00 	xor    %fs:0x28,%rax
    1765:	00 00 
    1767:	74 05                	je     176e <_init@@Base+0xa2e>
    1769:	e8 aa f6 ff ff       	callq  e18 <_init@@Base+0xd8>
    176e:	c9                   	leaveq 
    176f:	c3                   	retq   
    1770:	55                   	push   %rbp
    1771:	48 89 e5             	mov    %rsp,%rbp
    1774:	48 81 ec d0 00 00 00 	sub    $0xd0,%rsp
    177b:	48 89 bd 58 ff ff ff 	mov    %rdi,-0xa8(%rbp)
    1782:	48 89 b5 50 ff ff ff 	mov    %rsi,-0xb0(%rbp)
    1789:	48 89 95 48 ff ff ff 	mov    %rdx,-0xb8(%rbp)
    1790:	48 89 8d 40 ff ff ff 	mov    %rcx,-0xc0(%rbp)
    1797:	4c 89 85 38 ff ff ff 	mov    %r8,-0xc8(%rbp)
    179e:	64 48 8b 04 25 28 00 	mov    %fs:0x28,%rax
    17a5:	00 00 
    17a7:	48 89 45 f8          	mov    %rax,-0x8(%rbp)
    17ab:	31 c0                	xor    %eax,%eax
    17ad:	48 8d 85 60 ff ff ff 	lea    -0xa0(%rbp),%rax
    17b4:	48 89 c7             	mov    %rax,%rdi
    17b7:	e8 64 f6 ff ff       	callq  e20 <_init@@Base+0xe0>
    17bc:	48 8d 85 70 ff ff ff 	lea    -0x90(%rbp),%rax
    17c3:	48 89 c7             	mov    %rax,%rdi
    17c6:	e8 55 f6 ff ff       	callq  e20 <_init@@Base+0xe0>
    17cb:	48 8d 45 80          	lea    -0x80(%rbp),%rax
    17cf:	48 89 c7             	mov    %rax,%rdi
    17d2:	e8 49 f6 ff ff       	callq  e20 <_init@@Base+0xe0>
    17d7:	48 8d 45 90          	lea    -0x70(%rbp),%rax
    17db:	48 89 c7             	mov    %rax,%rdi
    17de:	e8 3d f6 ff ff       	callq  e20 <_init@@Base+0xe0>
    17e3:	48 8d 45 a0          	lea    -0x60(%rbp),%rax
    17e7:	48 89 c7             	mov    %rax,%rdi
    17ea:	e8 31 f6 ff ff       	callq  e20 <_init@@Base+0xe0>
    17ef:	48 8d 45 b0          	lea    -0x50(%rbp),%rax
    17f3:	48 89 c7             	mov    %rax,%rdi
    17f6:	e8 25 f6 ff ff       	callq  e20 <_init@@Base+0xe0>
    17fb:	b8 00 00 00 00       	mov    $0x0,%eax
    1800:	e8 54 fb ff ff       	callq  1359 <_init@@Base+0x619>
    1805:	48 8d 45 c0          	lea    -0x40(%rbp),%rax
    1809:	ba 14 00 00 00       	mov    $0x14,%edx
    180e:	48 8d 0d 2b 19 20 00 	lea    0x20192b(%rip),%rcx        # 203140 <_edata@@Base+0x130>
    1815:	48 89 ce             	mov    %rcx,%rsi
    1818:	48 89 c7             	mov    %rax,%rdi
    181b:	e8 9f 04 00 00       	callq  1cbf <_init@@Base+0xf7f>
    1820:	48 8d 4d c0          	lea    -0x40(%rbp),%rcx
    1824:	48 8d 45 80          	lea    -0x80(%rbp),%rax
    1828:	ba 10 00 00 00       	mov    $0x10,%edx
    182d:	48 89 ce             	mov    %rcx,%rsi
    1830:	48 89 c7             	mov    %rax,%rdi
    1833:	e8 f0 f5 ff ff       	callq  e28 <_init@@Base+0xe8>
    1838:	48 8b 85 58 ff ff ff 	mov    -0xa8(%rbp),%rax
    183f:	48 8d 48 20          	lea    0x20(%rax),%rcx
    1843:	48 8b 85 58 ff ff ff 	mov    -0xa8(%rbp),%rax
    184a:	48 8d 70 40          	lea    0x40(%rax),%rsi
    184e:	48 8d 55 80          	lea    -0x80(%rbp),%rdx
    1852:	48 8d 85 60 ff ff ff 	lea    -0xa0(%rbp),%rax
    1859:	48 89 c7             	mov    %rax,%rdi
    185c:	e8 d7 f5 ff ff       	callq  e38 <_init@@Base+0xf8>
    1861:	48 8b 85 58 ff ff ff 	mov    -0xa8(%rbp),%rax
    1868:	48 8d 50 30          	lea    0x30(%rax),%rdx
    186c:	48 8d 8d 60 ff ff ff 	lea    -0xa0(%rbp),%rcx
    1873:	48 8d 85 60 ff ff ff 	lea    -0xa0(%rbp),%rax
    187a:	48 89 ce             	mov    %rcx,%rsi
    187d:	48 89 c7             	mov    %rax,%rdi
    1880:	e8 cb f5 ff ff       	callq  e50 <_init@@Base+0x110>
    1885:	48 8b 85 58 ff ff ff 	mov    -0xa8(%rbp),%rax
    188c:	48 8d 50 30          	lea    0x30(%rax),%rdx
    1890:	48 8d 4d 80          	lea    -0x80(%rbp),%rcx
    1894:	48 8d 45 90          	lea    -0x70(%rbp),%rax
    1898:	48 89 ce             	mov    %rcx,%rsi
    189b:	48 89 c7             	mov    %rax,%rdi
    189e:	e8 a5 f5 ff ff       	callq  e48 <_init@@Base+0x108>
    18a3:	48 8b 95 38 ff ff ff 	mov    -0xc8(%rbp),%rdx
    18aa:	48 8b 8d 40 ff ff ff 	mov    -0xc0(%rbp),%rcx
    18b1:	48 8d 45 a0          	lea    -0x60(%rbp),%rax
    18b5:	48 89 ce             	mov    %rcx,%rsi
    18b8:	48 89 c7             	mov    %rax,%rdi
    18bb:	e8 7e 03 00 00       	callq  1c3e <_init@@Base+0xefe>
    18c0:	48 8b 8d 58 ff ff ff 	mov    -0xa8(%rbp),%rcx
    18c7:	48 8d 95 60 ff ff ff 	lea    -0xa0(%rbp),%rdx
    18ce:	48 8d 45 b0          	lea    -0x50(%rbp),%rax
    18d2:	48 89 ce             	mov    %rcx,%rsi
    18d5:	48 89 c7             	mov    %rax,%rdi
    18d8:	e8 9b f4 ff ff       	callq  d78 <_init@@Base+0x38>
    18dd:	48 8d 55 b0          	lea    -0x50(%rbp),%rdx
    18e1:	48 8d 4d a0          	lea    -0x60(%rbp),%rcx
    18e5:	48 8d 85 70 ff ff ff 	lea    -0x90(%rbp),%rax
    18ec:	48 89 ce             	mov    %rcx,%rsi
    18ef:	48 89 c7             	mov    %rax,%rdi
    18f2:	e8 e9 f4 ff ff       	callq  de0 <_init@@Base+0xa0>
    18f7:	48 8d 95 70 ff ff ff 	lea    -0x90(%rbp),%rdx
    18fe:	48 8d 4d 90          	lea    -0x70(%rbp),%rcx
    1902:	48 8d 85 70 ff ff ff 	lea    -0x90(%rbp),%rax
    1909:	48 89 ce             	mov    %rcx,%rsi
    190c:	48 89 c7             	mov    %rax,%rdi
    190f:	e8 64 f4 ff ff       	callq  d78 <_init@@Base+0x38>
    1914:	48 8b 85 58 ff ff ff 	mov    -0xa8(%rbp),%rax
    191b:	48 8d 50 30          	lea    0x30(%rax),%rdx
    191f:	48 8d 8d 70 ff ff ff 	lea    -0x90(%rbp),%rcx
    1926:	48 8d 85 70 ff ff ff 	lea    -0x90(%rbp),%rax
    192d:	48 89 ce             	mov    %rcx,%rsi
    1930:	48 89 c7             	mov    %rax,%rdi
    1933:	e8 18 f5 ff ff       	callq  e50 <_init@@Base+0x110>
    1938:	48 8d 95 60 ff ff ff 	lea    -0xa0(%rbp),%rdx
    193f:	48 8b 85 50 ff ff ff 	mov    -0xb0(%rbp),%rax
    1946:	48 89 d6             	mov    %rdx,%rsi
    1949:	48 89 c7             	mov    %rax,%rdi
    194c:	e8 97 f4 ff ff       	callq  de8 <_init@@Base+0xa8>
    1951:	48 8d 95 70 ff ff ff 	lea    -0x90(%rbp),%rdx
    1958:	48 8b 85 48 ff ff ff 	mov    -0xb8(%rbp),%rax
    195f:	48 89 d6             	mov    %rdx,%rsi
    1962:	48 89 c7             	mov    %rax,%rdi
    1965:	e8 7e f4 ff ff       	callq  de8 <_init@@Base+0xa8>
    196a:	90                   	nop
    196b:	48 8b 45 f8          	mov    -0x8(%rbp),%rax
    196f:	64 48 33 04 25 28 00 	xor    %fs:0x28,%rax
    1976:	00 00 
    1978:	74 05                	je     197f <_init@@Base+0xc3f>
    197a:	e8 99 f4 ff ff       	callq  e18 <_init@@Base+0xd8>
    197f:	c9                   	leaveq 
    1980:	c3                   	retq   
    1981:	55                   	push   %rbp
    1982:	48 89 e5             	mov    %rsp,%rbp
    1985:	48 81 ec b0 00 00 00 	sub    $0xb0,%rsp
    198c:	48 89 bd 78 ff ff ff 	mov    %rdi,-0x88(%rbp)
    1993:	48 89 b5 70 ff ff ff 	mov    %rsi,-0x90(%rbp)
    199a:	48 89 95 68 ff ff ff 	mov    %rdx,-0x98(%rbp)
    19a1:	48 89 8d 60 ff ff ff 	mov    %rcx,-0xa0(%rbp)
    19a8:	4c 89 85 58 ff ff ff 	mov    %r8,-0xa8(%rbp)
    19af:	64 48 8b 04 25 28 00 	mov    %fs:0x28,%rax
    19b6:	00 00 
    19b8:	48 89 45 f8          	mov    %rax,-0x8(%rbp)
    19bc:	31 c0                	xor    %eax,%eax
    19be:	48 8b 85 60 ff ff ff 	mov    -0xa0(%rbp),%rax
    19c5:	8b 40 04             	mov    0x4(%rax),%eax
    19c8:	85 c0                	test   %eax,%eax
    19ca:	78 2f                	js     19fb <_init@@Base+0xcbb>
    19cc:	48 8b 85 60 ff ff ff 	mov    -0xa0(%rbp),%rax
    19d3:	8b 40 04             	mov    0x4(%rax),%eax
    19d6:	85 c0                	test   %eax,%eax
    19d8:	7e 21                	jle    19fb <_init@@Base+0xcbb>
    19da:	48 8b 85 78 ff ff ff 	mov    -0x88(%rbp),%rax
    19e1:	48 8d 50 30          	lea    0x30(%rax),%rdx
    19e5:	48 8b 85 60 ff ff ff 	mov    -0xa0(%rbp),%rax
    19ec:	48 89 d6             	mov    %rdx,%rsi
    19ef:	48 89 c7             	mov    %rax,%rdi
    19f2:	e8 79 f3 ff ff       	callq  d70 <_init@@Base+0x30>
    19f7:	85 c0                	test   %eax,%eax
    19f9:	78 0a                	js     1a05 <_init@@Base+0xcc5>
    19fb:	b8 00 00 00 00       	mov    $0x0,%eax
    1a00:	e9 23 02 00 00       	jmpq   1c28 <_init@@Base+0xee8>
    1a05:	48 8b 85 58 ff ff ff 	mov    -0xa8(%rbp),%rax
    1a0c:	8b 40 04             	mov    0x4(%rax),%eax
    1a0f:	85 c0                	test   %eax,%eax
    1a11:	78 2f                	js     1a42 <_init@@Base+0xd02>
    1a13:	48 8b 85 58 ff ff ff 	mov    -0xa8(%rbp),%rax
    1a1a:	8b 40 04             	mov    0x4(%rax),%eax
    1a1d:	85 c0                	test   %eax,%eax
    1a1f:	7e 21                	jle    1a42 <_init@@Base+0xd02>
    1a21:	48 8b 85 78 ff ff ff 	mov    -0x88(%rbp),%rax
    1a28:	48 8d 50 30          	lea    0x30(%rax),%rdx
    1a2c:	48 8b 85 58 ff ff ff 	mov    -0xa8(%rbp),%rax
    1a33:	48 89 d6             	mov    %rdx,%rsi
    1a36:	48 89 c7             	mov    %rax,%rdi
    1a39:	e8 32 f3 ff ff       	callq  d70 <_init@@Base+0x30>
    1a3e:	85 c0                	test   %eax,%eax
    1a40:	78 0a                	js     1a4c <_init@@Base+0xd0c>
    1a42:	b8 00 00 00 00       	mov    $0x0,%eax
    1a47:	e9 dc 01 00 00       	jmpq   1c28 <_init@@Base+0xee8>
    1a4c:	48 8d 45 80          	lea    -0x80(%rbp),%rax
    1a50:	48 89 c7             	mov    %rax,%rdi
    1a53:	e8 c8 f3 ff ff       	callq  e20 <_init@@Base+0xe0>
    1a58:	48 8d 45 90          	lea    -0x70(%rbp),%rax
    1a5c:	48 89 c7             	mov    %rax,%rdi
    1a5f:	e8 bc f3 ff ff       	callq  e20 <_init@@Base+0xe0>
    1a64:	48 8d 45 a0          	lea    -0x60(%rbp),%rax
    1a68:	48 89 c7             	mov    %rax,%rdi
    1a6b:	e8 b0 f3 ff ff       	callq  e20 <_init@@Base+0xe0>
    1a70:	48 8d 45 b0          	lea    -0x50(%rbp),%rax
    1a74:	48 89 c7             	mov    %rax,%rdi
    1a77:	e8 a4 f3 ff ff       	callq  e20 <_init@@Base+0xe0>
    1a7c:	48 8d 45 c0          	lea    -0x40(%rbp),%rax
    1a80:	48 89 c7             	mov    %rax,%rdi
    1a83:	e8 98 f3 ff ff       	callq  e20 <_init@@Base+0xe0>
    1a88:	48 8d 45 d0          	lea    -0x30(%rbp),%rax
    1a8c:	48 89 c7             	mov    %rax,%rdi
    1a8f:	e8 8c f3 ff ff       	callq  e20 <_init@@Base+0xe0>
    1a94:	48 8d 45 e0          	lea    -0x20(%rbp),%rax
    1a98:	48 89 c7             	mov    %rax,%rdi
    1a9b:	e8 80 f3 ff ff       	callq  e20 <_init@@Base+0xe0>
    1aa0:	48 8b 85 78 ff ff ff 	mov    -0x88(%rbp),%rax
    1aa7:	48 8d 50 30          	lea    0x30(%rax),%rdx
    1aab:	48 8b 8d 58 ff ff ff 	mov    -0xa8(%rbp),%rcx
    1ab2:	48 8d 45 90          	lea    -0x70(%rbp),%rax
    1ab6:	48 89 ce             	mov    %rcx,%rsi
    1ab9:	48 89 c7             	mov    %rax,%rdi
    1abc:	e8 87 f3 ff ff       	callq  e48 <_init@@Base+0x108>
    1ac1:	48 8b 95 68 ff ff ff 	mov    -0x98(%rbp),%rdx
    1ac8:	48 8b 8d 70 ff ff ff 	mov    -0x90(%rbp),%rcx
    1acf:	48 8d 45 a0          	lea    -0x60(%rbp),%rax
    1ad3:	48 89 ce             	mov    %rcx,%rsi
    1ad6:	48 89 c7             	mov    %rax,%rdi
    1ad9:	e8 60 01 00 00       	callq  1c3e <_init@@Base+0xefe>
    1ade:	48 8d 55 90          	lea    -0x70(%rbp),%rdx
    1ae2:	48 8d 4d a0          	lea    -0x60(%rbp),%rcx
    1ae6:	48 8d 45 b0          	lea    -0x50(%rbp),%rax
    1aea:	48 89 ce             	mov    %rcx,%rsi
    1aed:	48 89 c7             	mov    %rax,%rdi
    1af0:	e8 83 f2 ff ff       	callq  d78 <_init@@Base+0x38>
    1af5:	48 8b 85 78 ff ff ff 	mov    -0x88(%rbp),%rax
    1afc:	48 8d 50 30          	lea    0x30(%rax),%rdx
    1b00:	48 8d 4d b0          	lea    -0x50(%rbp),%rcx
    1b04:	48 8d 45 b0          	lea    -0x50(%rbp),%rax
    1b08:	48 89 ce             	mov    %rcx,%rsi
    1b0b:	48 89 c7             	mov    %rax,%rdi
    1b0e:	e8 3d f3 ff ff       	callq  e50 <_init@@Base+0x110>
    1b13:	48 8d 55 90          	lea    -0x70(%rbp),%rdx
    1b17:	48 8b 8d 60 ff ff ff 	mov    -0xa0(%rbp),%rcx
    1b1e:	48 8d 45 c0          	lea    -0x40(%rbp),%rax
    1b22:	48 89 ce             	mov    %rcx,%rsi
    1b25:	48 89 c7             	mov    %rax,%rdi
    1b28:	e8 4b f2 ff ff       	callq  d78 <_init@@Base+0x38>
    1b2d:	48 8b 85 78 ff ff ff 	mov    -0x88(%rbp),%rax
    1b34:	48 8d 50 30          	lea    0x30(%rax),%rdx
    1b38:	48 8d 4d c0          	lea    -0x40(%rbp),%rcx
    1b3c:	48 8d 45 c0          	lea    -0x40(%rbp),%rax
    1b40:	48 89 ce             	mov    %rcx,%rsi
    1b43:	48 89 c7             	mov    %rax,%rdi
    1b46:	e8 05 f3 ff ff       	callq  e50 <_init@@Base+0x110>
    1b4b:	48 8b 85 78 ff ff ff 	mov    -0x88(%rbp),%rax
    1b52:	48 8d 48 20          	lea    0x20(%rax),%rcx
    1b56:	48 8b 85 78 ff ff ff 	mov    -0x88(%rbp),%rax
    1b5d:	48 8d 70 40          	lea    0x40(%rax),%rsi
    1b61:	48 8d 55 b0          	lea    -0x50(%rbp),%rdx
    1b65:	48 8d 45 d0          	lea    -0x30(%rbp),%rax
    1b69:	48 89 c7             	mov    %rax,%rdi
    1b6c:	e8 c7 f2 ff ff       	callq  e38 <_init@@Base+0xf8>
    1b71:	48 8b 85 78 ff ff ff 	mov    -0x88(%rbp),%rax
    1b78:	48 8d 48 20          	lea    0x20(%rax),%rcx
    1b7c:	48 8b 85 78 ff ff ff 	mov    -0x88(%rbp),%rax
    1b83:	48 8d 70 10          	lea    0x10(%rax),%rsi
    1b87:	48 8d 55 c0          	lea    -0x40(%rbp),%rdx
    1b8b:	48 8d 45 e0          	lea    -0x20(%rbp),%rax
    1b8f:	48 89 c7             	mov    %rax,%rdi
    1b92:	e8 a1 f2 ff ff       	callq  e38 <_init@@Base+0xf8>
    1b97:	48 8d 55 e0          	lea    -0x20(%rbp),%rdx
    1b9b:	48 8d 4d d0          	lea    -0x30(%rbp),%rcx
    1b9f:	48 8d 45 80          	lea    -0x80(%rbp),%rax
    1ba3:	48 89 ce             	mov    %rcx,%rsi
    1ba6:	48 89 c7             	mov    %rax,%rdi
    1ba9:	e8 ca f1 ff ff       	callq  d78 <_init@@Base+0x38>
    1bae:	48 8b 85 78 ff ff ff 	mov    -0x88(%rbp),%rax
    1bb5:	48 8d 50 20          	lea    0x20(%rax),%rdx
    1bb9:	48 8d 4d 80          	lea    -0x80(%rbp),%rcx
    1bbd:	48 8d 45 80          	lea    -0x80(%rbp),%rax
    1bc1:	48 89 ce             	mov    %rcx,%rsi
    1bc4:	48 89 c7             	mov    %rax,%rdi
    1bc7:	e8 84 f2 ff ff       	callq  e50 <_init@@Base+0x110>
    1bcc:	48 8b 85 78 ff ff ff 	mov    -0x88(%rbp),%rax
    1bd3:	48 8d 50 30          	lea    0x30(%rax),%rdx
    1bd7:	48 8d 4d 80          	lea    -0x80(%rbp),%rcx
    1bdb:	48 8d 45 80          	lea    -0x80(%rbp),%rax
    1bdf:	48 89 ce             	mov    %rcx,%rsi
    1be2:	48 89 c7             	mov    %rax,%rdi
    1be5:	e8 66 f2 ff ff       	callq  e50 <_init@@Base+0x110>
    1bea:	48 8b 95 60 ff ff ff 	mov    -0xa0(%rbp),%rdx
    1bf1:	48 8d 45 80          	lea    -0x80(%rbp),%rax
    1bf5:	48 89 d6             	mov    %rdx,%rsi
    1bf8:	48 89 c7             	mov    %rax,%rdi
    1bfb:	e8 70 f1 ff ff       	callq  d70 <_init@@Base+0x30>
    1c00:	85 c0                	test   %eax,%eax
    1c02:	75 13                	jne    1c17 <_init@@Base+0xed7>
    1c04:	48 8d 3d cf 08 00 00 	lea    0x8cf(%rip),%rdi        # 24da <_fini@@Base+0x626>
    1c0b:	e8 88 f1 ff ff       	callq  d98 <_init@@Base+0x58>
    1c10:	b8 01 00 00 00       	mov    $0x1,%eax
    1c15:	eb 11                	jmp    1c28 <_init@@Base+0xee8>
    1c17:	48 8d 3d bf 08 00 00 	lea    0x8bf(%rip),%rdi        # 24dd <_fini@@Base+0x629>
    1c1e:	e8 75 f1 ff ff       	callq  d98 <_init@@Base+0x58>
    1c23:	b8 00 00 00 00       	mov    $0x0,%eax
    1c28:	48 8b 75 f8          	mov    -0x8(%rbp),%rsi
    1c2c:	64 48 33 34 25 28 00 	xor    %fs:0x28,%rsi
    1c33:	00 00 
    1c35:	74 05                	je     1c3c <_init@@Base+0xefc>
    1c37:	e8 dc f1 ff ff       	callq  e18 <_init@@Base+0xd8>
    1c3c:	c9                   	leaveq 
    1c3d:	c3                   	retq   
    1c3e:	55                   	push   %rbp
    1c3f:	48 89 e5             	mov    %rsp,%rbp
    1c42:	48 83 c4 80          	add    $0xffffffffffffff80,%rsp
    1c46:	48 89 7d 98          	mov    %rdi,-0x68(%rbp)
    1c4a:	48 89 75 90          	mov    %rsi,-0x70(%rbp)
    1c4e:	48 89 55 88          	mov    %rdx,-0x78(%rbp)
    1c52:	64 48 8b 04 25 28 00 	mov    %fs:0x28,%rax
    1c59:	00 00 
    1c5b:	48 89 45 f8          	mov    %rax,-0x8(%rbp)
    1c5f:	31 c0                	xor    %eax,%eax
    1c61:	48 8d 55 a0          	lea    -0x60(%rbp),%rdx
    1c65:	48 8b 4d 88          	mov    -0x78(%rbp),%rcx
    1c69:	48 8b 45 90          	mov    -0x70(%rbp),%rax
    1c6d:	48 89 ce             	mov    %rcx,%rsi
    1c70:	48 89 c7             	mov    %rax,%rdi
    1c73:	e8 80 f1 ff ff       	callq  df8 <_init@@Base+0xb8>
    1c78:	48 8d 4d a0          	lea    -0x60(%rbp),%rcx
    1c7c:	48 8d 45 c0          	lea    -0x40(%rbp),%rax
    1c80:	ba 14 00 00 00       	mov    $0x14,%edx
    1c85:	48 89 ce             	mov    %rcx,%rsi
    1c88:	48 89 c7             	mov    %rax,%rdi
    1c8b:	e8 2f 00 00 00       	callq  1cbf <_init@@Base+0xf7f>
    1c90:	48 8d 4d c0          	lea    -0x40(%rbp),%rcx
    1c94:	48 8b 45 98          	mov    -0x68(%rbp),%rax
    1c98:	ba 10 00 00 00       	mov    $0x10,%edx
    1c9d:	48 89 ce             	mov    %rcx,%rsi
    1ca0:	48 89 c7             	mov    %rax,%rdi
    1ca3:	e8 80 f1 ff ff       	callq  e28 <_init@@Base+0xe8>
    1ca8:	90                   	nop
    1ca9:	48 8b 45 f8          	mov    -0x8(%rbp),%rax
    1cad:	64 48 33 04 25 28 00 	xor    %fs:0x28,%rax
    1cb4:	00 00 
    1cb6:	74 05                	je     1cbd <_init@@Base+0xf7d>
    1cb8:	e8 5b f1 ff ff       	callq  e18 <_init@@Base+0xd8>
    1cbd:	c9                   	leaveq 
    1cbe:	c3                   	retq   
    1cbf:	55                   	push   %rbp
    1cc0:	48 89 e5             	mov    %rsp,%rbp
    1cc3:	48 83 ec 30          	sub    $0x30,%rsp
    1cc7:	48 89 7d e8          	mov    %rdi,-0x18(%rbp)
    1ccb:	48 89 75 e0          	mov    %rsi,-0x20(%rbp)
    1ccf:	48 89 55 d8          	mov    %rdx,-0x28(%rbp)
    1cd3:	c7 45 fc 00 00 00 00 	movl   $0x0,-0x4(%rbp)
    1cda:	eb 3c                	jmp    1d18 <_init@@Base+0xfd8>
    1cdc:	8b 45 fc             	mov    -0x4(%rbp),%eax
    1cdf:	48 63 d0             	movslq %eax,%rdx
    1ce2:	48 8b 45 e0          	mov    -0x20(%rbp),%rax
    1ce6:	48 01 d0             	add    %rdx,%rax
    1ce9:	0f b6 00             	movzbl (%rax),%eax
    1cec:	0f b6 c0             	movzbl %al,%eax
    1cef:	8b 55 fc             	mov    -0x4(%rbp),%edx
    1cf2:	01 d2                	add    %edx,%edx
    1cf4:	48 63 ca             	movslq %edx,%rcx
    1cf7:	48 8b 55 e8          	mov    -0x18(%rbp),%rdx
    1cfb:	48 01 d1             	add    %rdx,%rcx
    1cfe:	89 c2                	mov    %eax,%edx
    1d00:	48 8d 35 e0 07 00 00 	lea    0x7e0(%rip),%rsi        # 24e7 <_fini@@Base+0x633>
    1d07:	48 89 cf             	mov    %rcx,%rdi
    1d0a:	b8 00 00 00 00       	mov    $0x0,%eax
    1d0f:	e8 ec f0 ff ff       	callq  e00 <_init@@Base+0xc0>
    1d14:	83 45 fc 01          	addl   $0x1,-0x4(%rbp)
    1d18:	8b 45 fc             	mov    -0x4(%rbp),%eax
    1d1b:	48 98                	cltq   
    1d1d:	48 3b 45 d8          	cmp    -0x28(%rbp),%rax
    1d21:	72 b9                	jb     1cdc <_init@@Base+0xf9c>
    1d23:	90                   	nop
    1d24:	c9                   	leaveq 
    1d25:	c3                   	retq   
    1d26:	55                   	push   %rbp
    1d27:	48 89 e5             	mov    %rsp,%rbp
    1d2a:	48 83 ec 20          	sub    $0x20,%rsp
    1d2e:	48 89 7d e8          	mov    %rdi,-0x18(%rbp)
    1d32:	89 75 e4             	mov    %esi,-0x1c(%rbp)
    1d35:	c7 45 f8 00 00 00 00 	movl   $0x0,-0x8(%rbp)
    1d3c:	e9 8d 00 00 00       	jmpq   1dce <_init@@Base+0x108e>
    1d41:	48 8b 05 50 12 20 00 	mov    0x201250(%rip),%rax        # 202f98 <_fini@@Base+0x2010e4>
    1d48:	48 8b 00             	mov    (%rax),%rax
    1d4b:	8b 55 f8             	mov    -0x8(%rbp),%edx
    1d4e:	48 63 ca             	movslq %edx,%rcx
    1d51:	48 8b 55 e8          	mov    -0x18(%rbp),%rdx
    1d55:	48 8d 3c 11          	lea    (%rcx,%rdx,1),%rdi
    1d59:	48 89 c1             	mov    %rax,%rcx
    1d5c:	ba 01 00 00 00       	mov    $0x1,%edx
    1d61:	be 01 00 00 00       	mov    $0x1,%esi
    1d66:	e8 a5 f0 ff ff       	callq  e10 <_init@@Base+0xd0>
    1d6b:	89 45 fc             	mov    %eax,-0x4(%rbp)
    1d6e:	83 7d fc 01          	cmpl   $0x1,-0x4(%rbp)
    1d72:	74 2d                	je     1da1 <_init@@Base+0x1061>
    1d74:	48 8b 05 5d 12 20 00 	mov    0x20125d(%rip),%rax        # 202fd8 <_fini@@Base+0x201124>
    1d7b:	48 8b 00             	mov    (%rax),%rax
    1d7e:	48 89 c1             	mov    %rax,%rcx
    1d81:	ba 0b 00 00 00       	mov    $0xb,%edx
    1d86:	be 01 00 00 00       	mov    $0x1,%esi
    1d8b:	48 8d 3d 5a 07 00 00 	lea    0x75a(%rip),%rdi        # 24ec <_fini@@Base+0x638>
    1d92:	e8 a9 f0 ff ff       	callq  e40 <_init@@Base+0x100>
    1d97:	bf 01 00 00 00       	mov    $0x1,%edi
    1d9c:	e8 ff ef ff ff       	callq  da0 <_init@@Base+0x60>
    1da1:	8b 45 f8             	mov    -0x8(%rbp),%eax
    1da4:	48 63 d0             	movslq %eax,%rdx
    1da7:	48 8b 45 e8          	mov    -0x18(%rbp),%rax
    1dab:	48 01 d0             	add    %rdx,%rax
    1dae:	0f b6 00             	movzbl (%rax),%eax
    1db1:	3c 0a                	cmp    $0xa,%al
    1db3:	75 15                	jne    1dca <_init@@Base+0x108a>
    1db5:	8b 45 f8             	mov    -0x8(%rbp),%eax
    1db8:	48 63 d0             	movslq %eax,%rdx
    1dbb:	48 8b 45 e8          	mov    -0x18(%rbp),%rax
    1dbf:	48 01 d0             	add    %rdx,%rax
    1dc2:	c6 00 00             	movb   $0x0,(%rax)
    1dc5:	8b 45 f8             	mov    -0x8(%rbp),%eax
    1dc8:	eb 23                	jmp    1ded <_init@@Base+0x10ad>
    1dca:	83 45 f8 01          	addl   $0x1,-0x8(%rbp)
    1dce:	8b 45 f8             	mov    -0x8(%rbp),%eax
    1dd1:	3b 45 e4             	cmp    -0x1c(%rbp),%eax
    1dd4:	0f 82 67 ff ff ff    	jb     1d41 <_init@@Base+0x1001>
    1dda:	8b 45 f8             	mov    -0x8(%rbp),%eax
    1ddd:	48 63 d0             	movslq %eax,%rdx
    1de0:	48 8b 45 e8          	mov    -0x18(%rbp),%rax
    1de4:	48 01 d0             	add    %rdx,%rax
    1de7:	c6 00 00             	movb   $0x0,(%rax)
    1dea:	8b 45 f8             	mov    -0x8(%rbp),%eax
    1ded:	c9                   	leaveq 
    1dee:	c3                   	retq   
    1def:	55                   	push   %rbp
    1df0:	48 89 e5             	mov    %rsp,%rbp
    1df3:	48 83 ec 20          	sub    $0x20,%rsp
    1df7:	64 48 8b 04 25 28 00 	mov    %fs:0x28,%rax
    1dfe:	00 00 
    1e00:	48 89 45 f8          	mov    %rax,-0x8(%rbp)
    1e04:	31 c0                	xor    %eax,%eax
    1e06:	48 8d 45 e0          	lea    -0x20(%rbp),%rax
    1e0a:	be 0a 00 00 00       	mov    $0xa,%esi
    1e0f:	48 89 c7             	mov    %rax,%rdi
    1e12:	e8 0f ff ff ff       	callq  1d26 <_init@@Base+0xfe6>
    1e17:	0f b6 45 e0          	movzbl -0x20(%rbp),%eax
    1e1b:	48 8b 55 f8          	mov    -0x8(%rbp),%rdx
    1e1f:	64 48 33 14 25 28 00 	xor    %fs:0x28,%rdx
    1e26:	00 00 
    1e28:	74 05                	je     1e2f <_init@@Base+0x10ef>
    1e2a:	e8 e9 ef ff ff       	callq  e18 <_init@@Base+0xd8>
    1e2f:	c9                   	leaveq 
    1e30:	c3                   	retq   
    1e31:	66 2e 0f 1f 84 00 00 	nopw   %cs:0x0(%rax,%rax,1)
    1e38:	00 00 00 
    1e3b:	0f 1f 44 00 00       	nopl   0x0(%rax,%rax,1)
    1e40:	41 57                	push   %r15
    1e42:	41 56                	push   %r14
    1e44:	41 89 ff             	mov    %edi,%r15d
    1e47:	41 55                	push   %r13
    1e49:	41 54                	push   %r12
    1e4b:	4c 8d 25 66 0e 20 00 	lea    0x200e66(%rip),%r12        # 202cb8 <_fini@@Base+0x200e04>
    1e52:	55                   	push   %rbp
    1e53:	48 8d 2d 66 0e 20 00 	lea    0x200e66(%rip),%rbp        # 202cc0 <_fini@@Base+0x200e0c>
    1e5a:	53                   	push   %rbx
    1e5b:	49 89 f6             	mov    %rsi,%r14
    1e5e:	49 89 d5             	mov    %rdx,%r13
    1e61:	4c 29 e5             	sub    %r12,%rbp
    1e64:	48 83 ec 08          	sub    $0x8,%rsp
    1e68:	48 c1 fd 03          	sar    $0x3,%rbp
    1e6c:	e8 cf ee ff ff       	callq  d40 <_init@@Base>
    1e71:	48 85 ed             	test   %rbp,%rbp
    1e74:	74 20                	je     1e96 <_init@@Base+0x1156>
    1e76:	31 db                	xor    %ebx,%ebx
    1e78:	0f 1f 84 00 00 00 00 	nopl   0x0(%rax,%rax,1)
    1e7f:	00 
    1e80:	4c 89 ea             	mov    %r13,%rdx
    1e83:	4c 89 f6             	mov    %r14,%rsi
    1e86:	44 89 ff             	mov    %r15d,%edi
    1e89:	41 ff 14 dc          	callq  *(%r12,%rbx,8)
    1e8d:	48 83 c3 01          	add    $0x1,%rbx
    1e91:	48 39 eb             	cmp    %rbp,%rbx
    1e94:	75 ea                	jne    1e80 <_init@@Base+0x1140>
    1e96:	48 83 c4 08          	add    $0x8,%rsp
    1e9a:	5b                   	pop    %rbx
    1e9b:	5d                   	pop    %rbp
    1e9c:	41 5c                	pop    %r12
    1e9e:	41 5d                	pop    %r13
    1ea0:	41 5e                	pop    %r14
    1ea2:	41 5f                	pop    %r15
    1ea4:	c3                   	retq   
    1ea5:	90                   	nop
    1ea6:	66 2e 0f 1f 84 00 00 	nopw   %cs:0x0(%rax,%rax,1)
    1ead:	00 00 00 
    1eb0:	f3 c3                	repz retq 

Disassembly of section .fini:

0000000000001eb4 <_fini@@Base>:
    1eb4:	48 83 ec 08          	sub    $0x8,%rsp
    1eb8:	48 83 c4 08          	add    $0x8,%rsp
    1ebc:	c3                   	retq   
