
mydb.so:     file format elf64-x86-64


Disassembly of section .init:

0000000000002e70 <_init@@Base>:
    2e70:	48 83 ec 08          	sub    $0x8,%rsp
    2e74:	48 8b 05 75 41 20 00 	mov    0x204175(%rip),%rax        # 206ff0 <_ZTVN3Php8FunctionE@@Base+0x560>
    2e7b:	48 85 c0             	test   %rax,%rax
    2e7e:	74 05                	je     2e85 <_init@@Base+0x15>
    2e80:	e8 33 02 00 00       	callq  30b8 <_init@@Base+0x248>
    2e85:	48 83 c4 08          	add    $0x8,%rsp
    2e89:	c3                   	retq   

Disassembly of section .plt:

0000000000002e90 <.plt>:
    2e90:	ff 35 82 3e 20 00    	pushq  0x203e82(%rip)        # 206d18 <_ZTVN3Php8FunctionE@@Base+0x288>
    2e96:	ff 25 84 3e 20 00    	jmpq   *0x203e84(%rip)        # 206d20 <_ZTVN3Php8FunctionE@@Base+0x290>
    2e9c:	0f 1f 40 00          	nopl   0x0(%rax)

Disassembly of section .plt.got:

0000000000002ea0 <.plt.got>:
    2ea0:	ff 25 82 3e 20 00    	jmpq   *0x203e82(%rip)        # 206d28 <_ZTVN3Php8FunctionE@@Base+0x298>
    2ea6:	66 90                	xchg   %ax,%ax
    2ea8:	ff 25 82 3e 20 00    	jmpq   *0x203e82(%rip)        # 206d30 <_ZTVN3Php8FunctionE@@Base+0x2a0>
    2eae:	66 90                	xchg   %ax,%ax
    2eb0:	ff 25 82 3e 20 00    	jmpq   *0x203e82(%rip)        # 206d38 <_ZTVN3Php8FunctionE@@Base+0x2a8>
    2eb6:	66 90                	xchg   %ax,%ax
    2eb8:	ff 25 8a 3e 20 00    	jmpq   *0x203e8a(%rip)        # 206d48 <_ZTVN3Php8FunctionE@@Base+0x2b8>
    2ebe:	66 90                	xchg   %ax,%ax
    2ec0:	ff 25 8a 3e 20 00    	jmpq   *0x203e8a(%rip)        # 206d50 <_ZTVN3Php8FunctionE@@Base+0x2c0>
    2ec6:	66 90                	xchg   %ax,%ax
    2ec8:	ff 25 8a 3e 20 00    	jmpq   *0x203e8a(%rip)        # 206d58 <_ZTVN3Php8FunctionE@@Base+0x2c8>
    2ece:	66 90                	xchg   %ax,%ax
    2ed0:	ff 25 8a 3e 20 00    	jmpq   *0x203e8a(%rip)        # 206d60 <_ZTVN3Php8FunctionE@@Base+0x2d0>
    2ed6:	66 90                	xchg   %ax,%ax
    2ed8:	ff 25 8a 3e 20 00    	jmpq   *0x203e8a(%rip)        # 206d68 <_ZTVN3Php8FunctionE@@Base+0x2d8>
    2ede:	66 90                	xchg   %ax,%ax
    2ee0:	ff 25 8a 3e 20 00    	jmpq   *0x203e8a(%rip)        # 206d70 <_ZTVN3Php8FunctionE@@Base+0x2e0>
    2ee6:	66 90                	xchg   %ax,%ax
    2ee8:	ff 25 8a 3e 20 00    	jmpq   *0x203e8a(%rip)        # 206d78 <_ZTVN3Php8FunctionE@@Base+0x2e8>
    2eee:	66 90                	xchg   %ax,%ax
    2ef0:	ff 25 8a 3e 20 00    	jmpq   *0x203e8a(%rip)        # 206d80 <_ZTVN3Php8FunctionE@@Base+0x2f0>
    2ef6:	66 90                	xchg   %ax,%ax
    2ef8:	ff 25 92 3e 20 00    	jmpq   *0x203e92(%rip)        # 206d90 <_ZTVN3Php8FunctionE@@Base+0x300>
    2efe:	66 90                	xchg   %ax,%ax
    2f00:	ff 25 92 3e 20 00    	jmpq   *0x203e92(%rip)        # 206d98 <_ZTVN3Php8FunctionE@@Base+0x308>
    2f06:	66 90                	xchg   %ax,%ax
    2f08:	ff 25 92 3e 20 00    	jmpq   *0x203e92(%rip)        # 206da0 <_ZTVN3Php8FunctionE@@Base+0x310>
    2f0e:	66 90                	xchg   %ax,%ax
    2f10:	ff 25 92 3e 20 00    	jmpq   *0x203e92(%rip)        # 206da8 <_ZTVN3Php8FunctionE@@Base+0x318>
    2f16:	66 90                	xchg   %ax,%ax
    2f18:	ff 25 92 3e 20 00    	jmpq   *0x203e92(%rip)        # 206db0 <_ZTVN3Php8FunctionE@@Base+0x320>
    2f1e:	66 90                	xchg   %ax,%ax
    2f20:	ff 25 9a 3e 20 00    	jmpq   *0x203e9a(%rip)        # 206dc0 <_ZTVN3Php8FunctionE@@Base+0x330>
    2f26:	66 90                	xchg   %ax,%ax
    2f28:	ff 25 9a 3e 20 00    	jmpq   *0x203e9a(%rip)        # 206dc8 <_ZTVN3Php8FunctionE@@Base+0x338>
    2f2e:	66 90                	xchg   %ax,%ax
    2f30:	ff 25 9a 3e 20 00    	jmpq   *0x203e9a(%rip)        # 206dd0 <_ZTVN3Php8FunctionE@@Base+0x340>
    2f36:	66 90                	xchg   %ax,%ax
    2f38:	ff 25 9a 3e 20 00    	jmpq   *0x203e9a(%rip)        # 206dd8 <_ZTVN3Php8FunctionE@@Base+0x348>
    2f3e:	66 90                	xchg   %ax,%ax
    2f40:	ff 25 9a 3e 20 00    	jmpq   *0x203e9a(%rip)        # 206de0 <_ZTVN3Php8FunctionE@@Base+0x350>
    2f46:	66 90                	xchg   %ax,%ax
    2f48:	ff 25 9a 3e 20 00    	jmpq   *0x203e9a(%rip)        # 206de8 <_ZTVN3Php8FunctionE@@Base+0x358>
    2f4e:	66 90                	xchg   %ax,%ax
    2f50:	ff 25 9a 3e 20 00    	jmpq   *0x203e9a(%rip)        # 206df0 <_ZTVN3Php8FunctionE@@Base+0x360>
    2f56:	66 90                	xchg   %ax,%ax
    2f58:	ff 25 aa 3e 20 00    	jmpq   *0x203eaa(%rip)        # 206e08 <_ZTVN3Php8FunctionE@@Base+0x378>
    2f5e:	66 90                	xchg   %ax,%ax
    2f60:	ff 25 aa 3e 20 00    	jmpq   *0x203eaa(%rip)        # 206e10 <_ZTVN3Php8FunctionE@@Base+0x380>
    2f66:	66 90                	xchg   %ax,%ax
    2f68:	ff 25 aa 3e 20 00    	jmpq   *0x203eaa(%rip)        # 206e18 <_ZTVN3Php8FunctionE@@Base+0x388>
    2f6e:	66 90                	xchg   %ax,%ax
    2f70:	ff 25 aa 3e 20 00    	jmpq   *0x203eaa(%rip)        # 206e20 <_ZTVN3Php8FunctionE@@Base+0x390>
    2f76:	66 90                	xchg   %ax,%ax
    2f78:	ff 25 aa 3e 20 00    	jmpq   *0x203eaa(%rip)        # 206e28 <_ZTVN3Php8FunctionE@@Base+0x398>
    2f7e:	66 90                	xchg   %ax,%ax
    2f80:	ff 25 ba 3e 20 00    	jmpq   *0x203eba(%rip)        # 206e40 <_ZTVN3Php8FunctionE@@Base+0x3b0>
    2f86:	66 90                	xchg   %ax,%ax
    2f88:	ff 25 ba 3e 20 00    	jmpq   *0x203eba(%rip)        # 206e48 <_ZTVN3Php8FunctionE@@Base+0x3b8>
    2f8e:	66 90                	xchg   %ax,%ax
    2f90:	ff 25 ba 3e 20 00    	jmpq   *0x203eba(%rip)        # 206e50 <_ZTVN3Php8FunctionE@@Base+0x3c0>
    2f96:	66 90                	xchg   %ax,%ax
    2f98:	ff 25 c2 3e 20 00    	jmpq   *0x203ec2(%rip)        # 206e60 <_ZTVN3Php8FunctionE@@Base+0x3d0>
    2f9e:	66 90                	xchg   %ax,%ax
    2fa0:	ff 25 c2 3e 20 00    	jmpq   *0x203ec2(%rip)        # 206e68 <_ZTVN3Php8FunctionE@@Base+0x3d8>
    2fa6:	66 90                	xchg   %ax,%ax
    2fa8:	ff 25 ca 3e 20 00    	jmpq   *0x203eca(%rip)        # 206e78 <_ZTVN3Php8FunctionE@@Base+0x3e8>
    2fae:	66 90                	xchg   %ax,%ax
    2fb0:	ff 25 d2 3e 20 00    	jmpq   *0x203ed2(%rip)        # 206e88 <_ZTVN3Php8FunctionE@@Base+0x3f8>
    2fb6:	66 90                	xchg   %ax,%ax
    2fb8:	ff 25 d2 3e 20 00    	jmpq   *0x203ed2(%rip)        # 206e90 <_ZTVN3Php8FunctionE@@Base+0x400>
    2fbe:	66 90                	xchg   %ax,%ax
    2fc0:	ff 25 d2 3e 20 00    	jmpq   *0x203ed2(%rip)        # 206e98 <_ZTVN3Php8FunctionE@@Base+0x408>
    2fc6:	66 90                	xchg   %ax,%ax
    2fc8:	ff 25 d2 3e 20 00    	jmpq   *0x203ed2(%rip)        # 206ea0 <_ZTVN3Php8FunctionE@@Base+0x410>
    2fce:	66 90                	xchg   %ax,%ax
    2fd0:	ff 25 d2 3e 20 00    	jmpq   *0x203ed2(%rip)        # 206ea8 <_ZTVN3Php8FunctionE@@Base+0x418>
    2fd6:	66 90                	xchg   %ax,%ax
    2fd8:	ff 25 d2 3e 20 00    	jmpq   *0x203ed2(%rip)        # 206eb0 <_ZTVN3Php8FunctionE@@Base+0x420>
    2fde:	66 90                	xchg   %ax,%ax
    2fe0:	ff 25 d2 3e 20 00    	jmpq   *0x203ed2(%rip)        # 206eb8 <_ZTVN3Php8FunctionE@@Base+0x428>
    2fe6:	66 90                	xchg   %ax,%ax
    2fe8:	ff 25 da 3e 20 00    	jmpq   *0x203eda(%rip)        # 206ec8 <_ZTVN3Php8FunctionE@@Base+0x438>
    2fee:	66 90                	xchg   %ax,%ax
    2ff0:	ff 25 e2 3e 20 00    	jmpq   *0x203ee2(%rip)        # 206ed8 <_ZTVN3Php8FunctionE@@Base+0x448>
    2ff6:	66 90                	xchg   %ax,%ax
    2ff8:	ff 25 02 3f 20 00    	jmpq   *0x203f02(%rip)        # 206f00 <_ZTVN3Php8FunctionE@@Base+0x470>
    2ffe:	66 90                	xchg   %ax,%ax
    3000:	ff 25 02 3f 20 00    	jmpq   *0x203f02(%rip)        # 206f08 <_ZTVN3Php8FunctionE@@Base+0x478>
    3006:	66 90                	xchg   %ax,%ax
    3008:	ff 25 02 3f 20 00    	jmpq   *0x203f02(%rip)        # 206f10 <_ZTVN3Php8FunctionE@@Base+0x480>
    300e:	66 90                	xchg   %ax,%ax
    3010:	ff 25 02 3f 20 00    	jmpq   *0x203f02(%rip)        # 206f18 <_ZTVN3Php8FunctionE@@Base+0x488>
    3016:	66 90                	xchg   %ax,%ax
    3018:	ff 25 12 3f 20 00    	jmpq   *0x203f12(%rip)        # 206f30 <_ZTVN3Php8FunctionE@@Base+0x4a0>
    301e:	66 90                	xchg   %ax,%ax
    3020:	ff 25 1a 3f 20 00    	jmpq   *0x203f1a(%rip)        # 206f40 <_ZTVN3Php8FunctionE@@Base+0x4b0>
    3026:	66 90                	xchg   %ax,%ax
    3028:	ff 25 1a 3f 20 00    	jmpq   *0x203f1a(%rip)        # 206f48 <_ZTVN3Php8FunctionE@@Base+0x4b8>
    302e:	66 90                	xchg   %ax,%ax
    3030:	ff 25 1a 3f 20 00    	jmpq   *0x203f1a(%rip)        # 206f50 <_ZTVN3Php8FunctionE@@Base+0x4c0>
    3036:	66 90                	xchg   %ax,%ax
    3038:	ff 25 1a 3f 20 00    	jmpq   *0x203f1a(%rip)        # 206f58 <_ZTVN3Php8FunctionE@@Base+0x4c8>
    303e:	66 90                	xchg   %ax,%ax
    3040:	ff 25 22 3f 20 00    	jmpq   *0x203f22(%rip)        # 206f68 <_ZTVN3Php8FunctionE@@Base+0x4d8>
    3046:	66 90                	xchg   %ax,%ax
    3048:	ff 25 22 3f 20 00    	jmpq   *0x203f22(%rip)        # 206f70 <_ZTVN3Php8FunctionE@@Base+0x4e0>
    304e:	66 90                	xchg   %ax,%ax
    3050:	ff 25 22 3f 20 00    	jmpq   *0x203f22(%rip)        # 206f78 <_ZTVN3Php8FunctionE@@Base+0x4e8>
    3056:	66 90                	xchg   %ax,%ax
    3058:	ff 25 22 3f 20 00    	jmpq   *0x203f22(%rip)        # 206f80 <_ZTVN3Php8FunctionE@@Base+0x4f0>
    305e:	66 90                	xchg   %ax,%ax
    3060:	ff 25 22 3f 20 00    	jmpq   *0x203f22(%rip)        # 206f88 <_ZTVN3Php8FunctionE@@Base+0x4f8>
    3066:	66 90                	xchg   %ax,%ax
    3068:	ff 25 22 3f 20 00    	jmpq   *0x203f22(%rip)        # 206f90 <_ZTVN3Php8FunctionE@@Base+0x500>
    306e:	66 90                	xchg   %ax,%ax
    3070:	ff 25 22 3f 20 00    	jmpq   *0x203f22(%rip)        # 206f98 <_ZTVN3Php8FunctionE@@Base+0x508>
    3076:	66 90                	xchg   %ax,%ax
    3078:	ff 25 22 3f 20 00    	jmpq   *0x203f22(%rip)        # 206fa0 <_ZTVN3Php8FunctionE@@Base+0x510>
    307e:	66 90                	xchg   %ax,%ax
    3080:	ff 25 22 3f 20 00    	jmpq   *0x203f22(%rip)        # 206fa8 <_ZTVN3Php8FunctionE@@Base+0x518>
    3086:	66 90                	xchg   %ax,%ax
    3088:	ff 25 32 3f 20 00    	jmpq   *0x203f32(%rip)        # 206fc0 <_ZTVN3Php8FunctionE@@Base+0x530>
    308e:	66 90                	xchg   %ax,%ax
    3090:	ff 25 32 3f 20 00    	jmpq   *0x203f32(%rip)        # 206fc8 <_ZTVN3Php8FunctionE@@Base+0x538>
    3096:	66 90                	xchg   %ax,%ax
    3098:	ff 25 32 3f 20 00    	jmpq   *0x203f32(%rip)        # 206fd0 <_ZTVN3Php8FunctionE@@Base+0x540>
    309e:	66 90                	xchg   %ax,%ax
    30a0:	ff 25 32 3f 20 00    	jmpq   *0x203f32(%rip)        # 206fd8 <_ZTVN3Php8FunctionE@@Base+0x548>
    30a6:	66 90                	xchg   %ax,%ax
    30a8:	ff 25 32 3f 20 00    	jmpq   *0x203f32(%rip)        # 206fe0 <_ZTVN3Php8FunctionE@@Base+0x550>
    30ae:	66 90                	xchg   %ax,%ax
    30b0:	ff 25 32 3f 20 00    	jmpq   *0x203f32(%rip)        # 206fe8 <_ZTVN3Php8FunctionE@@Base+0x558>
    30b6:	66 90                	xchg   %ax,%ax
    30b8:	ff 25 32 3f 20 00    	jmpq   *0x203f32(%rip)        # 206ff0 <_ZTVN3Php8FunctionE@@Base+0x560>
    30be:	66 90                	xchg   %ax,%ax

Disassembly of section .text:

00000000000030c0 <_Z21check_hacking_attemptPcS_@@Base-0x180>:
    30c0:	48 8d 47 10          	lea    0x10(%rdi),%rax
    30c4:	48 83 ca ff          	or     $0xffffffffffffffff,%rdx
    30c8:	48 85 f6             	test   %rsi,%rsi
    30cb:	49 89 f8             	mov    %rdi,%r8
    30ce:	48 89 07             	mov    %rax,(%rdi)
    30d1:	74 15                	je     30e8 <_init@@Base+0x278>
    30d3:	31 c0                	xor    %eax,%eax
    30d5:	48 89 d1             	mov    %rdx,%rcx
    30d8:	48 89 f7             	mov    %rsi,%rdi
    30db:	f2 ae                	repnz scas %es:(%rdi),%al
    30dd:	48 89 c8             	mov    %rcx,%rax
    30e0:	48 f7 d0             	not    %rax
    30e3:	48 8d 54 06 ff       	lea    -0x1(%rsi,%rax,1),%rdx
    30e8:	4c 89 c7             	mov    %r8,%rdi
    30eb:	e9 10 05 00 00       	jmpq   3600 <_Z21check_hacking_attemptPcS_@@Base+0x3c0>
    30f0:	48 8d 3d 09 40 20 00 	lea    0x204009(%rip),%rdi        # 207100 <_edata@@Base+0xd8>
    30f7:	48 83 ec 08          	sub    $0x8,%rsp
    30fb:	31 f6                	xor    %esi,%esi
    30fd:	e8 4e fe ff ff       	callq  2f50 <_init@@Base+0xe0>
    3102:	48 8b 3d 1f 3c 20 00 	mov    0x203c1f(%rip),%rdi        # 206d28 <_ZTVN3Php8FunctionE@@Base+0x298>
    3109:	48 8d 15 f0 3e 20 00 	lea    0x203ef0(%rip),%rdx        # 207000 <_ZTVN3Php8FunctionE@@Base+0x570>
    3110:	48 8d 35 e9 3f 20 00 	lea    0x203fe9(%rip),%rsi        # 207100 <_edata@@Base+0xd8>
    3117:	48 83 c4 08          	add    $0x8,%rsp
    311b:	e9 88 fe ff ff       	jmpq   2fa8 <_init@@Base+0x138>
    3120:	48 8d 3d 01 3f 20 00 	lea    0x203f01(%rip),%rdi        # 207028 <_edata@@Base>
    3127:	48 8d 05 01 3f 20 00 	lea    0x203f01(%rip),%rax        # 20702f <_edata@@Base+0x7>
    312e:	55                   	push   %rbp
    312f:	48 29 f8             	sub    %rdi,%rax
    3132:	48 89 e5             	mov    %rsp,%rbp
    3135:	48 83 f8 0e          	cmp    $0xe,%rax
    3139:	76 15                	jbe    3150 <_init@@Base+0x2e0>
    313b:	48 8b 05 6e 3e 20 00 	mov    0x203e6e(%rip),%rax        # 206fb0 <_ZTVN3Php8FunctionE@@Base+0x520>
    3142:	48 85 c0             	test   %rax,%rax
    3145:	74 09                	je     3150 <_init@@Base+0x2e0>
    3147:	5d                   	pop    %rbp
    3148:	ff e0                	jmpq   *%rax
    314a:	66 0f 1f 44 00 00    	nopw   0x0(%rax,%rax,1)
    3150:	5d                   	pop    %rbp
    3151:	c3                   	retq   
    3152:	0f 1f 40 00          	nopl   0x0(%rax)
    3156:	66 2e 0f 1f 84 00 00 	nopw   %cs:0x0(%rax,%rax,1)
    315d:	00 00 00 
    3160:	48 8d 3d c1 3e 20 00 	lea    0x203ec1(%rip),%rdi        # 207028 <_edata@@Base>
    3167:	48 8d 35 ba 3e 20 00 	lea    0x203eba(%rip),%rsi        # 207028 <_edata@@Base>
    316e:	55                   	push   %rbp
    316f:	48 29 fe             	sub    %rdi,%rsi
    3172:	48 89 e5             	mov    %rsp,%rbp
    3175:	48 c1 fe 03          	sar    $0x3,%rsi
    3179:	48 89 f0             	mov    %rsi,%rax
    317c:	48 c1 e8 3f          	shr    $0x3f,%rax
    3180:	48 01 c6             	add    %rax,%rsi
    3183:	48 d1 fe             	sar    %rsi
    3186:	74 18                	je     31a0 <_init@@Base+0x330>
    3188:	48 8b 05 69 3e 20 00 	mov    0x203e69(%rip),%rax        # 206ff8 <_ZTVN3Php8FunctionE@@Base+0x568>
    318f:	48 85 c0             	test   %rax,%rax
    3192:	74 0c                	je     31a0 <_init@@Base+0x330>
    3194:	5d                   	pop    %rbp
    3195:	ff e0                	jmpq   *%rax
    3197:	66 0f 1f 84 00 00 00 	nopw   0x0(%rax,%rax,1)
    319e:	00 00 
    31a0:	5d                   	pop    %rbp
    31a1:	c3                   	retq   
    31a2:	0f 1f 40 00          	nopl   0x0(%rax)
    31a6:	66 2e 0f 1f 84 00 00 	nopw   %cs:0x0(%rax,%rax,1)
    31ad:	00 00 00 
    31b0:	80 3d 89 3e 20 00 00 	cmpb   $0x0,0x203e89(%rip)        # 207040 <_edata@@Base+0x18>
    31b7:	75 27                	jne    31e0 <_init@@Base+0x370>
    31b9:	48 83 3d cf 3b 20 00 	cmpq   $0x0,0x203bcf(%rip)        # 206d90 <_ZTVN3Php8FunctionE@@Base+0x300>
    31c0:	00 
    31c1:	55                   	push   %rbp
    31c2:	48 89 e5             	mov    %rsp,%rbp
    31c5:	74 0c                	je     31d3 <_init@@Base+0x363>
    31c7:	48 8b 3d 32 3e 20 00 	mov    0x203e32(%rip),%rdi        # 207000 <_ZTVN3Php8FunctionE@@Base+0x570>
    31ce:	e8 25 fd ff ff       	callq  2ef8 <_init@@Base+0x88>
    31d3:	e8 48 ff ff ff       	callq  3120 <_init@@Base+0x2b0>
    31d8:	5d                   	pop    %rbp
    31d9:	c6 05 60 3e 20 00 01 	movb   $0x1,0x203e60(%rip)        # 207040 <_edata@@Base+0x18>
    31e0:	f3 c3                	repz retq 
    31e2:	0f 1f 40 00          	nopl   0x0(%rax)
    31e6:	66 2e 0f 1f 84 00 00 	nopw   %cs:0x0(%rax,%rax,1)
    31ed:	00 00 00 
    31f0:	48 8d 3d d1 37 20 00 	lea    0x2037d1(%rip),%rdi        # 2069c8 <_ZTSN3Php8FunctionE@@Base+0x201578>
    31f7:	48 83 3f 00          	cmpq   $0x0,(%rdi)
    31fb:	75 0b                	jne    3208 <_init@@Base+0x398>
    31fd:	e9 5e ff ff ff       	jmpq   3160 <_init@@Base+0x2f0>
    3202:	66 0f 1f 44 00 00    	nopw   0x0(%rax,%rax,1)
    3208:	48 8b 05 e9 3c 20 00 	mov    0x203ce9(%rip),%rax        # 206ef8 <_ZTVN3Php8FunctionE@@Base+0x468>
    320f:	48 85 c0             	test   %rax,%rax
    3212:	74 e9                	je     31fd <_init@@Base+0x38d>
    3214:	55                   	push   %rbp
    3215:	48 89 e5             	mov    %rsp,%rbp
    3218:	ff d0                	callq  *%rax
    321a:	5d                   	pop    %rbp
    321b:	e9 40 ff ff ff       	jmpq   3160 <_init@@Base+0x2f0>
    3220:	85 d2                	test   %edx,%edx
    3222:	74 0c                	je     3230 <_init@@Base+0x3c0>
    3224:	83 fa 01             	cmp    $0x1,%edx
    3227:	75 03                	jne    322c <_init@@Base+0x3bc>
    3229:	48 89 37             	mov    %rsi,(%rdi)
    322c:	31 c0                	xor    %eax,%eax
    322e:	c3                   	retq   
    322f:	90                   	nop
    3230:	48 8d 05 d9 37 20 00 	lea    0x2037d9(%rip),%rax        # 206a10 <_ZTIN3Php8FunctionE@@Base+0x18>
    3237:	48 89 07             	mov    %rax,(%rdi)
    323a:	31 c0                	xor    %eax,%eax
    323c:	c3                   	retq   
    323d:	0f 1f 00             	nopl   (%rax)

0000000000003240 <_Z21check_hacking_attemptPcS_@@Base>:
    3240:	41 56                	push   %r14
    3242:	41 55                	push   %r13
    3244:	41 54                	push   %r12
    3246:	55                   	push   %rbp
    3247:	48 89 fd             	mov    %rdi,%rbp
    324a:	53                   	push   %rbx
    324b:	48 89 f7             	mov    %rsi,%rdi
    324e:	48 89 f3             	mov    %rsi,%rbx
    3251:	41 bc 01 00 00 00    	mov    $0x1,%r12d
    3257:	48 81 ec b0 00 00 00 	sub    $0xb0,%rsp
    325e:	64 48 8b 04 25 28 00 	mov    %fs:0x28,%rax
    3265:	00 00 
    3267:	48 89 84 24 a8 00 00 	mov    %rax,0xa8(%rsp)
    326e:	00 
    326f:	31 c0                	xor    %eax,%eax
    3271:	e8 8a fc ff ff       	callq  2f00 <_init@@Base+0x90>
    3276:	48 3d 95 00 00 00    	cmp    $0x95,%rax
    327c:	76 32                	jbe    32b0 <_Z21check_hacking_attemptPcS_@@Base+0x70>
    327e:	48 8b 8c 24 a8 00 00 	mov    0xa8(%rsp),%rcx
    3285:	00 
    3286:	64 48 33 0c 25 28 00 	xor    %fs:0x28,%rcx
    328d:	00 00 
    328f:	44 89 e0             	mov    %r12d,%eax
    3292:	0f 85 8d 01 00 00    	jne    3425 <_Z21check_hacking_attemptPcS_@@Base+0x1e5>
    3298:	48 81 c4 b0 00 00 00 	add    $0xb0,%rsp
    329f:	5b                   	pop    %rbx
    32a0:	5d                   	pop    %rbp
    32a1:	41 5c                	pop    %r12
    32a3:	41 5d                	pop    %r13
    32a5:	41 5e                	pop    %r14
    32a7:	c3                   	retq   
    32a8:	0f 1f 84 00 00 00 00 	nopl   0x0(%rax,%rax,1)
    32af:	00 
    32b0:	48 83 c0 01          	add    $0x1,%rax
    32b4:	83 f8 08             	cmp    $0x8,%eax
    32b7:	0f 83 03 01 00 00    	jae    33c0 <_Z21check_hacking_attemptPcS_@@Base+0x180>
    32bd:	a8 04                	test   $0x4,%al
    32bf:	0f 85 3b 01 00 00    	jne    3400 <_Z21check_hacking_attemptPcS_@@Base+0x1c0>
    32c5:	85 c0                	test   %eax,%eax
    32c7:	74 0e                	je     32d7 <_Z21check_hacking_attemptPcS_@@Base+0x97>
    32c9:	0f b6 13             	movzbl (%rbx),%edx
    32cc:	a8 02                	test   $0x2,%al
    32ce:	88 55 00             	mov    %dl,0x0(%rbp)
    32d1:	0f 85 3d 01 00 00    	jne    3414 <_Z21check_hacking_attemptPcS_@@Base+0x1d4>
    32d7:	48 8d 05 02 02 00 00 	lea    0x202(%rip),%rax        # 34e0 <_Z21check_hacking_attemptPcS_@@Base+0x2a0>
    32de:	48 8d 9c 24 80 00 00 	lea    0x80(%rsp),%rbx
    32e5:	00 
    32e6:	4c 8d 6c 24 40       	lea    0x40(%rsp),%r13
    32eb:	48 89 84 24 98 00 00 	mov    %rax,0x98(%rsp)
    32f2:	00 
    32f3:	48 8d 05 26 ff ff ff 	lea    -0xda(%rip),%rax        # 3220 <_init@@Base+0x3b0>
    32fa:	48 89 de             	mov    %rbx,%rsi
    32fd:	4c 89 ef             	mov    %r13,%rdi
    3300:	48 89 84 24 90 00 00 	mov    %rax,0x90(%rsp)
    3307:	00 
    3308:	e8 d3 fb ff ff       	callq  2ee0 <_init@@Base+0x70>
    330d:	48 8b 84 24 90 00 00 	mov    0x90(%rsp),%rax
    3314:	00 
    3315:	48 85 c0             	test   %rax,%rax
    3318:	74 0d                	je     3327 <_Z21check_hacking_attemptPcS_@@Base+0xe7>
    331a:	ba 03 00 00 00       	mov    $0x3,%edx
    331f:	48 89 de             	mov    %rbx,%rsi
    3322:	48 89 df             	mov    %rbx,%rdi
    3325:	ff d0                	callq  *%rax
    3327:	4c 8d 74 24 60       	lea    0x60(%rsp),%r14
    332c:	ba ff ff ff ff       	mov    $0xffffffff,%edx
    3331:	48 89 ee             	mov    %rbp,%rsi
    3334:	4c 89 f7             	mov    %r14,%rdi
    3337:	e8 ec fc ff ff       	callq  3028 <_init@@Base+0x1b8>
    333c:	4c 89 f6             	mov    %r14,%rsi
    333f:	48 89 e7             	mov    %rsp,%rdi
    3342:	48 89 e5             	mov    %rsp,%rbp
    3345:	e8 c6 fb ff ff       	callq  2f10 <_init@@Base+0xa0>
    334a:	48 8d 7c 24 20       	lea    0x20(%rsp),%rdi
    334f:	4c 89 ee             	mov    %r13,%rsi
    3352:	e8 b9 fb ff ff       	callq  2f10 <_init@@Base+0xa0>
    3357:	48 8d 35 a2 3d 20 00 	lea    0x203da2(%rip),%rsi        # 207100 <_edata@@Base+0xd8>
    335e:	48 89 e1             	mov    %rsp,%rcx
    3361:	ba 02 00 00 00       	mov    $0x2,%edx
    3366:	48 89 df             	mov    %rbx,%rdi
    3369:	e8 92 fc ff ff       	callq  3000 <_init@@Base+0x190>
    336e:	48 8b 44 24 20       	mov    0x20(%rsp),%rax
    3373:	48 8d 7c 24 20       	lea    0x20(%rsp),%rdi
    3378:	ff 10                	callq  *(%rax)
    337a:	48 89 e7             	mov    %rsp,%rdi
    337d:	e8 1e fb ff ff       	callq  2ea0 <_init@@Base+0x30>
    3382:	48 89 df             	mov    %rbx,%rdi
    3385:	e8 1e fb ff ff       	callq  2ea8 <_init@@Base+0x38>
    338a:	48 89 df             	mov    %rbx,%rdi
    338d:	41 89 c4             	mov    %eax,%r12d
    3390:	e8 0b fb ff ff       	callq  2ea0 <_init@@Base+0x30>
    3395:	4c 89 f7             	mov    %r14,%rdi
    3398:	e8 03 fb ff ff       	callq  2ea0 <_init@@Base+0x30>
    339d:	48 8b 05 84 3b 20 00 	mov    0x203b84(%rip),%rax        # 206f28 <_ZTVN3Php8FunctionE@@Base+0x498>
    33a4:	4c 89 ef             	mov    %r13,%rdi
    33a7:	48 83 c0 10          	add    $0x10,%rax
    33ab:	48 89 44 24 40       	mov    %rax,0x40(%rsp)
    33b0:	e8 cb fc ff ff       	callq  3080 <_init@@Base+0x210>
    33b5:	e9 c4 fe ff ff       	jmpq   327e <_Z21check_hacking_attemptPcS_@@Base+0x3e>
    33ba:	66 0f 1f 44 00 00    	nopw   0x0(%rax,%rax,1)
    33c0:	48 8b 13             	mov    (%rbx),%rdx
    33c3:	48 8d 7d 08          	lea    0x8(%rbp),%rdi
    33c7:	48 89 de             	mov    %rbx,%rsi
    33ca:	48 83 e7 f8          	and    $0xfffffffffffffff8,%rdi
    33ce:	48 89 55 00          	mov    %rdx,0x0(%rbp)
    33d2:	89 c2                	mov    %eax,%edx
    33d4:	48 8b 4c 13 f8       	mov    -0x8(%rbx,%rdx,1),%rcx
    33d9:	48 89 4c 15 f8       	mov    %rcx,-0x8(%rbp,%rdx,1)
    33de:	48 89 e9             	mov    %rbp,%rcx
    33e1:	48 29 f9             	sub    %rdi,%rcx
    33e4:	48 29 ce             	sub    %rcx,%rsi
    33e7:	01 c1                	add    %eax,%ecx
    33e9:	89 c8                	mov    %ecx,%eax
    33eb:	c1 e8 03             	shr    $0x3,%eax
    33ee:	89 c1                	mov    %eax,%ecx
    33f0:	f3 48 a5             	rep movsq %ds:(%rsi),%es:(%rdi)
    33f3:	e9 df fe ff ff       	jmpq   32d7 <_Z21check_hacking_attemptPcS_@@Base+0x97>
    33f8:	0f 1f 84 00 00 00 00 	nopl   0x0(%rax,%rax,1)
    33ff:	00 
    3400:	8b 13                	mov    (%rbx),%edx
    3402:	89 c0                	mov    %eax,%eax
    3404:	89 55 00             	mov    %edx,0x0(%rbp)
    3407:	8b 54 03 fc          	mov    -0x4(%rbx,%rax,1),%edx
    340b:	89 54 05 fc          	mov    %edx,-0x4(%rbp,%rax,1)
    340f:	e9 c3 fe ff ff       	jmpq   32d7 <_Z21check_hacking_attemptPcS_@@Base+0x97>
    3414:	89 c0                	mov    %eax,%eax
    3416:	0f b7 54 03 fe       	movzwl -0x2(%rbx,%rax,1),%edx
    341b:	66 89 54 05 fe       	mov    %dx,-0x2(%rbp,%rax,1)
    3420:	e9 b2 fe ff ff       	jmpq   32d7 <_Z21check_hacking_attemptPcS_@@Base+0x97>
    3425:	e8 c6 fb ff ff       	callq  2ff0 <_init@@Base+0x180>
    342a:	48 89 c3             	mov    %rax,%rbx
    342d:	b8 01 00 00 00       	mov    $0x1,%eax
    3432:	41 bc 01 00 00 00    	mov    $0x1,%r12d
    3438:	49 29 c4             	sub    %rax,%r12
    343b:	49 c1 e4 05          	shl    $0x5,%r12
    343f:	49 01 ec             	add    %rbp,%r12
    3442:	49 39 ec             	cmp    %rbp,%r12
    3445:	74 40                	je     3487 <_Z21check_hacking_attemptPcS_@@Base+0x247>
    3447:	49 83 ec 20          	sub    $0x20,%r12
    344b:	49 8b 04 24          	mov    (%r12),%rax
    344f:	4c 89 e7             	mov    %r12,%rdi
    3452:	ff 10                	callq  *(%rax)
    3454:	eb ec                	jmp    3442 <_Z21check_hacking_attemptPcS_@@Base+0x202>
    3456:	48 89 c3             	mov    %rax,%rbx
    3459:	48 8b 05 c8 3a 20 00 	mov    0x203ac8(%rip),%rax        # 206f28 <_ZTVN3Php8FunctionE@@Base+0x498>
    3460:	4c 89 ef             	mov    %r13,%rdi
    3463:	48 83 c0 10          	add    $0x10,%rax
    3467:	48 89 44 24 40       	mov    %rax,0x40(%rsp)
    346c:	e8 0f fc ff ff       	callq  3080 <_init@@Base+0x210>
    3471:	48 89 df             	mov    %rbx,%rdi
    3474:	e8 0f fc ff ff       	callq  3088 <_init@@Base+0x218>
    3479:	48 89 c5             	mov    %rax,%rbp
    347c:	48 89 df             	mov    %rbx,%rdi
    347f:	48 89 eb             	mov    %rbp,%rbx
    3482:	e8 19 fa ff ff       	callq  2ea0 <_init@@Base+0x30>
    3487:	4c 89 f7             	mov    %r14,%rdi
    348a:	e8 11 fa ff ff       	callq  2ea0 <_init@@Base+0x30>
    348f:	eb c8                	jmp    3459 <_Z21check_hacking_attemptPcS_@@Base+0x219>
    3491:	48 89 c5             	mov    %rax,%rbp
    3494:	48 8b 84 24 90 00 00 	mov    0x90(%rsp),%rax
    349b:	00 
    349c:	48 85 c0             	test   %rax,%rax
    349f:	74 0d                	je     34ae <_Z21check_hacking_attemptPcS_@@Base+0x26e>
    34a1:	ba 03 00 00 00       	mov    $0x3,%edx
    34a6:	48 89 de             	mov    %rbx,%rsi
    34a9:	48 89 df             	mov    %rbx,%rdi
    34ac:	ff d0                	callq  *%rax
    34ae:	48 89 ef             	mov    %rbp,%rdi
    34b1:	e8 d2 fb ff ff       	callq  3088 <_init@@Base+0x218>
    34b6:	48 89 c3             	mov    %rax,%rbx
    34b9:	48 8b 44 24 20       	mov    0x20(%rsp),%rax
    34be:	48 8d 7d 20          	lea    0x20(%rbp),%rdi
    34c2:	ff 10                	callq  *(%rax)
    34c4:	48 89 ef             	mov    %rbp,%rdi
    34c7:	e8 d4 f9 ff ff       	callq  2ea0 <_init@@Base+0x30>
    34cc:	eb b9                	jmp    3487 <_Z21check_hacking_attemptPcS_@@Base+0x247>
    34ce:	48 89 c3             	mov    %rax,%rbx
    34d1:	31 c0                	xor    %eax,%eax
    34d3:	e9 5a ff ff ff       	jmpq   3432 <_Z21check_hacking_attemptPcS_@@Base+0x1f2>
    34d8:	0f 1f 84 00 00 00 00 	nopl   0x0(%rax,%rax,1)
    34df:	00 
    34e0:	55                   	push   %rbp
    34e1:	53                   	push   %rbx
    34e2:	48 89 fd             	mov    %rdi,%rbp
    34e5:	48 83 ec 38          	sub    $0x38,%rsp
    34e9:	48 8b 32             	mov    (%rdx),%rsi
    34ec:	64 48 8b 04 25 28 00 	mov    %fs:0x28,%rax
    34f3:	00 00 
    34f5:	48 89 44 24 28       	mov    %rax,0x28(%rsp)
    34fa:	31 c0                	xor    %eax,%eax
    34fc:	48 8b 42 08          	mov    0x8(%rdx),%rax
    3500:	48 29 f0             	sub    %rsi,%rax
    3503:	48 c1 f8 05          	sar    $0x5,%rax
    3507:	48 85 c0             	test   %rax,%rax
    350a:	74 6c                	je     3578 <_Z21check_hacking_attemptPcS_@@Base+0x338>
    350c:	48 89 e7             	mov    %rsp,%rdi
    350f:	48 89 e3             	mov    %rsp,%rbx
    3512:	e8 f1 f9 ff ff       	callq  2f08 <_init@@Base+0x98>
    3517:	48 8d 35 82 1d 00 00 	lea    0x1d82(%rip),%rsi        # 52a0 <_fini@@Base+0xc>
    351e:	b9 06 00 00 00       	mov    $0x6,%ecx
    3523:	31 d2                	xor    %edx,%edx
    3525:	48 89 e7             	mov    %rsp,%rdi
    3528:	e8 43 fb ff ff       	callq  3070 <_init@@Base+0x200>
    352d:	48 83 f8 ff          	cmp    $0xffffffffffffffff,%rax
    3531:	74 55                	je     3588 <_Z21check_hacking_attemptPcS_@@Base+0x348>
    3533:	c7 05 cb 3a 20 00 01 	movl   $0x1,0x203acb(%rip)        # 207008 <_ZTVN3Php8FunctionE@@Base+0x578>
    353a:	00 00 00 
    353d:	31 f6                	xor    %esi,%esi
    353f:	48 89 ef             	mov    %rbp,%rdi
    3542:	e8 81 f9 ff ff       	callq  2ec8 <_init@@Base+0x58>
    3547:	48 8b 3c 24          	mov    (%rsp),%rdi
    354b:	48 83 c3 10          	add    $0x10,%rbx
    354f:	48 39 df             	cmp    %rbx,%rdi
    3552:	74 05                	je     3559 <_Z21check_hacking_attemptPcS_@@Base+0x319>
    3554:	e8 6f fa ff ff       	callq  2fc8 <_init@@Base+0x158>
    3559:	48 8b 4c 24 28       	mov    0x28(%rsp),%rcx
    355e:	64 48 33 0c 25 28 00 	xor    %fs:0x28,%rcx
    3565:	00 00 
    3567:	48 89 e8             	mov    %rbp,%rax
    356a:	75 67                	jne    35d3 <_Z21check_hacking_attemptPcS_@@Base+0x393>
    356c:	48 83 c4 38          	add    $0x38,%rsp
    3570:	5b                   	pop    %rbx
    3571:	5d                   	pop    %rbp
    3572:	c3                   	retq   
    3573:	0f 1f 44 00 00       	nopl   0x0(%rax,%rax,1)
    3578:	31 f6                	xor    %esi,%esi
    357a:	e8 49 f9 ff ff       	callq  2ec8 <_init@@Base+0x58>
    357f:	eb d8                	jmp    3559 <_Z21check_hacking_attemptPcS_@@Base+0x319>
    3581:	0f 1f 80 00 00 00 00 	nopl   0x0(%rax)
    3588:	48 8d 35 18 1d 00 00 	lea    0x1d18(%rip),%rsi        # 52a7 <_fini@@Base+0x13>
    358f:	b9 06 00 00 00       	mov    $0x6,%ecx
    3594:	31 d2                	xor    %edx,%edx
    3596:	48 89 e7             	mov    %rsp,%rdi
    3599:	e8 d2 fa ff ff       	callq  3070 <_init@@Base+0x200>
    359e:	48 83 f8 ff          	cmp    $0xffffffffffffffff,%rax
    35a2:	75 8f                	jne    3533 <_Z21check_hacking_attemptPcS_@@Base+0x2f3>
    35a4:	48 8d 35 03 1d 00 00 	lea    0x1d03(%rip),%rsi        # 52ae <_fini@@Base+0x1a>
    35ab:	b9 01 00 00 00       	mov    $0x1,%ecx
    35b0:	31 d2                	xor    %edx,%edx
    35b2:	48 89 e7             	mov    %rsp,%rdi
    35b5:	e8 b6 fa ff ff       	callq  3070 <_init@@Base+0x200>
    35ba:	48 83 f8 ff          	cmp    $0xffffffffffffffff,%rax
    35be:	0f 85 6f ff ff ff    	jne    3533 <_Z21check_hacking_attemptPcS_@@Base+0x2f3>
    35c4:	c7 05 3a 3a 20 00 00 	movl   $0x0,0x203a3a(%rip)        # 207008 <_ZTVN3Php8FunctionE@@Base+0x578>
    35cb:	00 00 00 
    35ce:	e9 6a ff ff ff       	jmpq   353d <_Z21check_hacking_attemptPcS_@@Base+0x2fd>
    35d3:	e8 18 fa ff ff       	callq  2ff0 <_init@@Base+0x180>
    35d8:	48 8b 3c 24          	mov    (%rsp),%rdi
    35dc:	48 83 c3 10          	add    $0x10,%rbx
    35e0:	48 89 c5             	mov    %rax,%rbp
    35e3:	48 39 df             	cmp    %rbx,%rdi
    35e6:	74 05                	je     35ed <_Z21check_hacking_attemptPcS_@@Base+0x3ad>
    35e8:	e8 db f9 ff ff       	callq  2fc8 <_init@@Base+0x158>
    35ed:	48 89 ef             	mov    %rbp,%rdi
    35f0:	e8 93 fa ff ff       	callq  3088 <_init@@Base+0x218>
    35f5:	90                   	nop
    35f6:	66 2e 0f 1f 84 00 00 	nopw   %cs:0x0(%rax,%rax,1)
    35fd:	00 00 00 
    3600:	41 54                	push   %r12
    3602:	55                   	push   %rbp
    3603:	49 89 f4             	mov    %rsi,%r12
    3606:	53                   	push   %rbx
    3607:	48 89 fd             	mov    %rdi,%rbp
    360a:	48 83 ec 10          	sub    $0x10,%rsp
    360e:	48 85 f6             	test   %rsi,%rsi
    3611:	75 15                	jne    3628 <_Z21check_hacking_attemptPcS_@@Base+0x3e8>
    3613:	48 85 d2             	test   %rdx,%rdx
    3616:	74 10                	je     3628 <_Z21check_hacking_attemptPcS_@@Base+0x3e8>
    3618:	48 8d 3d 39 1d 00 00 	lea    0x1d39(%rip),%rdi        # 5358 <_fini@@Base+0xc4>
    361f:	e8 44 f9 ff ff       	callq  2f68 <_init@@Base+0xf8>
    3624:	0f 1f 40 00          	nopl   0x0(%rax)
    3628:	48 89 d3             	mov    %rdx,%rbx
    362b:	4c 29 e3             	sub    %r12,%rbx
    362e:	48 83 fb 0f          	cmp    $0xf,%rbx
    3632:	48 89 5c 24 08       	mov    %rbx,0x8(%rsp)
    3637:	77 2f                	ja     3668 <_Z21check_hacking_attemptPcS_@@Base+0x428>
    3639:	48 8b 55 00          	mov    0x0(%rbp),%rdx
    363d:	48 83 fb 01          	cmp    $0x1,%rbx
    3641:	48 89 d7             	mov    %rdx,%rdi
    3644:	74 5a                	je     36a0 <_Z21check_hacking_attemptPcS_@@Base+0x460>
    3646:	48 85 db             	test   %rbx,%rbx
    3649:	75 3c                	jne    3687 <_Z21check_hacking_attemptPcS_@@Base+0x447>
    364b:	48 8b 44 24 08       	mov    0x8(%rsp),%rax
    3650:	48 89 45 08          	mov    %rax,0x8(%rbp)
    3654:	c6 04 02 00          	movb   $0x0,(%rdx,%rax,1)
    3658:	48 83 c4 10          	add    $0x10,%rsp
    365c:	5b                   	pop    %rbx
    365d:	5d                   	pop    %rbp
    365e:	41 5c                	pop    %r12
    3660:	c3                   	retq   
    3661:	0f 1f 80 00 00 00 00 	nopl   0x0(%rax)
    3668:	48 8d 74 24 08       	lea    0x8(%rsp),%rsi
    366d:	48 89 ef             	mov    %rbp,%rdi
    3670:	31 d2                	xor    %edx,%edx
    3672:	e8 19 fa ff ff       	callq  3090 <_init@@Base+0x220>
    3677:	48 89 c7             	mov    %rax,%rdi
    367a:	48 89 45 00          	mov    %rax,0x0(%rbp)
    367e:	48 8b 44 24 08       	mov    0x8(%rsp),%rax
    3683:	48 89 45 10          	mov    %rax,0x10(%rbp)
    3687:	48 89 da             	mov    %rbx,%rdx
    368a:	4c 89 e6             	mov    %r12,%rsi
    368d:	e8 0e f9 ff ff       	callq  2fa0 <_init@@Base+0x130>
    3692:	48 8b 55 00          	mov    0x0(%rbp),%rdx
    3696:	eb b3                	jmp    364b <_Z21check_hacking_attemptPcS_@@Base+0x40b>
    3698:	0f 1f 84 00 00 00 00 	nopl   0x0(%rax,%rax,1)
    369f:	00 
    36a0:	41 0f b6 04 24       	movzbl (%r12),%eax
    36a5:	88 02                	mov    %al,(%rdx)
    36a7:	48 8b 55 00          	mov    0x0(%rbp),%rdx
    36ab:	eb 9e                	jmp    364b <_Z21check_hacking_attemptPcS_@@Base+0x40b>
    36ad:	0f 1f 00             	nopl   (%rax)

00000000000036b0 <_Z14hash_that_passNSt7__cxx1112basic_stringIcSt11char_traitsIcESaIcEEE@@Base>:
    36b0:	41 57                	push   %r15
    36b2:	41 56                	push   %r14
    36b4:	49 89 fe             	mov    %rdi,%r14
    36b7:	41 55                	push   %r13
    36b9:	41 54                	push   %r12
    36bb:	55                   	push   %rbp
    36bc:	53                   	push   %rbx
    36bd:	48 81 ec 98 00 00 00 	sub    $0x98,%rsp
    36c4:	48 8d 5c 24 60       	lea    0x60(%rsp),%rbx
    36c9:	64 48 8b 04 25 28 00 	mov    %fs:0x28,%rax
    36d0:	00 00 
    36d2:	48 89 84 24 88 00 00 	mov    %rax,0x88(%rsp)
    36d9:	00 
    36da:	31 c0                	xor    %eax,%eax
    36dc:	48 8d 43 10          	lea    0x10(%rbx),%rax
    36e0:	48 89 df             	mov    %rbx,%rdi
    36e3:	48 89 44 24 60       	mov    %rax,0x60(%rsp)
    36e8:	48 8b 06             	mov    (%rsi),%rax
    36eb:	48 89 c2             	mov    %rax,%rdx
    36ee:	48 03 56 08          	add    0x8(%rsi),%rdx
    36f2:	48 89 c6             	mov    %rax,%rsi
    36f5:	e8 06 ff ff ff       	callq  3600 <_Z21check_hacking_attemptPcS_@@Base+0x3c0>
    36fa:	48 b8 ff ff ff ff ff 	movabs $0x7fffffffffffffff,%rax
    3701:	ff ff 7f 
    3704:	48 2b 44 24 68       	sub    0x68(%rsp),%rax
    3709:	48 83 f8 09          	cmp    $0x9,%rax
    370d:	0f 86 ee 00 00 00    	jbe    3801 <_Z14hash_that_passNSt7__cxx1112basic_stringIcSt11char_traitsIcESaIcEEE@@Base+0x151>
    3713:	48 8d 35 be 1b 00 00 	lea    0x1bbe(%rip),%rsi        # 52d8 <_fini@@Base+0x44>
    371a:	ba 0a 00 00 00       	mov    $0xa,%edx
    371f:	48 89 df             	mov    %rbx,%rdi
    3722:	e8 99 f7 ff ff       	callq  2ec0 <_init@@Base+0x50>
    3727:	48 89 de             	mov    %rbx,%rsi
    372a:	4c 89 f7             	mov    %r14,%rdi
    372d:	e8 0e f9 ff ff       	callq  3040 <_init@@Base+0x1d0>
    3732:	48 8b 7c 24 60       	mov    0x60(%rsp),%rdi
    3737:	48 8d 43 10          	lea    0x10(%rbx),%rax
    373b:	48 39 c7             	cmp    %rax,%rdi
    373e:	74 05                	je     3745 <_Z14hash_that_passNSt7__cxx1112basic_stringIcSt11char_traitsIcESaIcEEE@@Base+0x95>
    3740:	e8 83 f8 ff ff       	callq  2fc8 <_init@@Base+0x158>
    3745:	4c 8d 7c 24 20       	lea    0x20(%rsp),%r15
    374a:	4c 8d 64 24 40       	lea    0x40(%rsp),%r12
    374f:	41 bd 14 00 00 00    	mov    $0x14,%r13d
    3755:	48 89 e5             	mov    %rsp,%rbp
    3758:	0f 1f 84 00 00 00 00 	nopl   0x0(%rax,%rax,1)
    375f:	00 
    3760:	48 8d 35 7c 1b 00 00 	lea    0x1b7c(%rip),%rsi        # 52e3 <_fini@@Base+0x4f>
    3767:	ba ff ff ff ff       	mov    $0xffffffff,%edx
    376c:	48 89 df             	mov    %rbx,%rdi
    376f:	e8 b4 f8 ff ff       	callq  3028 <_init@@Base+0x1b8>
    3774:	48 8d 35 6d 1b 00 00 	lea    0x1b6d(%rip),%rsi        # 52e8 <_fini@@Base+0x54>
    377b:	ba ff ff ff ff       	mov    $0xffffffff,%edx
    3780:	48 89 ef             	mov    %rbp,%rdi
    3783:	e8 a0 f8 ff ff       	callq  3028 <_init@@Base+0x1b8>
    3788:	4c 89 f6             	mov    %r14,%rsi
    378b:	4c 89 ff             	mov    %r15,%rdi
    378e:	e8 7d f7 ff ff       	callq  2f10 <_init@@Base+0xa0>
    3793:	48 89 e9             	mov    %rbp,%rcx
    3796:	ba 02 00 00 00       	mov    $0x2,%edx
    379b:	48 89 de             	mov    %rbx,%rsi
    379e:	4c 89 e7             	mov    %r12,%rdi
    37a1:	e8 5a f8 ff ff       	callq  3000 <_init@@Base+0x190>
    37a6:	48 8b 44 24 20       	mov    0x20(%rsp),%rax
    37ab:	4c 89 ff             	mov    %r15,%rdi
    37ae:	ff 10                	callq  *(%rax)
    37b0:	48 89 ef             	mov    %rbp,%rdi
    37b3:	e8 e8 f6 ff ff       	callq  2ea0 <_init@@Base+0x30>
    37b8:	48 89 df             	mov    %rbx,%rdi
    37bb:	e8 e0 f6 ff ff       	callq  2ea0 <_init@@Base+0x30>
    37c0:	4c 89 e6             	mov    %r12,%rsi
    37c3:	4c 89 f7             	mov    %r14,%rdi
    37c6:	e8 ed f6 ff ff       	callq  2eb8 <_init@@Base+0x48>
    37cb:	4c 89 e7             	mov    %r12,%rdi
    37ce:	e8 cd f6 ff ff       	callq  2ea0 <_init@@Base+0x30>
    37d3:	41 83 ed 01          	sub    $0x1,%r13d
    37d7:	75 87                	jne    3760 <_Z14hash_that_passNSt7__cxx1112basic_stringIcSt11char_traitsIcESaIcEEE@@Base+0xb0>
    37d9:	48 8b 8c 24 88 00 00 	mov    0x88(%rsp),%rcx
    37e0:	00 
    37e1:	64 48 33 0c 25 28 00 	xor    %fs:0x28,%rcx
    37e8:	00 00 
    37ea:	4c 89 f0             	mov    %r14,%rax
    37ed:	75 1e                	jne    380d <_Z14hash_that_passNSt7__cxx1112basic_stringIcSt11char_traitsIcESaIcEEE@@Base+0x15d>
    37ef:	48 81 c4 98 00 00 00 	add    $0x98,%rsp
    37f6:	5b                   	pop    %rbx
    37f7:	5d                   	pop    %rbp
    37f8:	41 5c                	pop    %r12
    37fa:	41 5d                	pop    %r13
    37fc:	41 5e                	pop    %r14
    37fe:	41 5f                	pop    %r15
    3800:	c3                   	retq   
    3801:	48 8d 3d bb 1a 00 00 	lea    0x1abb(%rip),%rdi        # 52c3 <_fini@@Base+0x2f>
    3808:	e8 23 f7 ff ff       	callq  2f30 <_init@@Base+0xc0>
    380d:	e8 de f7 ff ff       	callq  2ff0 <_init@@Base+0x180>
    3812:	49 89 c4             	mov    %rax,%r12
    3815:	48 8b 44 24 20       	mov    0x20(%rsp),%rax
    381a:	48 8d 7d 20          	lea    0x20(%rbp),%rdi
    381e:	ff 10                	callq  *(%rax)
    3820:	48 89 ef             	mov    %rbp,%rdi
    3823:	4c 89 e5             	mov    %r12,%rbp
    3826:	e8 75 f6 ff ff       	callq  2ea0 <_init@@Base+0x30>
    382b:	48 89 df             	mov    %rbx,%rdi
    382e:	e8 6d f6 ff ff       	callq  2ea0 <_init@@Base+0x30>
    3833:	4c 89 f7             	mov    %r14,%rdi
    3836:	e8 65 f6 ff ff       	callq  2ea0 <_init@@Base+0x30>
    383b:	48 89 ef             	mov    %rbp,%rdi
    383e:	e8 45 f8 ff ff       	callq  3088 <_init@@Base+0x218>
    3843:	49 89 c4             	mov    %rax,%r12
    3846:	48 89 ef             	mov    %rbp,%rdi
    3849:	e8 52 f6 ff ff       	callq  2ea0 <_init@@Base+0x30>
    384e:	4c 89 e5             	mov    %r12,%rbp
    3851:	eb d8                	jmp    382b <_Z14hash_that_passNSt7__cxx1112basic_stringIcSt11char_traitsIcESaIcEEE@@Base+0x17b>
    3853:	48 89 c5             	mov    %rax,%rbp
    3856:	eb d3                	jmp    382b <_Z14hash_that_passNSt7__cxx1112basic_stringIcSt11char_traitsIcESaIcEEE@@Base+0x17b>
    3858:	48 89 c5             	mov    %rax,%rbp
    385b:	eb d6                	jmp    3833 <_Z14hash_that_passNSt7__cxx1112basic_stringIcSt11char_traitsIcESaIcEEE@@Base+0x183>
    385d:	48 8b 7c 24 60       	mov    0x60(%rsp),%rdi
    3862:	48 83 c3 10          	add    $0x10,%rbx
    3866:	48 89 c5             	mov    %rax,%rbp
    3869:	48 39 df             	cmp    %rbx,%rdi
    386c:	74 cd                	je     383b <_Z14hash_that_passNSt7__cxx1112basic_stringIcSt11char_traitsIcESaIcEEE@@Base+0x18b>
    386e:	e8 55 f7 ff ff       	callq  2fc8 <_init@@Base+0x158>
    3873:	eb c6                	jmp    383b <_Z14hash_that_passNSt7__cxx1112basic_stringIcSt11char_traitsIcESaIcEEE@@Base+0x18b>
    3875:	eb e6                	jmp    385d <_Z14hash_that_passNSt7__cxx1112basic_stringIcSt11char_traitsIcESaIcEEE@@Base+0x1ad>
    3877:	66 0f 1f 84 00 00 00 	nopw   0x0(%rax,%rax,1)
    387e:	00 00 

0000000000003880 <_Z10get_resultRN3Php10ParametersE@@Base>:
    3880:	8b 35 82 37 20 00    	mov    0x203782(%rip),%esi        # 207008 <_ZTVN3Php8FunctionE@@Base+0x578>
    3886:	53                   	push   %rbx
    3887:	48 89 fb             	mov    %rdi,%rbx
    388a:	e8 c1 f6 ff ff       	callq  2f50 <_init@@Base+0xe0>
    388f:	48 89 d8             	mov    %rbx,%rax
    3892:	5b                   	pop    %rbx
    3893:	c3                   	retq   
    3894:	66 90                	xchg   %ax,%ax
    3896:	66 2e 0f 1f 84 00 00 	nopw   %cs:0x0(%rax,%rax,1)
    389d:	00 00 00 

00000000000038a0 <_Z17check_credentialsRN3Php10ParametersE@@Base>:
    38a0:	41 57                	push   %r15
    38a2:	41 56                	push   %r14
    38a4:	49 89 f7             	mov    %rsi,%r15
    38a7:	41 55                	push   %r13
    38a9:	41 54                	push   %r12
    38ab:	49 89 fe             	mov    %rdi,%r14
    38ae:	55                   	push   %rbp
    38af:	53                   	push   %rbx
    38b0:	48 81 ec b8 00 00 00 	sub    $0xb8,%rsp
    38b7:	48 8b 36             	mov    (%rsi),%rsi
    38ba:	48 89 e7             	mov    %rsp,%rdi
    38bd:	48 8d 5c 24 40       	lea    0x40(%rsp),%rbx
    38c2:	48 89 e5             	mov    %rsp,%rbp
    38c5:	64 48 8b 04 25 28 00 	mov    %fs:0x28,%rax
    38cc:	00 00 
    38ce:	48 89 84 24 a8 00 00 	mov    %rax,0xa8(%rsp)
    38d5:	00 
    38d6:	31 c0                	xor    %eax,%eax
    38d8:	e8 2b f6 ff ff       	callq  2f08 <_init@@Base+0x98>
    38dd:	49 8b 07             	mov    (%r15),%rax
    38e0:	48 89 df             	mov    %rbx,%rdi
    38e3:	48 8d 70 20          	lea    0x20(%rax),%rsi
    38e7:	e8 1c f6 ff ff       	callq  2f08 <_init@@Base+0x98>
    38ec:	4c 8d 6c 24 60       	lea    0x60(%rsp),%r13
    38f1:	48 89 de             	mov    %rbx,%rsi
    38f4:	4c 89 ef             	mov    %r13,%rdi
    38f7:	e8 ec f6 ff ff       	callq  2fe8 <_init@@Base+0x178>
    38fc:	4c 8d 64 24 20       	lea    0x20(%rsp),%r12
    3901:	4c 89 ee             	mov    %r13,%rsi
    3904:	4c 89 e7             	mov    %r12,%rdi
    3907:	e8 fc f5 ff ff       	callq  2f08 <_init@@Base+0x98>
    390c:	4c 89 ef             	mov    %r13,%rdi
    390f:	48 83 c3 10          	add    $0x10,%rbx
    3913:	e8 88 f5 ff ff       	callq  2ea0 <_init@@Base+0x30>
    3918:	48 8b 7c 24 40       	mov    0x40(%rsp),%rdi
    391d:	48 39 df             	cmp    %rbx,%rdi
    3920:	74 05                	je     3927 <_Z17check_credentialsRN3Php10ParametersE@@Base+0x87>
    3922:	e8 a1 f6 ff ff       	callq  2fc8 <_init@@Base+0x158>
    3927:	49 8b 37             	mov    (%r15),%rsi
    392a:	48 8d 3d cf 37 20 00 	lea    0x2037cf(%rip),%rdi        # 207100 <_edata@@Base+0xd8>
    3931:	48 83 c6 40          	add    $0x40,%rsi
    3935:	e8 3e f6 ff ff       	callq  2f78 <_init@@Base+0x108>
    393a:	48 8b 15 47 34 20 00 	mov    0x203447(%rip),%rdx        # 206d88 <_ZTVN3Php8FunctionE@@Base+0x2f8>
    3941:	48 8b 74 24 20       	mov    0x20(%rsp),%rsi
    3946:	48 8b 3c 24          	mov    (%rsp),%rdi
    394a:	e8 49 f7 ff ff       	callq  3098 <_init@@Base+0x228>
    394f:	48 8d 3d aa 37 20 00 	lea    0x2037aa(%rip),%rdi        # 207100 <_edata@@Base+0xd8>
    3956:	31 f6                	xor    %esi,%esi
    3958:	89 c3                	mov    %eax,%ebx
    395a:	e8 89 f5 ff ff       	callq  2ee8 <_init@@Base+0x78>
    395f:	83 fb fe             	cmp    $0xfffffffe,%ebx
    3962:	74 5c                	je     39c0 <_Z17check_credentialsRN3Php10ParametersE@@Base+0x120>
    3964:	85 db                	test   %ebx,%ebx
    3966:	7e 69                	jle    39d1 <_Z17check_credentialsRN3Php10ParametersE@@Base+0x131>
    3968:	89 de                	mov    %ebx,%esi
    396a:	4c 89 f7             	mov    %r14,%rdi
    396d:	e8 de f5 ff ff       	callq  2f50 <_init@@Base+0xe0>
    3972:	48 8b 7c 24 20       	mov    0x20(%rsp),%rdi
    3977:	49 83 c4 10          	add    $0x10,%r12
    397b:	4c 39 e7             	cmp    %r12,%rdi
    397e:	74 05                	je     3985 <_Z17check_credentialsRN3Php10ParametersE@@Base+0xe5>
    3980:	e8 43 f6 ff ff       	callq  2fc8 <_init@@Base+0x158>
    3985:	48 8b 3c 24          	mov    (%rsp),%rdi
    3989:	48 83 c5 10          	add    $0x10,%rbp
    398d:	48 39 ef             	cmp    %rbp,%rdi
    3990:	74 05                	je     3997 <_Z17check_credentialsRN3Php10ParametersE@@Base+0xf7>
    3992:	e8 31 f6 ff ff       	callq  2fc8 <_init@@Base+0x158>
    3997:	48 8b 8c 24 a8 00 00 	mov    0xa8(%rsp),%rcx
    399e:	00 
    399f:	64 48 33 0c 25 28 00 	xor    %fs:0x28,%rcx
    39a6:	00 00 
    39a8:	4c 89 f0             	mov    %r14,%rax
    39ab:	75 1f                	jne    39cc <_Z17check_credentialsRN3Php10ParametersE@@Base+0x12c>
    39ad:	48 81 c4 b8 00 00 00 	add    $0xb8,%rsp
    39b4:	5b                   	pop    %rbx
    39b5:	5d                   	pop    %rbp
    39b6:	41 5c                	pop    %r12
    39b8:	41 5d                	pop    %r13
    39ba:	41 5e                	pop    %r14
    39bc:	41 5f                	pop    %r15
    39be:	c3                   	retq   
    39bf:	90                   	nop
    39c0:	31 f6                	xor    %esi,%esi
    39c2:	4c 89 f7             	mov    %r14,%rdi
    39c5:	e8 86 f5 ff ff       	callq  2f50 <_init@@Base+0xe0>
    39ca:	eb a6                	jmp    3972 <_Z17check_credentialsRN3Php10ParametersE@@Base+0xd2>
    39cc:	e8 1f f6 ff ff       	callq  2ff0 <_init@@Base+0x180>
    39d1:	bf 28 00 00 00       	mov    $0x28,%edi
    39d6:	48 8d 9c 24 80 00 00 	lea    0x80(%rsp),%rbx
    39dd:	00 
    39de:	e8 35 f5 ff ff       	callq  2f18 <_init@@Base+0xa8>
    39e3:	48 8d 35 9e 19 00 00 	lea    0x199e(%rip),%rsi        # 5388 <_fini@@Base+0xf4>
    39ea:	48 89 df             	mov    %rbx,%rdi
    39ed:	49 89 c5             	mov    %rax,%r13
    39f0:	e8 cb f6 ff ff       	callq  30c0 <_init@@Base+0x250>
    39f5:	48 8b 05 c4 34 20 00 	mov    0x2034c4(%rip),%rax        # 206ec0 <_ZTVN3Php8FunctionE@@Base+0x430>
    39fc:	48 83 c3 10          	add    $0x10,%rbx
    3a00:	48 83 c0 10          	add    $0x10,%rax
    3a04:	49 89 45 00          	mov    %rax,0x0(%r13)
    3a08:	49 8d 45 18          	lea    0x18(%r13),%rax
    3a0c:	49 89 45 08          	mov    %rax,0x8(%r13)
    3a10:	48 8b 84 24 80 00 00 	mov    0x80(%rsp),%rax
    3a17:	00 
    3a18:	48 39 d8             	cmp    %rbx,%rax
    3a1b:	74 62                	je     3a7f <_Z17check_credentialsRN3Php10ParametersE@@Base+0x1df>
    3a1d:	49 89 45 08          	mov    %rax,0x8(%r13)
    3a21:	48 8b 84 24 90 00 00 	mov    0x90(%rsp),%rax
    3a28:	00 
    3a29:	49 89 45 18          	mov    %rax,0x18(%r13)
    3a2d:	48 8b 84 24 88 00 00 	mov    0x88(%rsp),%rax
    3a34:	00 
    3a35:	48 8b 15 a4 34 20 00 	mov    0x2034a4(%rip),%rdx        # 206ee0 <_ZTVN3Php8FunctionE@@Base+0x450>
    3a3c:	4c 89 ef             	mov    %r13,%rdi
    3a3f:	48 8b 35 72 35 20 00 	mov    0x203572(%rip),%rsi        # 206fb8 <_ZTVN3Php8FunctionE@@Base+0x528>
    3a46:	49 89 45 10          	mov    %rax,0x10(%r13)
    3a4a:	e8 19 f6 ff ff       	callq  3068 <_init@@Base+0x1f8>
    3a4f:	48 89 c3             	mov    %rax,%rbx
    3a52:	48 8b 7c 24 20       	mov    0x20(%rsp),%rdi
    3a57:	49 83 c4 10          	add    $0x10,%r12
    3a5b:	4c 39 e7             	cmp    %r12,%rdi
    3a5e:	74 05                	je     3a65 <_Z17check_credentialsRN3Php10ParametersE@@Base+0x1c5>
    3a60:	e8 63 f5 ff ff       	callq  2fc8 <_init@@Base+0x158>
    3a65:	48 8b 3c 24          	mov    (%rsp),%rdi
    3a69:	48 83 c5 10          	add    $0x10,%rbp
    3a6d:	48 39 ef             	cmp    %rbp,%rdi
    3a70:	74 05                	je     3a77 <_Z17check_credentialsRN3Php10ParametersE@@Base+0x1d7>
    3a72:	e8 51 f5 ff ff       	callq  2fc8 <_init@@Base+0x158>
    3a77:	48 89 df             	mov    %rbx,%rdi
    3a7a:	e8 09 f6 ff ff       	callq  3088 <_init@@Base+0x218>
    3a7f:	48 8b 84 24 90 00 00 	mov    0x90(%rsp),%rax
    3a86:	00 
    3a87:	48 8b 94 24 98 00 00 	mov    0x98(%rsp),%rdx
    3a8e:	00 
    3a8f:	49 89 45 18          	mov    %rax,0x18(%r13)
    3a93:	49 89 55 20          	mov    %rdx,0x20(%r13)
    3a97:	eb 94                	jmp    3a2d <_Z17check_credentialsRN3Php10ParametersE@@Base+0x18d>
    3a99:	48 89 c3             	mov    %rax,%rbx
    3a9c:	eb c7                	jmp    3a65 <_Z17check_credentialsRN3Php10ParametersE@@Base+0x1c5>
    3a9e:	4c 89 ef             	mov    %r13,%rdi
    3aa1:	48 89 c3             	mov    %rax,%rbx
    3aa4:	e8 c7 f4 ff ff       	callq  2f70 <_init@@Base+0x100>
    3aa9:	eb a7                	jmp    3a52 <_Z17check_credentialsRN3Php10ParametersE@@Base+0x1b2>
    3aab:	4c 89 ef             	mov    %r13,%rdi
    3aae:	49 89 c4             	mov    %rax,%r12
    3ab1:	e8 ea f3 ff ff       	callq  2ea0 <_init@@Base+0x30>
    3ab6:	48 8b 7c 24 40       	mov    0x40(%rsp),%rdi
    3abb:	48 83 c3 10          	add    $0x10,%rbx
    3abf:	48 39 df             	cmp    %rbx,%rdi
    3ac2:	74 05                	je     3ac9 <_Z17check_credentialsRN3Php10ParametersE@@Base+0x229>
    3ac4:	e8 ff f4 ff ff       	callq  2fc8 <_init@@Base+0x158>
    3ac9:	4c 89 e3             	mov    %r12,%rbx
    3acc:	eb 97                	jmp    3a65 <_Z17check_credentialsRN3Php10ParametersE@@Base+0x1c5>
    3ace:	49 89 c4             	mov    %rax,%r12
    3ad1:	eb e3                	jmp    3ab6 <_Z17check_credentialsRN3Php10ParametersE@@Base+0x216>
    3ad3:	0f 1f 00             	nopl   (%rax)
    3ad6:	66 2e 0f 1f 84 00 00 	nopw   %cs:0x0(%rax,%rax,1)
    3add:	00 00 00 

0000000000003ae0 <_Z11create_userRN3Php10ParametersE@@Base>:
    3ae0:	41 56                	push   %r14
    3ae2:	41 55                	push   %r13
    3ae4:	49 89 fe             	mov    %rdi,%r14
    3ae7:	41 54                	push   %r12
    3ae9:	55                   	push   %rbp
    3aea:	48 89 f5             	mov    %rsi,%rbp
    3aed:	53                   	push   %rbx
    3aee:	48 81 ec f0 00 00 00 	sub    $0xf0,%rsp
    3af5:	48 8b 36             	mov    (%rsi),%rsi
    3af8:	48 89 e7             	mov    %rsp,%rdi
    3afb:	48 8d 5c 24 40       	lea    0x40(%rsp),%rbx
    3b00:	49 89 e4             	mov    %rsp,%r12
    3b03:	64 48 8b 04 25 28 00 	mov    %fs:0x28,%rax
    3b0a:	00 00 
    3b0c:	48 89 84 24 e8 00 00 	mov    %rax,0xe8(%rsp)
    3b13:	00 
    3b14:	31 c0                	xor    %eax,%eax
    3b16:	e8 ed f3 ff ff       	callq  2f08 <_init@@Base+0x98>
    3b1b:	48 8b 75 00          	mov    0x0(%rbp),%rsi
    3b1f:	48 89 df             	mov    %rbx,%rdi
    3b22:	48 83 c6 20          	add    $0x20,%rsi
    3b26:	e8 dd f3 ff ff       	callq  2f08 <_init@@Base+0x98>
    3b2b:	4c 8d 6c 24 60       	lea    0x60(%rsp),%r13
    3b30:	48 89 de             	mov    %rbx,%rsi
    3b33:	4c 89 ef             	mov    %r13,%rdi
    3b36:	e8 ad f4 ff ff       	callq  2fe8 <_init@@Base+0x178>
    3b3b:	48 8d 6c 24 20       	lea    0x20(%rsp),%rbp
    3b40:	4c 89 ee             	mov    %r13,%rsi
    3b43:	48 89 ef             	mov    %rbp,%rdi
    3b46:	e8 bd f3 ff ff       	callq  2f08 <_init@@Base+0x98>
    3b4b:	4c 89 ef             	mov    %r13,%rdi
    3b4e:	48 83 c3 10          	add    $0x10,%rbx
    3b52:	e8 49 f3 ff ff       	callq  2ea0 <_init@@Base+0x30>
    3b57:	48 8b 7c 24 40       	mov    0x40(%rsp),%rdi
    3b5c:	48 39 df             	cmp    %rbx,%rdi
    3b5f:	74 05                	je     3b66 <_Z11create_userRN3Php10ParametersE@@Base+0x86>
    3b61:	e8 62 f4 ff ff       	callq  2fc8 <_init@@Base+0x158>
    3b66:	48 8b 74 24 20       	mov    0x20(%rsp),%rsi
    3b6b:	48 8b 3c 24          	mov    (%rsp),%rdi
    3b6f:	e8 3c f5 ff ff       	callq  30b0 <_init@@Base+0x240>
    3b74:	83 f8 fd             	cmp    $0xfffffffd,%eax
    3b77:	74 6a                	je     3be3 <_Z11create_userRN3Php10ParametersE@@Base+0x103>
    3b79:	83 f8 ff             	cmp    $0xffffffff,%eax
    3b7c:	0f 84 9a 01 00 00    	je     3d1c <_Z11create_userRN3Php10ParametersE@@Base+0x23c>
    3b82:	85 c0                	test   %eax,%eax
    3b84:	0f 8e 10 01 00 00    	jle    3c9a <_Z11create_userRN3Php10ParametersE@@Base+0x1ba>
    3b8a:	89 c6                	mov    %eax,%esi
    3b8c:	4c 89 f7             	mov    %r14,%rdi
    3b8f:	e8 bc f3 ff ff       	callq  2f50 <_init@@Base+0xe0>
    3b94:	48 8b 7c 24 20       	mov    0x20(%rsp),%rdi
    3b99:	48 83 c5 10          	add    $0x10,%rbp
    3b9d:	48 39 ef             	cmp    %rbp,%rdi
    3ba0:	74 05                	je     3ba7 <_Z11create_userRN3Php10ParametersE@@Base+0xc7>
    3ba2:	e8 21 f4 ff ff       	callq  2fc8 <_init@@Base+0x158>
    3ba7:	48 8b 3c 24          	mov    (%rsp),%rdi
    3bab:	49 83 c4 10          	add    $0x10,%r12
    3baf:	4c 39 e7             	cmp    %r12,%rdi
    3bb2:	74 05                	je     3bb9 <_Z11create_userRN3Php10ParametersE@@Base+0xd9>
    3bb4:	e8 0f f4 ff ff       	callq  2fc8 <_init@@Base+0x158>
    3bb9:	48 8b 8c 24 e8 00 00 	mov    0xe8(%rsp),%rcx
    3bc0:	00 
    3bc1:	64 48 33 0c 25 28 00 	xor    %fs:0x28,%rcx
    3bc8:	00 00 
    3bca:	4c 89 f0             	mov    %r14,%rax
    3bcd:	0f 85 c2 00 00 00    	jne    3c95 <_Z11create_userRN3Php10ParametersE@@Base+0x1b5>
    3bd3:	48 81 c4 f0 00 00 00 	add    $0xf0,%rsp
    3bda:	5b                   	pop    %rbx
    3bdb:	5d                   	pop    %rbp
    3bdc:	41 5c                	pop    %r12
    3bde:	41 5d                	pop    %r13
    3be0:	41 5e                	pop    %r14
    3be2:	c3                   	retq   
    3be3:	bf 28 00 00 00       	mov    $0x28,%edi
    3be8:	48 8d 9c 24 80 00 00 	lea    0x80(%rsp),%rbx
    3bef:	00 
    3bf0:	e8 23 f3 ff ff       	callq  2f18 <_init@@Base+0xa8>
    3bf5:	48 8d 35 f3 16 00 00 	lea    0x16f3(%rip),%rsi        # 52ef <_fini@@Base+0x5b>
    3bfc:	48 89 df             	mov    %rbx,%rdi
    3bff:	49 89 c5             	mov    %rax,%r13
    3c02:	e8 b9 f4 ff ff       	callq  30c0 <_init@@Base+0x250>
    3c07:	48 8b 05 b2 32 20 00 	mov    0x2032b2(%rip),%rax        # 206ec0 <_ZTVN3Php8FunctionE@@Base+0x430>
    3c0e:	48 83 c3 10          	add    $0x10,%rbx
    3c12:	48 83 c0 10          	add    $0x10,%rax
    3c16:	49 89 45 00          	mov    %rax,0x0(%r13)
    3c1a:	49 8d 45 18          	lea    0x18(%r13),%rax
    3c1e:	49 89 45 08          	mov    %rax,0x8(%r13)
    3c22:	48 8b 84 24 80 00 00 	mov    0x80(%rsp),%rax
    3c29:	00 
    3c2a:	48 39 d8             	cmp    %rbx,%rax
    3c2d:	0f 84 67 01 00 00    	je     3d9a <_Z11create_userRN3Php10ParametersE@@Base+0x2ba>
    3c33:	49 89 45 08          	mov    %rax,0x8(%r13)
    3c37:	48 8b 84 24 90 00 00 	mov    0x90(%rsp),%rax
    3c3e:	00 
    3c3f:	49 89 45 18          	mov    %rax,0x18(%r13)
    3c43:	48 8b 84 24 88 00 00 	mov    0x88(%rsp),%rax
    3c4a:	00 
    3c4b:	48 8b 15 8e 32 20 00 	mov    0x20328e(%rip),%rdx        # 206ee0 <_ZTVN3Php8FunctionE@@Base+0x450>
    3c52:	4c 89 ef             	mov    %r13,%rdi
    3c55:	48 8b 35 5c 33 20 00 	mov    0x20335c(%rip),%rsi        # 206fb8 <_ZTVN3Php8FunctionE@@Base+0x528>
    3c5c:	49 89 45 10          	mov    %rax,0x10(%r13)
    3c60:	e8 03 f4 ff ff       	callq  3068 <_init@@Base+0x1f8>
    3c65:	48 89 c3             	mov    %rax,%rbx
    3c68:	48 8b 7c 24 20       	mov    0x20(%rsp),%rdi
    3c6d:	48 83 c5 10          	add    $0x10,%rbp
    3c71:	48 39 ef             	cmp    %rbp,%rdi
    3c74:	74 05                	je     3c7b <_Z11create_userRN3Php10ParametersE@@Base+0x19b>
    3c76:	e8 4d f3 ff ff       	callq  2fc8 <_init@@Base+0x158>
    3c7b:	48 8b 3c 24          	mov    (%rsp),%rdi
    3c7f:	49 83 c4 10          	add    $0x10,%r12
    3c83:	4c 39 e7             	cmp    %r12,%rdi
    3c86:	74 05                	je     3c8d <_Z11create_userRN3Php10ParametersE@@Base+0x1ad>
    3c88:	e8 3b f3 ff ff       	callq  2fc8 <_init@@Base+0x158>
    3c8d:	48 89 df             	mov    %rbx,%rdi
    3c90:	e8 f3 f3 ff ff       	callq  3088 <_init@@Base+0x218>
    3c95:	e8 56 f3 ff ff       	callq  2ff0 <_init@@Base+0x180>
    3c9a:	bf 28 00 00 00       	mov    $0x28,%edi
    3c9f:	48 8d 9c 24 c0 00 00 	lea    0xc0(%rsp),%rbx
    3ca6:	00 
    3ca7:	e8 6c f2 ff ff       	callq  2f18 <_init@@Base+0xa8>
    3cac:	48 8d 35 2d 17 00 00 	lea    0x172d(%rip),%rsi        # 53e0 <_fini@@Base+0x14c>
    3cb3:	48 89 df             	mov    %rbx,%rdi
    3cb6:	49 89 c5             	mov    %rax,%r13
    3cb9:	e8 02 f4 ff ff       	callq  30c0 <_init@@Base+0x250>
    3cbe:	48 8b 05 fb 31 20 00 	mov    0x2031fb(%rip),%rax        # 206ec0 <_ZTVN3Php8FunctionE@@Base+0x430>
    3cc5:	48 83 c3 10          	add    $0x10,%rbx
    3cc9:	48 83 c0 10          	add    $0x10,%rax
    3ccd:	49 89 45 00          	mov    %rax,0x0(%r13)
    3cd1:	49 8d 45 18          	lea    0x18(%r13),%rax
    3cd5:	49 89 45 08          	mov    %rax,0x8(%r13)
    3cd9:	48 8b 84 24 c0 00 00 	mov    0xc0(%rsp),%rax
    3ce0:	00 
    3ce1:	48 39 d8             	cmp    %rbx,%rax
    3ce4:	0f 84 e7 00 00 00    	je     3dd1 <_Z11create_userRN3Php10ParametersE@@Base+0x2f1>
    3cea:	49 89 45 08          	mov    %rax,0x8(%r13)
    3cee:	48 8b 84 24 d0 00 00 	mov    0xd0(%rsp),%rax
    3cf5:	00 
    3cf6:	49 89 45 18          	mov    %rax,0x18(%r13)
    3cfa:	48 8b 84 24 c8 00 00 	mov    0xc8(%rsp),%rax
    3d01:	00 
    3d02:	48 8b 15 d7 31 20 00 	mov    0x2031d7(%rip),%rdx        # 206ee0 <_ZTVN3Php8FunctionE@@Base+0x450>
    3d09:	4c 89 ef             	mov    %r13,%rdi
    3d0c:	48 8b 35 a5 32 20 00 	mov    0x2032a5(%rip),%rsi        # 206fb8 <_ZTVN3Php8FunctionE@@Base+0x528>
    3d13:	49 89 45 10          	mov    %rax,0x10(%r13)
    3d17:	e8 4c f3 ff ff       	callq  3068 <_init@@Base+0x1f8>
    3d1c:	bf 28 00 00 00       	mov    $0x28,%edi
    3d21:	48 8d 9c 24 a0 00 00 	lea    0xa0(%rsp),%rbx
    3d28:	00 
    3d29:	e8 ea f1 ff ff       	callq  2f18 <_init@@Base+0xa8>
    3d2e:	48 8d 35 73 16 00 00 	lea    0x1673(%rip),%rsi        # 53a8 <_fini@@Base+0x114>
    3d35:	48 89 df             	mov    %rbx,%rdi
    3d38:	49 89 c5             	mov    %rax,%r13
    3d3b:	e8 80 f3 ff ff       	callq  30c0 <_init@@Base+0x250>
    3d40:	48 8b 05 79 31 20 00 	mov    0x203179(%rip),%rax        # 206ec0 <_ZTVN3Php8FunctionE@@Base+0x430>
    3d47:	48 83 c3 10          	add    $0x10,%rbx
    3d4b:	48 83 c0 10          	add    $0x10,%rax
    3d4f:	49 89 45 00          	mov    %rax,0x0(%r13)
    3d53:	49 8d 45 18          	lea    0x18(%r13),%rax
    3d57:	49 89 45 08          	mov    %rax,0x8(%r13)
    3d5b:	48 8b 84 24 a0 00 00 	mov    0xa0(%rsp),%rax
    3d62:	00 
    3d63:	48 39 d8             	cmp    %rbx,%rax
    3d66:	74 4f                	je     3db7 <_Z11create_userRN3Php10ParametersE@@Base+0x2d7>
    3d68:	49 89 45 08          	mov    %rax,0x8(%r13)
    3d6c:	48 8b 84 24 b0 00 00 	mov    0xb0(%rsp),%rax
    3d73:	00 
    3d74:	49 89 45 18          	mov    %rax,0x18(%r13)
    3d78:	48 8b 84 24 a8 00 00 	mov    0xa8(%rsp),%rax
    3d7f:	00 
    3d80:	48 8b 15 59 31 20 00 	mov    0x203159(%rip),%rdx        # 206ee0 <_ZTVN3Php8FunctionE@@Base+0x450>
    3d87:	4c 89 ef             	mov    %r13,%rdi
    3d8a:	48 8b 35 27 32 20 00 	mov    0x203227(%rip),%rsi        # 206fb8 <_ZTVN3Php8FunctionE@@Base+0x528>
    3d91:	49 89 45 10          	mov    %rax,0x10(%r13)
    3d95:	e8 ce f2 ff ff       	callq  3068 <_init@@Base+0x1f8>
    3d9a:	48 8b 84 24 90 00 00 	mov    0x90(%rsp),%rax
    3da1:	00 
    3da2:	48 8b 94 24 98 00 00 	mov    0x98(%rsp),%rdx
    3da9:	00 
    3daa:	49 89 45 18          	mov    %rax,0x18(%r13)
    3dae:	49 89 55 20          	mov    %rdx,0x20(%r13)
    3db2:	e9 8c fe ff ff       	jmpq   3c43 <_Z11create_userRN3Php10ParametersE@@Base+0x163>
    3db7:	48 8b 84 24 b0 00 00 	mov    0xb0(%rsp),%rax
    3dbe:	00 
    3dbf:	48 8b 94 24 b8 00 00 	mov    0xb8(%rsp),%rdx
    3dc6:	00 
    3dc7:	49 89 45 18          	mov    %rax,0x18(%r13)
    3dcb:	49 89 55 20          	mov    %rdx,0x20(%r13)
    3dcf:	eb a7                	jmp    3d78 <_Z11create_userRN3Php10ParametersE@@Base+0x298>
    3dd1:	48 8b 84 24 d0 00 00 	mov    0xd0(%rsp),%rax
    3dd8:	00 
    3dd9:	48 8b 94 24 d8 00 00 	mov    0xd8(%rsp),%rdx
    3de0:	00 
    3de1:	49 89 45 18          	mov    %rax,0x18(%r13)
    3de5:	49 89 55 20          	mov    %rdx,0x20(%r13)
    3de9:	e9 0c ff ff ff       	jmpq   3cfa <_Z11create_userRN3Php10ParametersE@@Base+0x21a>
    3dee:	4c 89 ef             	mov    %r13,%rdi
    3df1:	48 89 c3             	mov    %rax,%rbx
    3df4:	e8 77 f1 ff ff       	callq  2f70 <_init@@Base+0x100>
    3df9:	e9 6a fe ff ff       	jmpq   3c68 <_Z11create_userRN3Php10ParametersE@@Base+0x188>
    3dfe:	4c 89 ef             	mov    %r13,%rdi
    3e01:	48 89 c5             	mov    %rax,%rbp
    3e04:	e8 97 f0 ff ff       	callq  2ea0 <_init@@Base+0x30>
    3e09:	48 8b 7c 24 40       	mov    0x40(%rsp),%rdi
    3e0e:	48 83 c3 10          	add    $0x10,%rbx
    3e12:	48 39 df             	cmp    %rbx,%rdi
    3e15:	74 05                	je     3e1c <_Z11create_userRN3Php10ParametersE@@Base+0x33c>
    3e17:	e8 ac f1 ff ff       	callq  2fc8 <_init@@Base+0x158>
    3e1c:	48 89 eb             	mov    %rbp,%rbx
    3e1f:	e9 57 fe ff ff       	jmpq   3c7b <_Z11create_userRN3Php10ParametersE@@Base+0x19b>
    3e24:	eb c8                	jmp    3dee <_Z11create_userRN3Php10ParametersE@@Base+0x30e>
    3e26:	eb c6                	jmp    3dee <_Z11create_userRN3Php10ParametersE@@Base+0x30e>
    3e28:	48 89 c3             	mov    %rax,%rbx
    3e2b:	e9 4b fe ff ff       	jmpq   3c7b <_Z11create_userRN3Php10ParametersE@@Base+0x19b>
    3e30:	48 89 c5             	mov    %rax,%rbp
    3e33:	eb d4                	jmp    3e09 <_Z11create_userRN3Php10ParametersE@@Base+0x329>
    3e35:	90                   	nop
    3e36:	66 2e 0f 1f 84 00 00 	nopw   %cs:0x0(%rax,%rax,1)
    3e3d:	00 00 00 

0000000000003e40 <get_module@@Base>:
    3e40:	41 55                	push   %r13
    3e42:	41 54                	push   %r12
    3e44:	55                   	push   %rbp
    3e45:	53                   	push   %rbx
    3e46:	48 81 ec 98 00 00 00 	sub    $0x98,%rsp
    3e4d:	80 3d 9c 32 20 00 00 	cmpb   $0x0,0x20329c(%rip)        # 2070f0 <_edata@@Base+0xc8>
    3e54:	75 14                	jne    3e6a <get_module@@Base+0x2a>
    3e56:	48 8d 3d 93 32 20 00 	lea    0x203293(%rip),%rdi        # 2070f0 <_edata@@Base+0xc8>
    3e5d:	e8 3e f2 ff ff       	callq  30a0 <_init@@Base+0x230>
    3e62:	85 c0                	test   %eax,%eax
    3e64:	0f 85 c6 01 00 00    	jne    4030 <get_module@@Base+0x1f0>
    3e6a:	4c 8b 2d ff 2f 20 00 	mov    0x202fff(%rip),%r13        # 206e70 <_ZTVN3Php8FunctionE@@Base+0x3e0>
    3e71:	48 8d 15 9e 14 00 00 	lea    0x149e(%rip),%rdx        # 5316 <_fini@@Base+0x82>
    3e78:	48 8d 0d 8e 14 00 00 	lea    0x148e(%rip),%rcx        # 530d <_fini@@Base+0x79>
    3e7f:	48 8d 6c 24 10       	lea    0x10(%rsp),%rbp
    3e84:	48 8d 35 a2 14 00 00 	lea    0x14a2(%rip),%rsi        # 532d <_fini@@Base+0x99>
    3e8b:	48 8d 3d ce 31 20 00 	lea    0x2031ce(%rip),%rdi        # 207060 <_edata@@Base+0x38>
    3e92:	48 89 54 24 40       	mov    %rdx,0x40(%rsp)
    3e97:	48 8b 15 52 30 20 00 	mov    0x203052(%rip),%rdx        # 206ef0 <_ZTVN3Php8FunctionE@@Base+0x460>
    3e9e:	49 89 e4             	mov    %rsp,%r12
    3ea1:	49 8d 45 10          	lea    0x10(%r13),%rax
    3ea5:	48 89 4c 24 18       	mov    %rcx,0x18(%rsp)
    3eaa:	48 89 e1             	mov    %rsp,%rcx
    3ead:	c6 44 24 20 06       	movb   $0x6,0x20(%rsp)
    3eb2:	48 c7 44 24 28 00 00 	movq   $0x0,0x28(%rsp)
    3eb9:	00 00 
    3ebb:	48 89 44 24 10       	mov    %rax,0x10(%rsp)
    3ec0:	48 89 44 24 38       	mov    %rax,0x38(%rsp)
    3ec5:	48 89 44 24 60       	mov    %rax,0x60(%rsp)
    3eca:	48 8d 05 4e 14 00 00 	lea    0x144e(%rip),%rax        # 531f <_fini@@Base+0x8b>
    3ed1:	c6 44 24 30 00       	movb   $0x0,0x30(%rsp)
    3ed6:	c6 44 24 31 01       	movb   $0x1,0x31(%rsp)
    3edb:	c6 44 24 32 00       	movb   $0x0,0x32(%rsp)
    3ee0:	c6 44 24 48 06       	movb   $0x6,0x48(%rsp)
    3ee5:	48 c7 44 24 50 00 00 	movq   $0x0,0x50(%rsp)
    3eec:	00 00 
    3eee:	c6 44 24 58 00       	movb   $0x0,0x58(%rsp)
    3ef3:	c6 44 24 59 01       	movb   $0x1,0x59(%rsp)
    3ef8:	c6 44 24 5a 00       	movb   $0x0,0x5a(%rsp)
    3efd:	48 89 44 24 68       	mov    %rax,0x68(%rsp)
    3f02:	c6 44 24 70 0e       	movb   $0xe,0x70(%rsp)
    3f07:	48 c7 44 24 78 00 00 	movq   $0x0,0x78(%rsp)
    3f0e:	00 00 
    3f10:	c6 84 24 80 00 00 00 	movb   $0x0,0x80(%rsp)
    3f17:	00 
    3f18:	c6 84 24 81 00 00 00 	movb   $0x1,0x81(%rsp)
    3f1f:	01 
    3f20:	c6 84 24 82 00 00 00 	movb   $0x0,0x82(%rsp)
    3f27:	00 
    3f28:	48 89 2c 24          	mov    %rbp,(%rsp)
    3f2c:	48 c7 44 24 08 03 00 	movq   $0x3,0x8(%rsp)
    3f33:	00 00 
    3f35:	e8 0e f0 ff ff       	callq  2f48 <_init@@Base+0xd8>
    3f3a:	48 8d 5d 78          	lea    0x78(%rbp),%rbx
    3f3e:	48 83 eb 28          	sub    $0x28,%rbx
    3f42:	48 8b 03             	mov    (%rbx),%rax
    3f45:	48 89 df             	mov    %rbx,%rdi
    3f48:	ff 10                	callq  *(%rax)
    3f4a:	48 39 eb             	cmp    %rbp,%rbx
    3f4d:	75 ef                	jne    3f3e <get_module@@Base+0xfe>
    3f4f:	49 8d 45 10          	lea    0x10(%r13),%rax
    3f53:	48 8d 35 b3 13 00 00 	lea    0x13b3(%rip),%rsi        # 530d <_fini@@Base+0x79>
    3f5a:	48 8b 15 6f 2f 20 00 	mov    0x202f6f(%rip),%rdx        # 206ed0 <_ZTVN3Php8FunctionE@@Base+0x440>
    3f61:	48 8d 3d f8 30 20 00 	lea    0x2030f8(%rip),%rdi        # 207060 <_edata@@Base+0x38>
    3f68:	4c 89 e1             	mov    %r12,%rcx
    3f6b:	c6 44 24 20 06       	movb   $0x6,0x20(%rsp)
    3f70:	48 89 44 24 10       	mov    %rax,0x10(%rsp)
    3f75:	48 89 74 24 18       	mov    %rsi,0x18(%rsp)
    3f7a:	48 8d 35 be 13 00 00 	lea    0x13be(%rip),%rsi        # 533f <_fini@@Base+0xab>
    3f81:	48 89 44 24 38       	mov    %rax,0x38(%rsp)
    3f86:	48 8d 05 89 13 00 00 	lea    0x1389(%rip),%rax        # 5316 <_fini@@Base+0x82>
    3f8d:	48 c7 44 24 28 00 00 	movq   $0x0,0x28(%rsp)
    3f94:	00 00 
    3f96:	c6 44 24 30 00       	movb   $0x0,0x30(%rsp)
    3f9b:	c6 44 24 31 01       	movb   $0x1,0x31(%rsp)
    3fa0:	c6 44 24 32 00       	movb   $0x0,0x32(%rsp)
    3fa5:	48 89 44 24 40       	mov    %rax,0x40(%rsp)
    3faa:	c6 44 24 48 06       	movb   $0x6,0x48(%rsp)
    3faf:	48 c7 44 24 50 00 00 	movq   $0x0,0x50(%rsp)
    3fb6:	00 00 
    3fb8:	c6 44 24 58 00       	movb   $0x0,0x58(%rsp)
    3fbd:	c6 44 24 59 01       	movb   $0x1,0x59(%rsp)
    3fc2:	c6 44 24 5a 00       	movb   $0x0,0x5a(%rsp)
    3fc7:	48 89 2c 24          	mov    %rbp,(%rsp)
    3fcb:	48 c7 44 24 08 02 00 	movq   $0x2,0x8(%rsp)
    3fd2:	00 00 
    3fd4:	e8 6f ef ff ff       	callq  2f48 <_init@@Base+0xd8>
    3fd9:	48 8b 44 24 38       	mov    0x38(%rsp),%rax
    3fde:	48 8d 7d 28          	lea    0x28(%rbp),%rdi
    3fe2:	ff 10                	callq  *(%rax)
    3fe4:	48 8b 15 75 2f 20 00 	mov    0x202f75(%rip),%rdx        # 206f60 <_ZTVN3Php8FunctionE@@Base+0x4d0>
    3feb:	48 8d 35 59 13 00 00 	lea    0x1359(%rip),%rsi        # 534b <_fini@@Base+0xb7>
    3ff2:	48 8d 3d 67 30 20 00 	lea    0x203067(%rip),%rdi        # 207060 <_edata@@Base+0x38>
    3ff9:	48 89 e9             	mov    %rbp,%rcx
    3ffc:	4c 89 64 24 10       	mov    %r12,0x10(%rsp)
    4001:	48 c7 44 24 18 00 00 	movq   $0x0,0x18(%rsp)
    4008:	00 00 
    400a:	e8 39 ef ff ff       	callq  2f48 <_init@@Base+0xd8>
    400f:	48 8d 3d 4a 30 20 00 	lea    0x20304a(%rip),%rdi        # 207060 <_edata@@Base+0x38>
    4016:	e8 a5 ef ff ff       	callq  2fc0 <_init@@Base+0x150>
    401b:	48 81 c4 98 00 00 00 	add    $0x98,%rsp
    4022:	5b                   	pop    %rbx
    4023:	5d                   	pop    %rbp
    4024:	41 5c                	pop    %r12
    4026:	41 5d                	pop    %r13
    4028:	c3                   	retq   
    4029:	0f 1f 80 00 00 00 00 	nopl   0x0(%rax)
    4030:	48 8d 15 cd 12 00 00 	lea    0x12cd(%rip),%rdx        # 5304 <_fini@@Base+0x70>
    4037:	48 8d 35 ca 12 00 00 	lea    0x12ca(%rip),%rsi        # 5308 <_fini@@Base+0x74>
    403e:	48 8d 3d 1b 30 20 00 	lea    0x20301b(%rip),%rdi        # 207060 <_edata@@Base+0x38>
    4045:	b9 6e 77 33 01       	mov    $0x133776e,%ecx
    404a:	e8 f9 ef ff ff       	callq  3048 <_init@@Base+0x1d8>
    404f:	48 8d 3d 9a 30 20 00 	lea    0x20309a(%rip),%rdi        # 2070f0 <_edata@@Base+0xc8>
    4056:	e8 05 ef ff ff       	callq  2f60 <_init@@Base+0xf0>
    405b:	48 8b 3d 1e 2e 20 00 	mov    0x202e1e(%rip),%rdi        # 206e80 <_ZTVN3Php8FunctionE@@Base+0x3f0>
    4062:	48 8d 15 97 2f 20 00 	lea    0x202f97(%rip),%rdx        # 207000 <_ZTVN3Php8FunctionE@@Base+0x570>
    4069:	48 8d 35 f0 2f 20 00 	lea    0x202ff0(%rip),%rsi        # 207060 <_edata@@Base+0x38>
    4070:	e8 33 ef ff ff       	callq  2fa8 <_init@@Base+0x138>
    4075:	e9 f0 fd ff ff       	jmpq   3e6a <get_module@@Base+0x2a>
    407a:	48 8d 3d 6f 30 20 00 	lea    0x20306f(%rip),%rdi        # 2070f0 <_edata@@Base+0xc8>
    4081:	48 89 c3             	mov    %rax,%rbx
    4084:	e8 cf ee ff ff       	callq  2f58 <_init@@Base+0xe8>
    4089:	48 89 df             	mov    %rbx,%rdi
    408c:	e8 f7 ef ff ff       	callq  3088 <_init@@Base+0x218>
    4091:	48 89 c3             	mov    %rax,%rbx
    4094:	48 8b 44 24 38       	mov    0x38(%rsp),%rax
    4099:	48 8d 7d 28          	lea    0x28(%rbp),%rdi
    409d:	ff 10                	callq  *(%rax)
    409f:	48 89 df             	mov    %rbx,%rdi
    40a2:	e8 e1 ef ff ff       	callq  3088 <_init@@Base+0x218>
    40a7:	48 8d 5d 78          	lea    0x78(%rbp),%rbx
    40ab:	49 89 c4             	mov    %rax,%r12
    40ae:	48 83 eb 28          	sub    $0x28,%rbx
    40b2:	48 8b 03             	mov    (%rbx),%rax
    40b5:	48 89 df             	mov    %rbx,%rdi
    40b8:	ff 10                	callq  *(%rax)
    40ba:	48 39 eb             	cmp    %rbp,%rbx
    40bd:	75 ef                	jne    40ae <get_module@@Base+0x26e>
    40bf:	4c 89 e7             	mov    %r12,%rdi
    40c2:	e8 c1 ef ff ff       	callq  3088 <_init@@Base+0x218>
    40c7:	66 0f 1f 84 00 00 00 	nopw   0x0(%rax,%rax,1)
    40ce:	00 00 

00000000000040d0 <_ZNK3Php9Exception4whatEv@@Base>:
    40d0:	48 8b 47 08          	mov    0x8(%rdi),%rax
    40d4:	c3                   	retq   
    40d5:	66 2e 0f 1f 84 00 00 	nopw   %cs:0x0(%rax,%rax,1)
    40dc:	00 00 00 
    40df:	90                   	nop

00000000000040e0 <_ZNK3Php9Exception4codeEv@@Base>:
    40e0:	48 c7 c0 ff ff ff ff 	mov    $0xffffffffffffffff,%rax
    40e7:	c3                   	retq   
    40e8:	0f 1f 84 00 00 00 00 	nopl   0x0(%rax,%rax,1)
    40ef:	00 

00000000000040f0 <_ZNK3Php9Exception4lineEv@@Base>:
    40f0:	48 c7 c0 ff ff ff ff 	mov    $0xffffffffffffffff,%rax
    40f7:	c3                   	retq   
    40f8:	0f 1f 84 00 00 00 00 	nopl   0x0(%rax,%rax,1)
    40ff:	00 

0000000000004100 <_ZNK3Php9Exception6nativeEv@@Base>:
    4100:	b8 01 00 00 00       	mov    $0x1,%eax
    4105:	c3                   	retq   
    4106:	66 2e 0f 1f 84 00 00 	nopw   %cs:0x0(%rax,%rax,1)
    410d:	00 00 00 

0000000000004110 <_ZNK3Php9Exception6reportEv@@Base>:
    4110:	31 c0                	xor    %eax,%eax
    4112:	c3                   	retq   
    4113:	66 2e 0f 1f 84 00 00 	nopw   %cs:0x0(%rax,%rax,1)
    411a:	00 00 00 
    411d:	0f 1f 00             	nopl   (%rax)

0000000000004120 <_ZN3Php5Value3setERKNSt7__cxx1112basic_stringIcSt11char_traitsIcESaIcEEERKS0_@@Base>:
    4120:	48 8b 07             	mov    (%rdi),%rax
    4123:	48 89 d1             	mov    %rdx,%rcx
    4126:	8b 56 08             	mov    0x8(%rsi),%edx
    4129:	48 8b 36             	mov    (%rsi),%rsi
    412c:	48 8b 40 78          	mov    0x78(%rax),%rax
    4130:	ff e0                	jmpq   *%rax
    4132:	66 2e 0f 1f 84 00 00 	nopw   %cs:0x0(%rax,%rax,1)
    4139:	00 00 00 
    413c:	0f 1f 40 00          	nopl   0x0(%rax)

0000000000004140 <_ZN3Php8ArgumentD1Ev@@Base>:
    4140:	f3 c3                	repz retq 
    4142:	66 2e 0f 1f 84 00 00 	nopw   %cs:0x0(%rax,%rax,1)
    4149:	00 00 00 
    414c:	0f 1f 40 00          	nopl   0x0(%rax)

0000000000004150 <_ZN3Php8ArgumentD0Ev@@Base>:
    4150:	e9 73 ee ff ff       	jmpq   2fc8 <_init@@Base+0x158>
    4155:	66 2e 0f 1f 84 00 00 	nopw   %cs:0x0(%rax,%rax,1)
    415c:	00 00 00 
    415f:	90                   	nop

0000000000004160 <_ZN3Php8FunctionD1Ev@@Base>:
    4160:	48 8b 05 c1 2d 20 00 	mov    0x202dc1(%rip),%rax        # 206f28 <_ZTVN3Php8FunctionE@@Base+0x498>
    4167:	48 83 c0 10          	add    $0x10,%rax
    416b:	48 89 07             	mov    %rax,(%rdi)
    416e:	e9 0d ef ff ff       	jmpq   3080 <_init@@Base+0x210>
    4173:	66 2e 0f 1f 84 00 00 	nopw   %cs:0x0(%rax,%rax,1)
    417a:	00 00 00 
    417d:	0f 1f 00             	nopl   (%rax)

0000000000004180 <_ZN3Php8FunctionD0Ev@@Base>:
    4180:	48 8b 05 a1 2d 20 00 	mov    0x202da1(%rip),%rax        # 206f28 <_ZTVN3Php8FunctionE@@Base+0x498>
    4187:	53                   	push   %rbx
    4188:	48 89 fb             	mov    %rdi,%rbx
    418b:	48 83 c0 10          	add    $0x10,%rax
    418f:	48 89 07             	mov    %rax,(%rdi)
    4192:	e8 e9 ee ff ff       	callq  3080 <_init@@Base+0x210>
    4197:	48 89 df             	mov    %rbx,%rdi
    419a:	5b                   	pop    %rbx
    419b:	e9 28 ee ff ff       	jmpq   2fc8 <_init@@Base+0x158>

00000000000041a0 <_ZN3Php5Value5unsetERKNSt7__cxx1112basic_stringIcSt11char_traitsIcESaIcEEE@@Base>:
    41a0:	8b 56 08             	mov    0x8(%rsi),%edx
    41a3:	48 8b 36             	mov    (%rsi),%rsi
    41a6:	e9 65 ee ff ff       	jmpq   3010 <_init@@Base+0x1a0>
    41ab:	0f 1f 44 00 00       	nopl   0x0(%rax,%rax,1)

00000000000041b0 <_ZNK3Php5Value3getERKNSt7__cxx1112basic_stringIcSt11char_traitsIcESaIcEEE@@Base>:
    41b0:	53                   	push   %rbx
    41b1:	8b 4a 08             	mov    0x8(%rdx),%ecx
    41b4:	48 89 fb             	mov    %rdi,%rbx
    41b7:	48 8b 12             	mov    (%rdx),%rdx
    41ba:	e8 c1 ed ff ff       	callq  2f80 <_init@@Base+0x110>
    41bf:	48 89 d8             	mov    %rbx,%rax
    41c2:	5b                   	pop    %rbx
    41c3:	c3                   	retq   
    41c4:	66 2e 0f 1f 84 00 00 	nopw   %cs:0x0(%rax,%rax,1)
    41cb:	00 00 00 
    41ce:	66 90                	xchg   %ax,%ax

00000000000041d0 <_ZNK3Php5Value8containsERKNSt7__cxx1112basic_stringIcSt11char_traitsIcESaIcEEE@@Base>:
    41d0:	8b 56 08             	mov    0x8(%rsi),%edx
    41d3:	48 8b 36             	mov    (%rsi),%rsi
    41d6:	e9 5d ed ff ff       	jmpq   2f38 <_init@@Base+0xc8>
    41db:	0f 1f 44 00 00       	nopl   0x0(%rax,%rax,1)

00000000000041e0 <_ZN3Php9ExceptionD1Ev@@Base>:
    41e0:	48 8b 05 d9 2c 20 00 	mov    0x202cd9(%rip),%rax        # 206ec0 <_ZTVN3Php8FunctionE@@Base+0x430>
    41e7:	53                   	push   %rbx
    41e8:	48 89 fb             	mov    %rdi,%rbx
    41eb:	48 83 c0 10          	add    $0x10,%rax
    41ef:	48 89 07             	mov    %rax,(%rdi)
    41f2:	48 8b 7f 08          	mov    0x8(%rdi),%rdi
    41f6:	48 8d 43 18          	lea    0x18(%rbx),%rax
    41fa:	48 39 c7             	cmp    %rax,%rdi
    41fd:	74 05                	je     4204 <_ZN3Php9ExceptionD1Ev@@Base+0x24>
    41ff:	e8 c4 ed ff ff       	callq  2fc8 <_init@@Base+0x158>
    4204:	48 89 df             	mov    %rbx,%rdi
    4207:	5b                   	pop    %rbx
    4208:	e9 9b ee ff ff       	jmpq   30a8 <_init@@Base+0x238>
    420d:	0f 1f 00             	nopl   (%rax)

0000000000004210 <_ZNK3Php5Value8containsERKS0_@@Base>:
    4210:	41 55                	push   %r13
    4212:	41 54                	push   %r12
    4214:	55                   	push   %rbp
    4215:	53                   	push   %rbx
    4216:	48 89 fd             	mov    %rdi,%rbp
    4219:	48 89 f7             	mov    %rsi,%rdi
    421c:	48 89 f3             	mov    %rsi,%rbx
    421f:	48 83 ec 48          	sub    $0x48,%rsp
    4223:	64 48 8b 04 25 28 00 	mov    %fs:0x28,%rax
    422a:	00 00 
    422c:	48 89 44 24 38       	mov    %rax,0x38(%rsp)
    4231:	31 c0                	xor    %eax,%eax
    4233:	e8 58 ed ff ff       	callq  2f90 <_init@@Base+0x120>
    4238:	84 c0                	test   %al,%al
    423a:	0f 85 a8 00 00 00    	jne    42e8 <_ZNK3Php5Value8containsERKS0_@@Base+0xd8>
    4240:	48 89 df             	mov    %rbx,%rdi
    4243:	e8 70 ed ff ff       	callq  2fb8 <_init@@Base+0x148>
    4248:	84 c0                	test   %al,%al
    424a:	75 74                	jne    42c0 <_ZNK3Php5Value8containsERKS0_@@Base+0xb0>
    424c:	48 8b 45 00          	mov    0x0(%rbp),%rax
    4250:	4c 8d 64 24 10       	lea    0x10(%rsp),%r12
    4255:	48 89 de             	mov    %rbx,%rsi
    4258:	4c 89 e7             	mov    %r12,%rdi
    425b:	4c 8b 68 10          	mov    0x10(%rax),%r13
    425f:	e8 a4 ec ff ff       	callq  2f08 <_init@@Base+0x98>
    4264:	4c 3b 2d cd 2b 20 00 	cmp    0x202bcd(%rip),%r13        # 206e38 <_ZTVN3Php8FunctionE@@Base+0x3a8>
    426b:	0f 85 97 00 00 00    	jne    4308 <_ZNK3Php5Value8containsERKS0_@@Base+0xf8>
    4271:	8b 54 24 18          	mov    0x18(%rsp),%edx
    4275:	48 8b 74 24 10       	mov    0x10(%rsp),%rsi
    427a:	48 89 ef             	mov    %rbp,%rdi
    427d:	e8 b6 ec ff ff       	callq  2f38 <_init@@Base+0xc8>
    4282:	48 8b 7c 24 10       	mov    0x10(%rsp),%rdi
    4287:	49 83 c4 10          	add    $0x10,%r12
    428b:	4c 39 e7             	cmp    %r12,%rdi
    428e:	74 0e                	je     429e <_ZNK3Php5Value8containsERKS0_@@Base+0x8e>
    4290:	88 44 24 0f          	mov    %al,0xf(%rsp)
    4294:	e8 2f ed ff ff       	callq  2fc8 <_init@@Base+0x158>
    4299:	0f b6 44 24 0f       	movzbl 0xf(%rsp),%eax
    429e:	48 8b 4c 24 38       	mov    0x38(%rsp),%rcx
    42a3:	64 48 33 0c 25 28 00 	xor    %fs:0x28,%rcx
    42aa:	00 00 
    42ac:	75 68                	jne    4316 <_ZNK3Php5Value8containsERKS0_@@Base+0x106>
    42ae:	48 83 c4 48          	add    $0x48,%rsp
    42b2:	5b                   	pop    %rbx
    42b3:	5d                   	pop    %rbp
    42b4:	41 5c                	pop    %r12
    42b6:	41 5d                	pop    %r13
    42b8:	c3                   	retq   
    42b9:	0f 1f 80 00 00 00 00 	nopl   0x0(%rax)
    42c0:	48 89 df             	mov    %rbx,%rdi
    42c3:	e8 10 ec ff ff       	callq  2ed8 <_init@@Base+0x68>
    42c8:	48 89 df             	mov    %rbx,%rdi
    42cb:	41 89 c4             	mov    %eax,%r12d
    42ce:	e8 0d ed ff ff       	callq  2fe0 <_init@@Base+0x170>
    42d3:	44 89 e2             	mov    %r12d,%edx
    42d6:	48 89 c6             	mov    %rax,%rsi
    42d9:	48 89 ef             	mov    %rbp,%rdi
    42dc:	e8 57 ec ff ff       	callq  2f38 <_init@@Base+0xc8>
    42e1:	eb bb                	jmp    429e <_ZNK3Php5Value8containsERKS0_@@Base+0x8e>
    42e3:	0f 1f 44 00 00       	nopl   0x0(%rax,%rax,1)
    42e8:	48 8b 45 00          	mov    0x0(%rbp),%rax
    42ec:	48 89 df             	mov    %rbx,%rdi
    42ef:	4c 8b 60 18          	mov    0x18(%rax),%r12
    42f3:	e8 b0 eb ff ff       	callq  2ea8 <_init@@Base+0x38>
    42f8:	48 89 ef             	mov    %rbp,%rdi
    42fb:	89 c6                	mov    %eax,%esi
    42fd:	41 ff d4             	callq  *%r12
    4300:	eb 9c                	jmp    429e <_ZNK3Php5Value8containsERKS0_@@Base+0x8e>
    4302:	66 0f 1f 44 00 00    	nopw   0x0(%rax,%rax,1)
    4308:	4c 89 e6             	mov    %r12,%rsi
    430b:	48 89 ef             	mov    %rbp,%rdi
    430e:	41 ff d5             	callq  *%r13
    4311:	e9 6c ff ff ff       	jmpq   4282 <_ZNK3Php5Value8containsERKS0_@@Base+0x72>
    4316:	e8 d5 ec ff ff       	callq  2ff0 <_init@@Base+0x180>
    431b:	48 89 c3             	mov    %rax,%rbx
    431e:	48 8b 7c 24 10       	mov    0x10(%rsp),%rdi
    4323:	49 83 c4 10          	add    $0x10,%r12
    4327:	4c 39 e7             	cmp    %r12,%rdi
    432a:	74 05                	je     4331 <_ZNK3Php5Value8containsERKS0_@@Base+0x121>
    432c:	e8 97 ec ff ff       	callq  2fc8 <_init@@Base+0x158>
    4331:	48 89 df             	mov    %rbx,%rdi
    4334:	e8 4f ed ff ff       	callq  3088 <_init@@Base+0x218>
    4339:	0f 1f 80 00 00 00 00 	nopl   0x0(%rax)

0000000000004340 <_ZN3Php5Value5unsetERKS0_@@Base>:
    4340:	41 55                	push   %r13
    4342:	41 54                	push   %r12
    4344:	55                   	push   %rbp
    4345:	53                   	push   %rbx
    4346:	48 89 fd             	mov    %rdi,%rbp
    4349:	48 89 f7             	mov    %rsi,%rdi
    434c:	48 89 f3             	mov    %rsi,%rbx
    434f:	48 83 ec 38          	sub    $0x38,%rsp
    4353:	64 48 8b 04 25 28 00 	mov    %fs:0x28,%rax
    435a:	00 00 
    435c:	48 89 44 24 28       	mov    %rax,0x28(%rsp)
    4361:	31 c0                	xor    %eax,%eax
    4363:	e8 28 ec ff ff       	callq  2f90 <_init@@Base+0x120>
    4368:	84 c0                	test   %al,%al
    436a:	0f 85 98 00 00 00    	jne    4408 <_ZN3Php5Value5unsetERKS0_@@Base+0xc8>
    4370:	48 89 df             	mov    %rbx,%rdi
    4373:	e8 40 ec ff ff       	callq  2fb8 <_init@@Base+0x148>
    4378:	84 c0                	test   %al,%al
    437a:	75 64                	jne    43e0 <_ZN3Php5Value5unsetERKS0_@@Base+0xa0>
    437c:	48 8b 45 00          	mov    0x0(%rbp),%rax
    4380:	48 89 de             	mov    %rbx,%rsi
    4383:	48 89 e7             	mov    %rsp,%rdi
    4386:	49 89 e4             	mov    %rsp,%r12
    4389:	4c 8b 68 60          	mov    0x60(%rax),%r13
    438d:	e8 76 eb ff ff       	callq  2f08 <_init@@Base+0x98>
    4392:	4c 3b 2d 4f 2b 20 00 	cmp    0x202b4f(%rip),%r13        # 206ee8 <_ZTVN3Php8FunctionE@@Base+0x458>
    4399:	0f 85 89 00 00 00    	jne    4428 <_ZN3Php5Value5unsetERKS0_@@Base+0xe8>
    439f:	8b 54 24 08          	mov    0x8(%rsp),%edx
    43a3:	48 8b 34 24          	mov    (%rsp),%rsi
    43a7:	48 89 ef             	mov    %rbp,%rdi
    43aa:	e8 61 ec ff ff       	callq  3010 <_init@@Base+0x1a0>
    43af:	48 8b 3c 24          	mov    (%rsp),%rdi
    43b3:	49 83 c4 10          	add    $0x10,%r12
    43b7:	4c 39 e7             	cmp    %r12,%rdi
    43ba:	74 05                	je     43c1 <_ZN3Php5Value5unsetERKS0_@@Base+0x81>
    43bc:	e8 07 ec ff ff       	callq  2fc8 <_init@@Base+0x158>
    43c1:	48 8b 44 24 28       	mov    0x28(%rsp),%rax
    43c6:	64 48 33 04 25 28 00 	xor    %fs:0x28,%rax
    43cd:	00 00 
    43cf:	75 65                	jne    4436 <_ZN3Php5Value5unsetERKS0_@@Base+0xf6>
    43d1:	48 83 c4 38          	add    $0x38,%rsp
    43d5:	5b                   	pop    %rbx
    43d6:	5d                   	pop    %rbp
    43d7:	41 5c                	pop    %r12
    43d9:	41 5d                	pop    %r13
    43db:	c3                   	retq   
    43dc:	0f 1f 40 00          	nopl   0x0(%rax)
    43e0:	48 89 df             	mov    %rbx,%rdi
    43e3:	e8 f0 ea ff ff       	callq  2ed8 <_init@@Base+0x68>
    43e8:	48 89 df             	mov    %rbx,%rdi
    43eb:	41 89 c4             	mov    %eax,%r12d
    43ee:	e8 ed eb ff ff       	callq  2fe0 <_init@@Base+0x170>
    43f3:	44 89 e2             	mov    %r12d,%edx
    43f6:	48 89 c6             	mov    %rax,%rsi
    43f9:	48 89 ef             	mov    %rbp,%rdi
    43fc:	e8 0f ec ff ff       	callq  3010 <_init@@Base+0x1a0>
    4401:	eb be                	jmp    43c1 <_ZN3Php5Value5unsetERKS0_@@Base+0x81>
    4403:	0f 1f 44 00 00       	nopl   0x0(%rax,%rax,1)
    4408:	48 8b 45 00          	mov    0x0(%rbp),%rax
    440c:	48 89 df             	mov    %rbx,%rdi
    440f:	4c 8b 60 58          	mov    0x58(%rax),%r12
    4413:	e8 90 ea ff ff       	callq  2ea8 <_init@@Base+0x38>
    4418:	48 89 ef             	mov    %rbp,%rdi
    441b:	89 c6                	mov    %eax,%esi
    441d:	41 ff d4             	callq  *%r12
    4420:	eb 9f                	jmp    43c1 <_ZN3Php5Value5unsetERKS0_@@Base+0x81>
    4422:	66 0f 1f 44 00 00    	nopw   0x0(%rax,%rax,1)
    4428:	48 89 e6             	mov    %rsp,%rsi
    442b:	48 89 ef             	mov    %rbp,%rdi
    442e:	41 ff d5             	callq  *%r13
    4431:	e9 79 ff ff ff       	jmpq   43af <_ZN3Php5Value5unsetERKS0_@@Base+0x6f>
    4436:	e8 b5 eb ff ff       	callq  2ff0 <_init@@Base+0x180>
    443b:	48 89 c3             	mov    %rax,%rbx
    443e:	48 8b 3c 24          	mov    (%rsp),%rdi
    4442:	49 83 c4 10          	add    $0x10,%r12
    4446:	4c 39 e7             	cmp    %r12,%rdi
    4449:	74 05                	je     4450 <_ZN3Php5Value5unsetERKS0_@@Base+0x110>
    444b:	e8 78 eb ff ff       	callq  2fc8 <_init@@Base+0x158>
    4450:	48 89 df             	mov    %rbx,%rdi
    4453:	e8 30 ec ff ff       	callq  3088 <_init@@Base+0x218>
    4458:	0f 1f 84 00 00 00 00 	nopl   0x0(%rax,%rax,1)
    445f:	00 

0000000000004460 <_ZNK3Php5Value3getERKS0_@@Base>:
    4460:	41 56                	push   %r14
    4462:	41 55                	push   %r13
    4464:	41 54                	push   %r12
    4466:	55                   	push   %rbp
    4467:	48 89 fd             	mov    %rdi,%rbp
    446a:	53                   	push   %rbx
    446b:	48 89 d7             	mov    %rdx,%rdi
    446e:	49 89 f4             	mov    %rsi,%r12
    4471:	48 89 d3             	mov    %rdx,%rbx
    4474:	48 83 ec 30          	sub    $0x30,%rsp
    4478:	64 48 8b 04 25 28 00 	mov    %fs:0x28,%rax
    447f:	00 00 
    4481:	48 89 44 24 28       	mov    %rax,0x28(%rsp)
    4486:	31 c0                	xor    %eax,%eax
    4488:	e8 03 eb ff ff       	callq  2f90 <_init@@Base+0x120>
    448d:	84 c0                	test   %al,%al
    448f:	0f 85 ab 00 00 00    	jne    4540 <_ZNK3Php5Value3getERKS0_@@Base+0xe0>
    4495:	48 89 df             	mov    %rbx,%rdi
    4498:	e8 1b eb ff ff       	callq  2fb8 <_init@@Base+0x148>
    449d:	84 c0                	test   %al,%al
    449f:	75 6f                	jne    4510 <_ZNK3Php5Value3getERKS0_@@Base+0xb0>
    44a1:	49 8b 04 24          	mov    (%r12),%rax
    44a5:	48 89 de             	mov    %rbx,%rsi
    44a8:	48 89 e7             	mov    %rsp,%rdi
    44ab:	49 89 e5             	mov    %rsp,%r13
    44ae:	4c 8b 70 28          	mov    0x28(%rax),%r14
    44b2:	e8 51 ea ff ff       	callq  2f08 <_init@@Base+0x98>
    44b7:	4c 3b 35 72 29 20 00 	cmp    0x202972(%rip),%r14        # 206e30 <_ZTVN3Php8FunctionE@@Base+0x3a0>
    44be:	0f 85 9c 00 00 00    	jne    4560 <_ZNK3Php5Value3getERKS0_@@Base+0x100>
    44c4:	8b 4c 24 08          	mov    0x8(%rsp),%ecx
    44c8:	48 8b 14 24          	mov    (%rsp),%rdx
    44cc:	4c 89 e6             	mov    %r12,%rsi
    44cf:	48 89 ef             	mov    %rbp,%rdi
    44d2:	e8 a9 ea ff ff       	callq  2f80 <_init@@Base+0x110>
    44d7:	48 8b 3c 24          	mov    (%rsp),%rdi
    44db:	49 83 c5 10          	add    $0x10,%r13
    44df:	4c 39 ef             	cmp    %r13,%rdi
    44e2:	74 05                	je     44e9 <_ZNK3Php5Value3getERKS0_@@Base+0x89>
    44e4:	e8 df ea ff ff       	callq  2fc8 <_init@@Base+0x158>
    44e9:	48 8b 4c 24 28       	mov    0x28(%rsp),%rcx
    44ee:	64 48 33 0c 25 28 00 	xor    %fs:0x28,%rcx
    44f5:	00 00 
    44f7:	48 89 e8             	mov    %rbp,%rax
    44fa:	75 75                	jne    4571 <_ZNK3Php5Value3getERKS0_@@Base+0x111>
    44fc:	48 83 c4 30          	add    $0x30,%rsp
    4500:	5b                   	pop    %rbx
    4501:	5d                   	pop    %rbp
    4502:	41 5c                	pop    %r12
    4504:	41 5d                	pop    %r13
    4506:	41 5e                	pop    %r14
    4508:	c3                   	retq   
    4509:	0f 1f 80 00 00 00 00 	nopl   0x0(%rax)
    4510:	48 89 df             	mov    %rbx,%rdi
    4513:	e8 c0 e9 ff ff       	callq  2ed8 <_init@@Base+0x68>
    4518:	48 89 df             	mov    %rbx,%rdi
    451b:	41 89 c5             	mov    %eax,%r13d
    451e:	e8 bd ea ff ff       	callq  2fe0 <_init@@Base+0x170>
    4523:	44 89 e9             	mov    %r13d,%ecx
    4526:	48 89 c2             	mov    %rax,%rdx
    4529:	4c 89 e6             	mov    %r12,%rsi
    452c:	48 89 ef             	mov    %rbp,%rdi
    452f:	e8 4c ea ff ff       	callq  2f80 <_init@@Base+0x110>
    4534:	eb b3                	jmp    44e9 <_ZNK3Php5Value3getERKS0_@@Base+0x89>
    4536:	66 2e 0f 1f 84 00 00 	nopw   %cs:0x0(%rax,%rax,1)
    453d:	00 00 00 
    4540:	49 8b 04 24          	mov    (%r12),%rax
    4544:	48 89 df             	mov    %rbx,%rdi
    4547:	4c 8b 68 30          	mov    0x30(%rax),%r13
    454b:	e8 58 e9 ff ff       	callq  2ea8 <_init@@Base+0x38>
    4550:	4c 89 e6             	mov    %r12,%rsi
    4553:	89 c2                	mov    %eax,%edx
    4555:	48 89 ef             	mov    %rbp,%rdi
    4558:	41 ff d5             	callq  *%r13
    455b:	eb 8c                	jmp    44e9 <_ZNK3Php5Value3getERKS0_@@Base+0x89>
    455d:	0f 1f 00             	nopl   (%rax)
    4560:	48 89 e2             	mov    %rsp,%rdx
    4563:	4c 89 e6             	mov    %r12,%rsi
    4566:	48 89 ef             	mov    %rbp,%rdi
    4569:	41 ff d6             	callq  *%r14
    456c:	e9 66 ff ff ff       	jmpq   44d7 <_ZNK3Php5Value3getERKS0_@@Base+0x77>
    4571:	e8 7a ea ff ff       	callq  2ff0 <_init@@Base+0x180>
    4576:	48 89 c3             	mov    %rax,%rbx
    4579:	48 8b 3c 24          	mov    (%rsp),%rdi
    457d:	49 83 c5 10          	add    $0x10,%r13
    4581:	4c 39 ef             	cmp    %r13,%rdi
    4584:	74 05                	je     458b <_ZNK3Php5Value3getERKS0_@@Base+0x12b>
    4586:	e8 3d ea ff ff       	callq  2fc8 <_init@@Base+0x158>
    458b:	48 89 df             	mov    %rbx,%rdi
    458e:	e8 f5 ea ff ff       	callq  3088 <_init@@Base+0x218>
    4593:	66 2e 0f 1f 84 00 00 	nopw   %cs:0x0(%rax,%rax,1)
    459a:	00 00 00 
    459d:	0f 1f 00             	nopl   (%rax)

00000000000045a0 <_ZN3Php9ExceptionD0Ev@@Base>:
    45a0:	48 8b 05 19 29 20 00 	mov    0x202919(%rip),%rax        # 206ec0 <_ZTVN3Php8FunctionE@@Base+0x430>
    45a7:	53                   	push   %rbx
    45a8:	48 89 fb             	mov    %rdi,%rbx
    45ab:	48 83 c0 10          	add    $0x10,%rax
    45af:	48 89 07             	mov    %rax,(%rdi)
    45b2:	48 8b 7f 08          	mov    0x8(%rdi),%rdi
    45b6:	48 8d 43 18          	lea    0x18(%rbx),%rax
    45ba:	48 39 c7             	cmp    %rax,%rdi
    45bd:	74 05                	je     45c4 <_ZN3Php9ExceptionD0Ev@@Base+0x24>
    45bf:	e8 04 ea ff ff       	callq  2fc8 <_init@@Base+0x158>
    45c4:	48 89 df             	mov    %rbx,%rdi
    45c7:	e8 dc ea ff ff       	callq  30a8 <_init@@Base+0x238>
    45cc:	48 89 df             	mov    %rbx,%rdi
    45cf:	5b                   	pop    %rbx
    45d0:	e9 f3 e9 ff ff       	jmpq   2fc8 <_init@@Base+0x158>
    45d5:	66 2e 0f 1f 84 00 00 	nopw   %cs:0x0(%rax,%rax,1)
    45dc:	00 00 00 
    45df:	90                   	nop

00000000000045e0 <_ZN3Php5Value3setERKS0_S2_@@Base>:
    45e0:	41 56                	push   %r14
    45e2:	41 55                	push   %r13
    45e4:	41 54                	push   %r12
    45e6:	55                   	push   %rbp
    45e7:	48 89 fd             	mov    %rdi,%rbp
    45ea:	53                   	push   %rbx
    45eb:	48 89 f7             	mov    %rsi,%rdi
    45ee:	48 89 f3             	mov    %rsi,%rbx
    45f1:	49 89 d4             	mov    %rdx,%r12
    45f4:	48 83 ec 30          	sub    $0x30,%rsp
    45f8:	64 48 8b 04 25 28 00 	mov    %fs:0x28,%rax
    45ff:	00 00 
    4601:	48 89 44 24 28       	mov    %rax,0x28(%rsp)
    4606:	31 c0                	xor    %eax,%eax
    4608:	e8 83 e9 ff ff       	callq  2f90 <_init@@Base+0x120>
    460d:	84 c0                	test   %al,%al
    460f:	0f 85 ab 00 00 00    	jne    46c0 <_ZN3Php5Value3setERKS0_S2_@@Base+0xe0>
    4615:	48 89 df             	mov    %rbx,%rdi
    4618:	e8 9b e9 ff ff       	callq  2fb8 <_init@@Base+0x148>
    461d:	84 c0                	test   %al,%al
    461f:	48 8b 45 00          	mov    0x0(%rbp),%rax
    4623:	75 6b                	jne    4690 <_ZN3Php5Value3setERKS0_S2_@@Base+0xb0>
    4625:	48 89 de             	mov    %rbx,%rsi
    4628:	48 89 e7             	mov    %rsp,%rdi
    462b:	4c 8b 70 40          	mov    0x40(%rax),%r14
    462f:	e8 d4 e8 ff ff       	callq  2f08 <_init@@Base+0x98>
    4634:	4c 3b 35 7d 27 20 00 	cmp    0x20277d(%rip),%r14        # 206db8 <_ZTVN3Php8FunctionE@@Base+0x328>
    463b:	49 89 e5             	mov    %rsp,%r13
    463e:	0f 85 9c 00 00 00    	jne    46e0 <_ZN3Php5Value3setERKS0_S2_@@Base+0x100>
    4644:	48 8b 45 00          	mov    0x0(%rbp),%rax
    4648:	4c 89 e1             	mov    %r12,%rcx
    464b:	8b 54 24 08          	mov    0x8(%rsp),%edx
    464f:	48 8b 34 24          	mov    (%rsp),%rsi
    4653:	48 89 ef             	mov    %rbp,%rdi
    4656:	ff 50 78             	callq  *0x78(%rax)
    4659:	48 8b 3c 24          	mov    (%rsp),%rdi
    465d:	49 83 c5 10          	add    $0x10,%r13
    4661:	4c 39 ef             	cmp    %r13,%rdi
    4664:	74 05                	je     466b <_ZN3Php5Value3setERKS0_S2_@@Base+0x8b>
    4666:	e8 5d e9 ff ff       	callq  2fc8 <_init@@Base+0x158>
    466b:	48 8b 44 24 28       	mov    0x28(%rsp),%rax
    4670:	64 48 33 04 25 28 00 	xor    %fs:0x28,%rax
    4677:	00 00 
    4679:	75 76                	jne    46f1 <_ZN3Php5Value3setERKS0_S2_@@Base+0x111>
    467b:	48 83 c4 30          	add    $0x30,%rsp
    467f:	5b                   	pop    %rbx
    4680:	5d                   	pop    %rbp
    4681:	41 5c                	pop    %r12
    4683:	41 5d                	pop    %r13
    4685:	41 5e                	pop    %r14
    4687:	c3                   	retq   
    4688:	0f 1f 84 00 00 00 00 	nopl   0x0(%rax,%rax,1)
    468f:	00 
    4690:	48 89 df             	mov    %rbx,%rdi
    4693:	4c 8b 68 78          	mov    0x78(%rax),%r13
    4697:	e8 3c e8 ff ff       	callq  2ed8 <_init@@Base+0x68>
    469c:	48 89 df             	mov    %rbx,%rdi
    469f:	41 89 c6             	mov    %eax,%r14d
    46a2:	e8 39 e9 ff ff       	callq  2fe0 <_init@@Base+0x170>
    46a7:	4c 89 e1             	mov    %r12,%rcx
    46aa:	44 89 f2             	mov    %r14d,%edx
    46ad:	48 89 c6             	mov    %rax,%rsi
    46b0:	48 89 ef             	mov    %rbp,%rdi
    46b3:	41 ff d5             	callq  *%r13
    46b6:	eb b3                	jmp    466b <_ZN3Php5Value3setERKS0_S2_@@Base+0x8b>
    46b8:	0f 1f 84 00 00 00 00 	nopl   0x0(%rax,%rax,1)
    46bf:	00 
    46c0:	48 8b 45 00          	mov    0x0(%rbp),%rax
    46c4:	48 89 df             	mov    %rbx,%rdi
    46c7:	4c 8b 68 48          	mov    0x48(%rax),%r13
    46cb:	e8 d8 e7 ff ff       	callq  2ea8 <_init@@Base+0x38>
    46d0:	4c 89 e2             	mov    %r12,%rdx
    46d3:	89 c6                	mov    %eax,%esi
    46d5:	48 89 ef             	mov    %rbp,%rdi
    46d8:	41 ff d5             	callq  *%r13
    46db:	eb 8e                	jmp    466b <_ZN3Php5Value3setERKS0_S2_@@Base+0x8b>
    46dd:	0f 1f 00             	nopl   (%rax)
    46e0:	4c 89 e2             	mov    %r12,%rdx
    46e3:	48 89 e6             	mov    %rsp,%rsi
    46e6:	48 89 ef             	mov    %rbp,%rdi
    46e9:	41 ff d6             	callq  *%r14
    46ec:	e9 68 ff ff ff       	jmpq   4659 <_ZN3Php5Value3setERKS0_S2_@@Base+0x79>
    46f1:	e8 fa e8 ff ff       	callq  2ff0 <_init@@Base+0x180>
    46f6:	48 89 c3             	mov    %rax,%rbx
    46f9:	48 8b 3c 24          	mov    (%rsp),%rdi
    46fd:	49 83 c5 10          	add    $0x10,%r13
    4701:	4c 39 ef             	cmp    %r13,%rdi
    4704:	74 05                	je     470b <_ZN3Php5Value3setERKS0_S2_@@Base+0x12b>
    4706:	e8 bd e8 ff ff       	callq  2fc8 <_init@@Base+0x158>
    470b:	48 89 df             	mov    %rbx,%rdi
    470e:	e8 75 e9 ff ff       	callq  3088 <_init@@Base+0x218>
    4713:	66 2e 0f 1f 84 00 00 	nopw   %cs:0x0(%rax,%rax,1)
    471a:	00 00 00 
    471d:	0f 1f 00             	nopl   (%rax)

0000000000004720 <_ZNK3Php9Exception4fileB5cxx11Ev@@Base>:
    4720:	55                   	push   %rbp
    4721:	53                   	push   %rbx
    4722:	48 83 ec 08          	sub    $0x8,%rsp
    4726:	48 8b 2d 13 26 20 00 	mov    0x202613(%rip),%rbp        # 206d40 <_ZTVN3Php8FunctionE@@Base+0x2b0>
    472d:	80 7d 00 00          	cmpb   $0x0,0x0(%rbp)
    4731:	74 15                	je     4748 <_ZNK3Php9Exception4fileB5cxx11Ev@@Base+0x28>
    4733:	48 8b 1d c6 26 20 00 	mov    0x2026c6(%rip),%rbx        # 206e00 <_ZTVN3Php8FunctionE@@Base+0x370>
    473a:	48 83 c4 08          	add    $0x8,%rsp
    473e:	48 89 d8             	mov    %rbx,%rax
    4741:	5b                   	pop    %rbx
    4742:	5d                   	pop    %rbp
    4743:	c3                   	retq   
    4744:	0f 1f 40 00          	nopl   0x0(%rax)
    4748:	48 89 ef             	mov    %rbp,%rdi
    474b:	e8 50 e9 ff ff       	callq  30a0 <_init@@Base+0x230>
    4750:	85 c0                	test   %eax,%eax
    4752:	48 8b 1d a7 26 20 00 	mov    0x2026a7(%rip),%rbx        # 206e00 <_ZTVN3Php8FunctionE@@Base+0x370>
    4759:	74 df                	je     473a <_ZNK3Php9Exception4fileB5cxx11Ev@@Base+0x1a>
    475b:	48 8d 43 10          	lea    0x10(%rbx),%rax
    475f:	48 8d 15 5c 0b 00 00 	lea    0xb5c(%rip),%rdx        # 52c2 <_fini@@Base+0x2e>
    4766:	48 8d 35 43 0b 00 00 	lea    0xb43(%rip),%rsi        # 52b0 <_fini@@Base+0x1c>
    476d:	48 89 df             	mov    %rbx,%rdi
    4770:	48 89 03             	mov    %rax,(%rbx)
    4773:	e8 88 ee ff ff       	callq  3600 <_Z21check_hacking_attemptPcS_@@Base+0x3c0>
    4778:	48 89 ef             	mov    %rbp,%rdi
    477b:	e8 e0 e7 ff ff       	callq  2f60 <_init@@Base+0xf0>
    4780:	48 8b 3d 71 26 20 00 	mov    0x202671(%rip),%rdi        # 206df8 <_ZTVN3Php8FunctionE@@Base+0x368>
    4787:	48 8d 15 72 28 20 00 	lea    0x202872(%rip),%rdx        # 207000 <_ZTVN3Php8FunctionE@@Base+0x570>
    478e:	48 89 de             	mov    %rbx,%rsi
    4791:	e8 12 e8 ff ff       	callq  2fa8 <_init@@Base+0x138>
    4796:	48 83 c4 08          	add    $0x8,%rsp
    479a:	48 89 d8             	mov    %rbx,%rax
    479d:	5b                   	pop    %rbx
    479e:	5d                   	pop    %rbp
    479f:	c3                   	retq   

00000000000047a0 <_ZNSt6vectorIN3Php5ValueESaIS1_EED1Ev@@Base>:
    47a0:	41 54                	push   %r12
    47a2:	55                   	push   %rbp
    47a3:	53                   	push   %rbx
    47a4:	48 8b 6f 08          	mov    0x8(%rdi),%rbp
    47a8:	48 8b 1f             	mov    (%rdi),%rbx
    47ab:	48 39 dd             	cmp    %rbx,%rbp
    47ae:	74 1d                	je     47cd <_ZNSt6vectorIN3Php5ValueESaIS1_EED1Ev@@Base+0x2d>
    47b0:	49 89 fc             	mov    %rdi,%r12
    47b3:	0f 1f 44 00 00       	nopl   0x0(%rax,%rax,1)
    47b8:	48 8b 03             	mov    (%rbx),%rax
    47bb:	48 89 df             	mov    %rbx,%rdi
    47be:	48 83 c3 20          	add    $0x20,%rbx
    47c2:	ff 10                	callq  *(%rax)
    47c4:	48 39 dd             	cmp    %rbx,%rbp
    47c7:	75 ef                	jne    47b8 <_ZNSt6vectorIN3Php5ValueESaIS1_EED1Ev@@Base+0x18>
    47c9:	49 8b 2c 24          	mov    (%r12),%rbp
    47cd:	48 85 ed             	test   %rbp,%rbp
    47d0:	74 0e                	je     47e0 <_ZNSt6vectorIN3Php5ValueESaIS1_EED1Ev@@Base+0x40>
    47d2:	5b                   	pop    %rbx
    47d3:	48 89 ef             	mov    %rbp,%rdi
    47d6:	5d                   	pop    %rbp
    47d7:	41 5c                	pop    %r12
    47d9:	e9 ea e7 ff ff       	jmpq   2fc8 <_init@@Base+0x158>
    47de:	66 90                	xchg   %ax,%ax
    47e0:	5b                   	pop    %rbx
    47e1:	5d                   	pop    %rbp
    47e2:	41 5c                	pop    %r12
    47e4:	c3                   	retq   
    47e5:	66 2e 0f 1f 84 00 00 	nopw   %cs:0x0(%rax,%rax,1)
    47ec:	00 00 00 
    47ef:	90                   	nop

00000000000047f0 <_ZN3Php12ZendCallable6invokeIXadL_Z10get_resultRNS_10ParametersEEEEEvP18_zend_execute_dataP12_zval_struct@@Base>:
    47f0:	41 55                	push   %r13
    47f2:	41 54                	push   %r12
    47f4:	55                   	push   %rbp
    47f5:	53                   	push   %rbx
    47f6:	48 89 fd             	mov    %rdi,%rbp
    47f9:	48 89 f3             	mov    %rsi,%rbx
    47fc:	48 83 ec 58          	sub    $0x58,%rsp
    4800:	64 48 8b 04 25 28 00 	mov    %fs:0x28,%rax
    4807:	00 00 
    4809:	48 89 44 24 48       	mov    %rax,0x48(%rsp)
    480e:	31 c0                	xor    %eax,%eax
    4810:	e8 3b e8 ff ff       	callq  3050 <_init@@Base+0x1e0>
    4815:	84 c0                	test   %al,%al
    4817:	75 27                	jne    4840 <_ZN3Php12ZendCallable6invokeIXadL_Z10get_resultRNS_10ParametersEEEEEvP18_zend_execute_dataP12_zval_struct@@Base+0x50>
    4819:	48 8b 44 24 48       	mov    0x48(%rsp),%rax
    481e:	64 48 33 04 25 28 00 	xor    %fs:0x28,%rax
    4825:	00 00 
    4827:	0f 85 7e 00 00 00    	jne    48ab <_ZN3Php12ZendCallable6invokeIXadL_Z10get_resultRNS_10ParametersEEEEEvP18_zend_execute_dataP12_zval_struct@@Base+0xbb>
    482d:	48 83 c4 58          	add    $0x58,%rsp
    4831:	5b                   	pop    %rbx
    4832:	5d                   	pop    %rbp
    4833:	41 5c                	pop    %r12
    4835:	41 5d                	pop    %r13
    4837:	c3                   	retq   
    4838:	0f 1f 84 00 00 00 00 	nopl   0x0(%rax,%rax,1)
    483f:	00 
    4840:	48 89 ee             	mov    %rbp,%rsi
    4843:	48 8d 6c 24 20       	lea    0x20(%rsp),%rbp
    4848:	48 89 e7             	mov    %rsp,%rdi
    484b:	e8 60 e6 ff ff       	callq  2eb0 <_init@@Base+0x40>
    4850:	48 89 e6             	mov    %rsp,%rsi
    4853:	48 89 ef             	mov    %rbp,%rdi
    4856:	49 89 e4             	mov    %rsp,%r12
    4859:	e8 d2 e7 ff ff       	callq  3030 <_init@@Base+0x1c0>
    485e:	48 89 ee             	mov    %rbp,%rsi
    4861:	48 89 df             	mov    %rbx,%rdi
    4864:	e8 67 e6 ff ff       	callq  2ed0 <_init@@Base+0x60>
    4869:	48 89 ef             	mov    %rbp,%rdi
    486c:	e8 2f e6 ff ff       	callq  2ea0 <_init@@Base+0x30>
    4871:	48 8b 6c 24 08       	mov    0x8(%rsp),%rbp
    4876:	48 8b 1c 24          	mov    (%rsp),%rbx
    487a:	48 39 dd             	cmp    %rbx,%rbp
    487d:	74 16                	je     4895 <_ZN3Php12ZendCallable6invokeIXadL_Z10get_resultRNS_10ParametersEEEEEvP18_zend_execute_dataP12_zval_struct@@Base+0xa5>
    487f:	90                   	nop
    4880:	48 8b 03             	mov    (%rbx),%rax
    4883:	48 89 df             	mov    %rbx,%rdi
    4886:	48 83 c3 20          	add    $0x20,%rbx
    488a:	ff 10                	callq  *(%rax)
    488c:	48 39 dd             	cmp    %rbx,%rbp
    488f:	75 ef                	jne    4880 <_ZN3Php12ZendCallable6invokeIXadL_Z10get_resultRNS_10ParametersEEEEEvP18_zend_execute_dataP12_zval_struct@@Base+0x90>
    4891:	48 8b 2c 24          	mov    (%rsp),%rbp
    4895:	48 85 ed             	test   %rbp,%rbp
    4898:	0f 84 7b ff ff ff    	je     4819 <_ZN3Php12ZendCallable6invokeIXadL_Z10get_resultRNS_10ParametersEEEEEvP18_zend_execute_dataP12_zval_struct@@Base+0x29>
    489e:	48 89 ef             	mov    %rbp,%rdi
    48a1:	e8 22 e7 ff ff       	callq  2fc8 <_init@@Base+0x158>
    48a6:	e9 6e ff ff ff       	jmpq   4819 <_ZN3Php12ZendCallable6invokeIXadL_Z10get_resultRNS_10ParametersEEEEEvP18_zend_execute_dataP12_zval_struct@@Base+0x29>
    48ab:	e8 40 e7 ff ff       	callq  2ff0 <_init@@Base+0x180>
    48b0:	eb 14                	jmp    48c6 <_ZN3Php12ZendCallable6invokeIXadL_Z10get_resultRNS_10ParametersEEEEEvP18_zend_execute_dataP12_zval_struct@@Base+0xd6>
    48b2:	48 89 c3             	mov    %rax,%rbx
    48b5:	49 89 d5             	mov    %rdx,%r13
    48b8:	48 89 ef             	mov    %rbp,%rdi
    48bb:	e8 e0 e5 ff ff       	callq  2ea0 <_init@@Base+0x30>
    48c0:	48 89 d8             	mov    %rbx,%rax
    48c3:	4c 89 ea             	mov    %r13,%rdx
    48c6:	48 83 ea 01          	sub    $0x1,%rdx
    48ca:	48 89 c3             	mov    %rax,%rbx
    48cd:	75 24                	jne    48f3 <_ZN3Php12ZendCallable6invokeIXadL_Z10get_resultRNS_10ParametersEEEEEvP18_zend_execute_dataP12_zval_struct@@Base+0x103>
    48cf:	48 89 c7             	mov    %rax,%rdi
    48d2:	e8 19 e6 ff ff       	callq  2ef0 <_init@@Base+0x80>
    48d7:	48 89 c7             	mov    %rax,%rdi
    48da:	e8 29 e7 ff ff       	callq  3008 <_init@@Base+0x198>
    48df:	e8 7c e7 ff ff       	callq  3060 <_init@@Base+0x1f0>
    48e4:	eb 8b                	jmp    4871 <_ZN3Php12ZendCallable6invokeIXadL_Z10get_resultRNS_10ParametersEEEEEvP18_zend_execute_dataP12_zval_struct@@Base+0x81>
    48e6:	48 89 c3             	mov    %rax,%rbx
    48e9:	eb 08                	jmp    48f3 <_ZN3Php12ZendCallable6invokeIXadL_Z10get_resultRNS_10ParametersEEEEEvP18_zend_execute_dataP12_zval_struct@@Base+0x103>
    48eb:	48 89 c3             	mov    %rax,%rbx
    48ee:	e8 6d e7 ff ff       	callq  3060 <_init@@Base+0x1f0>
    48f3:	4c 89 e7             	mov    %r12,%rdi
    48f6:	e8 b5 e6 ff ff       	callq  2fb0 <_init@@Base+0x140>
    48fb:	48 89 df             	mov    %rbx,%rdi
    48fe:	e8 85 e7 ff ff       	callq  3088 <_init@@Base+0x218>
    4903:	66 2e 0f 1f 84 00 00 	nopw   %cs:0x0(%rax,%rax,1)
    490a:	00 00 00 
    490d:	0f 1f 00             	nopl   (%rax)

0000000000004910 <_ZN3Php12ZendCallable6invokeIXadL_Z17check_credentialsRNS_10ParametersEEEEEvP18_zend_execute_dataP12_zval_struct@@Base>:
    4910:	41 55                	push   %r13
    4912:	41 54                	push   %r12
    4914:	55                   	push   %rbp
    4915:	53                   	push   %rbx
    4916:	48 89 fd             	mov    %rdi,%rbp
    4919:	48 89 f3             	mov    %rsi,%rbx
    491c:	48 83 ec 58          	sub    $0x58,%rsp
    4920:	64 48 8b 04 25 28 00 	mov    %fs:0x28,%rax
    4927:	00 00 
    4929:	48 89 44 24 48       	mov    %rax,0x48(%rsp)
    492e:	31 c0                	xor    %eax,%eax
    4930:	e8 1b e7 ff ff       	callq  3050 <_init@@Base+0x1e0>
    4935:	84 c0                	test   %al,%al
    4937:	75 27                	jne    4960 <_ZN3Php12ZendCallable6invokeIXadL_Z17check_credentialsRNS_10ParametersEEEEEvP18_zend_execute_dataP12_zval_struct@@Base+0x50>
    4939:	48 8b 44 24 48       	mov    0x48(%rsp),%rax
    493e:	64 48 33 04 25 28 00 	xor    %fs:0x28,%rax
    4945:	00 00 
    4947:	0f 85 7e 00 00 00    	jne    49cb <_ZN3Php12ZendCallable6invokeIXadL_Z17check_credentialsRNS_10ParametersEEEEEvP18_zend_execute_dataP12_zval_struct@@Base+0xbb>
    494d:	48 83 c4 58          	add    $0x58,%rsp
    4951:	5b                   	pop    %rbx
    4952:	5d                   	pop    %rbp
    4953:	41 5c                	pop    %r12
    4955:	41 5d                	pop    %r13
    4957:	c3                   	retq   
    4958:	0f 1f 84 00 00 00 00 	nopl   0x0(%rax,%rax,1)
    495f:	00 
    4960:	48 89 ee             	mov    %rbp,%rsi
    4963:	48 8d 6c 24 20       	lea    0x20(%rsp),%rbp
    4968:	48 89 e7             	mov    %rsp,%rdi
    496b:	e8 40 e5 ff ff       	callq  2eb0 <_init@@Base+0x40>
    4970:	48 89 e6             	mov    %rsp,%rsi
    4973:	48 89 ef             	mov    %rbp,%rdi
    4976:	49 89 e4             	mov    %rsp,%r12
    4979:	e8 0a e6 ff ff       	callq  2f88 <_init@@Base+0x118>
    497e:	48 89 ee             	mov    %rbp,%rsi
    4981:	48 89 df             	mov    %rbx,%rdi
    4984:	e8 47 e5 ff ff       	callq  2ed0 <_init@@Base+0x60>
    4989:	48 89 ef             	mov    %rbp,%rdi
    498c:	e8 0f e5 ff ff       	callq  2ea0 <_init@@Base+0x30>
    4991:	48 8b 6c 24 08       	mov    0x8(%rsp),%rbp
    4996:	48 8b 1c 24          	mov    (%rsp),%rbx
    499a:	48 39 dd             	cmp    %rbx,%rbp
    499d:	74 16                	je     49b5 <_ZN3Php12ZendCallable6invokeIXadL_Z17check_credentialsRNS_10ParametersEEEEEvP18_zend_execute_dataP12_zval_struct@@Base+0xa5>
    499f:	90                   	nop
    49a0:	48 8b 03             	mov    (%rbx),%rax
    49a3:	48 89 df             	mov    %rbx,%rdi
    49a6:	48 83 c3 20          	add    $0x20,%rbx
    49aa:	ff 10                	callq  *(%rax)
    49ac:	48 39 dd             	cmp    %rbx,%rbp
    49af:	75 ef                	jne    49a0 <_ZN3Php12ZendCallable6invokeIXadL_Z17check_credentialsRNS_10ParametersEEEEEvP18_zend_execute_dataP12_zval_struct@@Base+0x90>
    49b1:	48 8b 2c 24          	mov    (%rsp),%rbp
    49b5:	48 85 ed             	test   %rbp,%rbp
    49b8:	0f 84 7b ff ff ff    	je     4939 <_ZN3Php12ZendCallable6invokeIXadL_Z17check_credentialsRNS_10ParametersEEEEEvP18_zend_execute_dataP12_zval_struct@@Base+0x29>
    49be:	48 89 ef             	mov    %rbp,%rdi
    49c1:	e8 02 e6 ff ff       	callq  2fc8 <_init@@Base+0x158>
    49c6:	e9 6e ff ff ff       	jmpq   4939 <_ZN3Php12ZendCallable6invokeIXadL_Z17check_credentialsRNS_10ParametersEEEEEvP18_zend_execute_dataP12_zval_struct@@Base+0x29>
    49cb:	e8 20 e6 ff ff       	callq  2ff0 <_init@@Base+0x180>
    49d0:	eb 14                	jmp    49e6 <_ZN3Php12ZendCallable6invokeIXadL_Z17check_credentialsRNS_10ParametersEEEEEvP18_zend_execute_dataP12_zval_struct@@Base+0xd6>
    49d2:	48 89 c3             	mov    %rax,%rbx
    49d5:	49 89 d5             	mov    %rdx,%r13
    49d8:	48 89 ef             	mov    %rbp,%rdi
    49db:	e8 c0 e4 ff ff       	callq  2ea0 <_init@@Base+0x30>
    49e0:	48 89 d8             	mov    %rbx,%rax
    49e3:	4c 89 ea             	mov    %r13,%rdx
    49e6:	48 83 ea 01          	sub    $0x1,%rdx
    49ea:	48 89 c3             	mov    %rax,%rbx
    49ed:	75 24                	jne    4a13 <_ZN3Php12ZendCallable6invokeIXadL_Z17check_credentialsRNS_10ParametersEEEEEvP18_zend_execute_dataP12_zval_struct@@Base+0x103>
    49ef:	48 89 c7             	mov    %rax,%rdi
    49f2:	e8 f9 e4 ff ff       	callq  2ef0 <_init@@Base+0x80>
    49f7:	48 89 c7             	mov    %rax,%rdi
    49fa:	e8 09 e6 ff ff       	callq  3008 <_init@@Base+0x198>
    49ff:	e8 5c e6 ff ff       	callq  3060 <_init@@Base+0x1f0>
    4a04:	eb 8b                	jmp    4991 <_ZN3Php12ZendCallable6invokeIXadL_Z17check_credentialsRNS_10ParametersEEEEEvP18_zend_execute_dataP12_zval_struct@@Base+0x81>
    4a06:	48 89 c3             	mov    %rax,%rbx
    4a09:	eb 08                	jmp    4a13 <_ZN3Php12ZendCallable6invokeIXadL_Z17check_credentialsRNS_10ParametersEEEEEvP18_zend_execute_dataP12_zval_struct@@Base+0x103>
    4a0b:	48 89 c3             	mov    %rax,%rbx
    4a0e:	e8 4d e6 ff ff       	callq  3060 <_init@@Base+0x1f0>
    4a13:	4c 89 e7             	mov    %r12,%rdi
    4a16:	e8 95 e5 ff ff       	callq  2fb0 <_init@@Base+0x140>
    4a1b:	48 89 df             	mov    %rbx,%rdi
    4a1e:	e8 65 e6 ff ff       	callq  3088 <_init@@Base+0x218>
    4a23:	66 2e 0f 1f 84 00 00 	nopw   %cs:0x0(%rax,%rax,1)
    4a2a:	00 00 00 
    4a2d:	0f 1f 00             	nopl   (%rax)

0000000000004a30 <_ZN3Php12ZendCallable6invokeIXadL_Z11create_userRNS_10ParametersEEEEEvP18_zend_execute_dataP12_zval_struct@@Base>:
    4a30:	41 55                	push   %r13
    4a32:	41 54                	push   %r12
    4a34:	55                   	push   %rbp
    4a35:	53                   	push   %rbx
    4a36:	48 89 fd             	mov    %rdi,%rbp
    4a39:	48 89 f3             	mov    %rsi,%rbx
    4a3c:	48 83 ec 58          	sub    $0x58,%rsp
    4a40:	64 48 8b 04 25 28 00 	mov    %fs:0x28,%rax
    4a47:	00 00 
    4a49:	48 89 44 24 48       	mov    %rax,0x48(%rsp)
    4a4e:	31 c0                	xor    %eax,%eax
    4a50:	e8 fb e5 ff ff       	callq  3050 <_init@@Base+0x1e0>
    4a55:	84 c0                	test   %al,%al
    4a57:	75 27                	jne    4a80 <_ZN3Php12ZendCallable6invokeIXadL_Z11create_userRNS_10ParametersEEEEEvP18_zend_execute_dataP12_zval_struct@@Base+0x50>
    4a59:	48 8b 44 24 48       	mov    0x48(%rsp),%rax
    4a5e:	64 48 33 04 25 28 00 	xor    %fs:0x28,%rax
    4a65:	00 00 
    4a67:	0f 85 7e 00 00 00    	jne    4aeb <_ZN3Php12ZendCallable6invokeIXadL_Z11create_userRNS_10ParametersEEEEEvP18_zend_execute_dataP12_zval_struct@@Base+0xbb>
    4a6d:	48 83 c4 58          	add    $0x58,%rsp
    4a71:	5b                   	pop    %rbx
    4a72:	5d                   	pop    %rbp
    4a73:	41 5c                	pop    %r12
    4a75:	41 5d                	pop    %r13
    4a77:	c3                   	retq   
    4a78:	0f 1f 84 00 00 00 00 	nopl   0x0(%rax,%rax,1)
    4a7f:	00 
    4a80:	48 89 ee             	mov    %rbp,%rsi
    4a83:	48 8d 6c 24 20       	lea    0x20(%rsp),%rbp
    4a88:	48 89 e7             	mov    %rsp,%rdi
    4a8b:	e8 20 e4 ff ff       	callq  2eb0 <_init@@Base+0x40>
    4a90:	48 89 e6             	mov    %rsp,%rsi
    4a93:	48 89 ef             	mov    %rbp,%rdi
    4a96:	49 89 e4             	mov    %rsp,%r12
    4a99:	e8 fa e4 ff ff       	callq  2f98 <_init@@Base+0x128>
    4a9e:	48 89 ee             	mov    %rbp,%rsi
    4aa1:	48 89 df             	mov    %rbx,%rdi
    4aa4:	e8 27 e4 ff ff       	callq  2ed0 <_init@@Base+0x60>
    4aa9:	48 89 ef             	mov    %rbp,%rdi
    4aac:	e8 ef e3 ff ff       	callq  2ea0 <_init@@Base+0x30>
    4ab1:	48 8b 6c 24 08       	mov    0x8(%rsp),%rbp
    4ab6:	48 8b 1c 24          	mov    (%rsp),%rbx
    4aba:	48 39 dd             	cmp    %rbx,%rbp
    4abd:	74 16                	je     4ad5 <_ZN3Php12ZendCallable6invokeIXadL_Z11create_userRNS_10ParametersEEEEEvP18_zend_execute_dataP12_zval_struct@@Base+0xa5>
    4abf:	90                   	nop
    4ac0:	48 8b 03             	mov    (%rbx),%rax
    4ac3:	48 89 df             	mov    %rbx,%rdi
    4ac6:	48 83 c3 20          	add    $0x20,%rbx
    4aca:	ff 10                	callq  *(%rax)
    4acc:	48 39 dd             	cmp    %rbx,%rbp
    4acf:	75 ef                	jne    4ac0 <_ZN3Php12ZendCallable6invokeIXadL_Z11create_userRNS_10ParametersEEEEEvP18_zend_execute_dataP12_zval_struct@@Base+0x90>
    4ad1:	48 8b 2c 24          	mov    (%rsp),%rbp
    4ad5:	48 85 ed             	test   %rbp,%rbp
    4ad8:	0f 84 7b ff ff ff    	je     4a59 <_ZN3Php12ZendCallable6invokeIXadL_Z11create_userRNS_10ParametersEEEEEvP18_zend_execute_dataP12_zval_struct@@Base+0x29>
    4ade:	48 89 ef             	mov    %rbp,%rdi
    4ae1:	e8 e2 e4 ff ff       	callq  2fc8 <_init@@Base+0x158>
    4ae6:	e9 6e ff ff ff       	jmpq   4a59 <_ZN3Php12ZendCallable6invokeIXadL_Z11create_userRNS_10ParametersEEEEEvP18_zend_execute_dataP12_zval_struct@@Base+0x29>
    4aeb:	e8 00 e5 ff ff       	callq  2ff0 <_init@@Base+0x180>
    4af0:	eb 14                	jmp    4b06 <_ZN3Php12ZendCallable6invokeIXadL_Z11create_userRNS_10ParametersEEEEEvP18_zend_execute_dataP12_zval_struct@@Base+0xd6>
    4af2:	48 89 c3             	mov    %rax,%rbx
    4af5:	49 89 d5             	mov    %rdx,%r13
    4af8:	48 89 ef             	mov    %rbp,%rdi
    4afb:	e8 a0 e3 ff ff       	callq  2ea0 <_init@@Base+0x30>
    4b00:	48 89 d8             	mov    %rbx,%rax
    4b03:	4c 89 ea             	mov    %r13,%rdx
    4b06:	48 83 ea 01          	sub    $0x1,%rdx
    4b0a:	48 89 c3             	mov    %rax,%rbx
    4b0d:	75 24                	jne    4b33 <_ZN3Php12ZendCallable6invokeIXadL_Z11create_userRNS_10ParametersEEEEEvP18_zend_execute_dataP12_zval_struct@@Base+0x103>
    4b0f:	48 89 c7             	mov    %rax,%rdi
    4b12:	e8 d9 e3 ff ff       	callq  2ef0 <_init@@Base+0x80>
    4b17:	48 89 c7             	mov    %rax,%rdi
    4b1a:	e8 e9 e4 ff ff       	callq  3008 <_init@@Base+0x198>
    4b1f:	e8 3c e5 ff ff       	callq  3060 <_init@@Base+0x1f0>
    4b24:	eb 8b                	jmp    4ab1 <_ZN3Php12ZendCallable6invokeIXadL_Z11create_userRNS_10ParametersEEEEEvP18_zend_execute_dataP12_zval_struct@@Base+0x81>
    4b26:	48 89 c3             	mov    %rax,%rbx
    4b29:	eb 08                	jmp    4b33 <_ZN3Php12ZendCallable6invokeIXadL_Z11create_userRNS_10ParametersEEEEEvP18_zend_execute_dataP12_zval_struct@@Base+0x103>
    4b2b:	48 89 c3             	mov    %rax,%rbx
    4b2e:	e8 2d e5 ff ff       	callq  3060 <_init@@Base+0x1f0>
    4b33:	4c 89 e7             	mov    %r12,%rdi
    4b36:	e8 75 e4 ff ff       	callq  2fb0 <_init@@Base+0x140>
    4b3b:	48 89 df             	mov    %rbx,%rdi
    4b3e:	e8 45 e5 ff ff       	callq  3088 <_init@@Base+0x218>
    4b43:	55                   	push   %rbp
    4b44:	48 89 e5             	mov    %rsp,%rbp
    4b47:	48 89 7d f8          	mov    %rdi,-0x8(%rbp)
    4b4b:	89 75 f4             	mov    %esi,-0xc(%rbp)
    4b4e:	48 89 55 e8          	mov    %rdx,-0x18(%rbp)
    4b52:	48 89 4d e0          	mov    %rcx,-0x20(%rbp)
    4b56:	b8 00 00 00 00       	mov    $0x0,%eax
    4b5b:	5d                   	pop    %rbp
    4b5c:	c3                   	retq   
    4b5d:	55                   	push   %rbp
    4b5e:	48 89 e5             	mov    %rsp,%rbp
    4b61:	48 83 ec 30          	sub    $0x30,%rsp
    4b65:	48 89 7d e8          	mov    %rdi,-0x18(%rbp)
    4b69:	89 75 e4             	mov    %esi,-0x1c(%rbp)
    4b6c:	48 89 55 d8          	mov    %rdx,-0x28(%rbp)
    4b70:	48 89 4d d0          	mov    %rcx,-0x30(%rbp)
    4b74:	c7 45 fc 00 00 00 00 	movl   $0x0,-0x4(%rbp)
    4b7b:	e9 1f 01 00 00       	jmpq   4c9f <_ZN3Php12ZendCallable6invokeIXadL_Z11create_userRNS_10ParametersEEEEEvP18_zend_execute_dataP12_zval_struct@@Base+0x26f>
    4b80:	8b 45 fc             	mov    -0x4(%rbp),%eax
    4b83:	48 98                	cltq   
    4b85:	48 8d 14 c5 00 00 00 	lea    0x0(,%rax,8),%rdx
    4b8c:	00 
    4b8d:	48 8b 45 d0          	mov    -0x30(%rbp),%rax
    4b91:	48 01 d0             	add    %rdx,%rax
    4b94:	48 8b 00             	mov    (%rax),%rax
    4b97:	48 8d 35 10 09 00 00 	lea    0x910(%rip),%rsi        # 54ae <_ZTSN3Php8FunctionE@@Base+0x5e>
    4b9e:	48 89 c7             	mov    %rax,%rdi
    4ba1:	e8 7a e4 ff ff       	callq  3020 <_init@@Base+0x1b0>
    4ba6:	85 c0                	test   %eax,%eax
    4ba8:	75 37                	jne    4be1 <_ZN3Php12ZendCallable6invokeIXadL_Z11create_userRNS_10ParametersEEEEEvP18_zend_execute_dataP12_zval_struct@@Base+0x1b1>
    4baa:	8b 45 fc             	mov    -0x4(%rbp),%eax
    4bad:	48 98                	cltq   
    4baf:	48 8d 14 c5 00 00 00 	lea    0x0(,%rax,8),%rdx
    4bb6:	00 
    4bb7:	48 8b 45 d8          	mov    -0x28(%rbp),%rax
    4bbb:	48 01 d0             	add    %rdx,%rax
    4bbe:	48 8b 00             	mov    (%rax),%rax
    4bc1:	ba 23 00 00 00       	mov    $0x23,%edx
    4bc6:	48 89 c6             	mov    %rax,%rsi
    4bc9:	48 8d 3d 90 25 20 00 	lea    0x202590(%rip),%rdi        # 207160 <_ZZNK3Php9Exception4fileB5cxx11EvE4file@@Base+0x20>
    4bd0:	e8 53 e3 ff ff       	callq  2f28 <_init@@Base+0xb8>
    4bd5:	c6 05 a7 25 20 00 00 	movb   $0x0,0x2025a7(%rip)        # 207183 <_ZZNK3Php9Exception4fileB5cxx11EvE4file@@Base+0x43>
    4bdc:	e9 ba 00 00 00       	jmpq   4c9b <_ZN3Php12ZendCallable6invokeIXadL_Z11create_userRNS_10ParametersEEEEEvP18_zend_execute_dataP12_zval_struct@@Base+0x26b>
    4be1:	8b 45 fc             	mov    -0x4(%rbp),%eax
    4be4:	48 98                	cltq   
    4be6:	48 8d 14 c5 00 00 00 	lea    0x0(,%rax,8),%rdx
    4bed:	00 
    4bee:	48 8b 45 d0          	mov    -0x30(%rbp),%rax
    4bf2:	48 01 d0             	add    %rdx,%rax
    4bf5:	48 8b 00             	mov    (%rax),%rax
    4bf8:	48 8d 35 b8 08 00 00 	lea    0x8b8(%rip),%rsi        # 54b7 <_ZTSN3Php8FunctionE@@Base+0x67>
    4bff:	48 89 c7             	mov    %rax,%rdi
    4c02:	e8 19 e4 ff ff       	callq  3020 <_init@@Base+0x1b0>
    4c07:	85 c0                	test   %eax,%eax
    4c09:	75 34                	jne    4c3f <_ZN3Php12ZendCallable6invokeIXadL_Z11create_userRNS_10ParametersEEEEEvP18_zend_execute_dataP12_zval_struct@@Base+0x20f>
    4c0b:	8b 45 fc             	mov    -0x4(%rbp),%eax
    4c0e:	48 98                	cltq   
    4c10:	48 8d 14 c5 00 00 00 	lea    0x0(,%rax,8),%rdx
    4c17:	00 
    4c18:	48 8b 45 d8          	mov    -0x28(%rbp),%rax
    4c1c:	48 01 d0             	add    %rdx,%rax
    4c1f:	48 8b 00             	mov    (%rax),%rax
    4c22:	ba 14 00 00 00       	mov    $0x14,%edx
    4c27:	48 89 c6             	mov    %rax,%rsi
    4c2a:	48 8d 3d 53 25 20 00 	lea    0x202553(%rip),%rdi        # 207184 <_ZZNK3Php9Exception4fileB5cxx11EvE4file@@Base+0x44>
    4c31:	e8 f2 e2 ff ff       	callq  2f28 <_init@@Base+0xb8>
    4c36:	c6 05 5b 25 20 00 00 	movb   $0x0,0x20255b(%rip)        # 207198 <_ZZNK3Php9Exception4fileB5cxx11EvE4file@@Base+0x58>
    4c3d:	eb 5c                	jmp    4c9b <_ZN3Php12ZendCallable6invokeIXadL_Z11create_userRNS_10ParametersEEEEEvP18_zend_execute_dataP12_zval_struct@@Base+0x26b>
    4c3f:	8b 45 fc             	mov    -0x4(%rbp),%eax
    4c42:	48 98                	cltq   
    4c44:	48 8d 14 c5 00 00 00 	lea    0x0(,%rax,8),%rdx
    4c4b:	00 
    4c4c:	48 8b 45 d0          	mov    -0x30(%rbp),%rax
    4c50:	48 01 d0             	add    %rdx,%rax
    4c53:	48 8b 00             	mov    (%rax),%rax
    4c56:	48 8d 35 63 08 00 00 	lea    0x863(%rip),%rsi        # 54c0 <_ZTSN3Php8FunctionE@@Base+0x70>
    4c5d:	48 89 c7             	mov    %rax,%rdi
    4c60:	e8 bb e3 ff ff       	callq  3020 <_init@@Base+0x1b0>
    4c65:	85 c0                	test   %eax,%eax
    4c67:	75 32                	jne    4c9b <_ZN3Php12ZendCallable6invokeIXadL_Z11create_userRNS_10ParametersEEEEEvP18_zend_execute_dataP12_zval_struct@@Base+0x26b>
    4c69:	8b 45 fc             	mov    -0x4(%rbp),%eax
    4c6c:	48 98                	cltq   
    4c6e:	48 8d 14 c5 00 00 00 	lea    0x0(,%rax,8),%rdx
    4c75:	00 
    4c76:	48 8b 45 d8          	mov    -0x28(%rbp),%rax
    4c7a:	48 01 d0             	add    %rdx,%rax
    4c7d:	48 8b 00             	mov    (%rax),%rax
    4c80:	48 8d 15 15 25 20 00 	lea    0x202515(%rip),%rdx        # 20719c <_ZZNK3Php9Exception4fileB5cxx11EvE4file@@Base+0x5c>
    4c87:	48 8d 35 38 08 00 00 	lea    0x838(%rip),%rsi        # 54c6 <_ZTSN3Php8FunctionE@@Base+0x76>
    4c8e:	48 89 c7             	mov    %rax,%rdi
    4c91:	b8 00 00 00 00       	mov    $0x0,%eax
    4c96:	e8 3d e3 ff ff       	callq  2fd8 <_init@@Base+0x168>
    4c9b:	83 45 fc 01          	addl   $0x1,-0x4(%rbp)
    4c9f:	8b 45 fc             	mov    -0x4(%rbp),%eax
    4ca2:	3b 45 e4             	cmp    -0x1c(%rbp),%eax
    4ca5:	0f 8c d5 fe ff ff    	jl     4b80 <_ZN3Php12ZendCallable6invokeIXadL_Z11create_userRNS_10ParametersEEEEEvP18_zend_execute_dataP12_zval_struct@@Base+0x150>
    4cab:	b8 00 00 00 00       	mov    $0x0,%eax
    4cb0:	c9                   	leaveq 
    4cb1:	c3                   	retq   

0000000000004cb2 <get_user@@Base>:
    4cb2:	55                   	push   %rbp
    4cb3:	48 89 e5             	mov    %rsp,%rbp
    4cb6:	48 81 ec d0 01 00 00 	sub    $0x1d0,%rsp
    4cbd:	48 89 bd 48 fe ff ff 	mov    %rdi,-0x1b8(%rbp)
    4cc4:	48 89 b5 40 fe ff ff 	mov    %rsi,-0x1c0(%rbp)
    4ccb:	48 89 95 38 fe ff ff 	mov    %rdx,-0x1c8(%rbp)
    4cd2:	64 48 8b 04 25 28 00 	mov    %fs:0x28,%rax
    4cd9:	00 00 
    4cdb:	48 89 45 f8          	mov    %rax,-0x8(%rbp)
    4cdf:	31 c0                	xor    %eax,%eax
    4ce1:	ba 40 00 00 00       	mov    $0x40,%edx
    4ce6:	be 00 00 00 00       	mov    $0x0,%esi
    4ceb:	48 8d 3d 6e 24 20 00 	lea    0x20246e(%rip),%rdi        # 207160 <_ZZNK3Php9Exception4fileB5cxx11EvE4file@@Base+0x20>
    4cf2:	e8 49 e2 ff ff       	callq  2f40 <_init@@Base+0xd0>
    4cf7:	48 8d 85 50 fe ff ff 	lea    -0x1b0(%rbp),%rax
    4cfe:	c7 00 75 73 65 72    	movl   $0x72657375,(%rax)
    4d04:	66 c7 40 04 73 00    	movw   $0x73,0x4(%rax)
    4d0a:	48 8b b5 38 fe ff ff 	mov    -0x1c8(%rbp),%rsi
    4d11:	48 8b 8d 40 fe ff ff 	mov    -0x1c0(%rbp),%rcx
    4d18:	48 8d 95 50 fe ff ff 	lea    -0x1b0(%rbp),%rdx
    4d1f:	48 8d 85 c0 fe ff ff 	lea    -0x140(%rbp),%rax
    4d26:	49 89 f1             	mov    %rsi,%r9
    4d29:	49 89 c8             	mov    %rcx,%r8
    4d2c:	48 89 d1             	mov    %rdx,%rcx
    4d2f:	48 8d 15 9a 07 00 00 	lea    0x79a(%rip),%rdx        # 54d0 <_ZTSN3Php8FunctionE@@Base+0x80>
    4d36:	be 2c 01 00 00       	mov    $0x12c,%esi
    4d3b:	48 89 c7             	mov    %rax,%rdi
    4d3e:	b8 00 00 00 00       	mov    $0x0,%eax
    4d43:	e8 10 e3 ff ff       	callq  3058 <_init@@Base+0x1e8>
    4d48:	48 8d 85 c0 fe ff ff 	lea    -0x140(%rbp),%rax
    4d4f:	48 8d 35 07 fe ff ff 	lea    -0x1f9(%rip),%rsi        # 4b5d <_ZN3Php12ZendCallable6invokeIXadL_Z11create_userRNS_10ParametersEEEEEvP18_zend_execute_dataP12_zval_struct@@Base+0x12d>
    4d56:	48 89 c7             	mov    %rax,%rdi
    4d59:	e8 42 04 00 00       	callq  51a0 <add_user@@Base+0xee>
    4d5e:	48 8b 85 48 fe ff ff 	mov    -0x1b8(%rbp),%rax
    4d65:	48 8b 15 f4 23 20 00 	mov    0x2023f4(%rip),%rdx        # 207160 <_ZZNK3Php9Exception4fileB5cxx11EvE4file@@Base+0x20>
    4d6c:	48 89 10             	mov    %rdx,(%rax)
    4d6f:	48 8b 15 f2 23 20 00 	mov    0x2023f2(%rip),%rdx        # 207168 <_ZZNK3Php9Exception4fileB5cxx11EvE4file@@Base+0x28>
    4d76:	48 89 50 08          	mov    %rdx,0x8(%rax)
    4d7a:	48 8b 15 ef 23 20 00 	mov    0x2023ef(%rip),%rdx        # 207170 <_ZZNK3Php9Exception4fileB5cxx11EvE4file@@Base+0x30>
    4d81:	48 89 50 10          	mov    %rdx,0x10(%rax)
    4d85:	48 8b 15 ec 23 20 00 	mov    0x2023ec(%rip),%rdx        # 207178 <_ZZNK3Php9Exception4fileB5cxx11EvE4file@@Base+0x38>
    4d8c:	48 89 50 18          	mov    %rdx,0x18(%rax)
    4d90:	48 8b 15 e9 23 20 00 	mov    0x2023e9(%rip),%rdx        # 207180 <_ZZNK3Php9Exception4fileB5cxx11EvE4file@@Base+0x40>
    4d97:	48 89 50 20          	mov    %rdx,0x20(%rax)
    4d9b:	48 8b 15 e6 23 20 00 	mov    0x2023e6(%rip),%rdx        # 207188 <_ZZNK3Php9Exception4fileB5cxx11EvE4file@@Base+0x48>
    4da2:	48 89 50 28          	mov    %rdx,0x28(%rax)
    4da6:	48 8b 15 e3 23 20 00 	mov    0x2023e3(%rip),%rdx        # 207190 <_ZZNK3Php9Exception4fileB5cxx11EvE4file@@Base+0x50>
    4dad:	48 89 50 30          	mov    %rdx,0x30(%rax)
    4db1:	48 8b 15 e0 23 20 00 	mov    0x2023e0(%rip),%rdx        # 207198 <_ZZNK3Php9Exception4fileB5cxx11EvE4file@@Base+0x58>
    4db8:	48 89 50 38          	mov    %rdx,0x38(%rax)
    4dbc:	48 8b 85 48 fe ff ff 	mov    -0x1b8(%rbp),%rax
    4dc3:	48 8b 4d f8          	mov    -0x8(%rbp),%rcx
    4dc7:	64 48 33 0c 25 28 00 	xor    %fs:0x28,%rcx
    4dce:	00 00 
    4dd0:	74 05                	je     4dd7 <get_user@@Base+0x125>
    4dd2:	e8 19 e2 ff ff       	callq  2ff0 <_init@@Base+0x180>
    4dd7:	c9                   	leaveq 
    4dd8:	c3                   	retq   
    4dd9:	55                   	push   %rbp
    4dda:	48 89 e5             	mov    %rsp,%rbp
    4ddd:	48 83 ec 30          	sub    $0x30,%rsp
    4de1:	48 89 7d e8          	mov    %rdi,-0x18(%rbp)
    4de5:	89 75 e4             	mov    %esi,-0x1c(%rbp)
    4de8:	48 89 55 d8          	mov    %rdx,-0x28(%rbp)
    4dec:	48 89 4d d0          	mov    %rcx,-0x30(%rbp)
    4df0:	c7 45 fc 00 00 00 00 	movl   $0x0,-0x4(%rbp)
    4df7:	eb 60                	jmp    4e59 <get_user@@Base+0x1a7>
    4df9:	8b 45 fc             	mov    -0x4(%rbp),%eax
    4dfc:	48 98                	cltq   
    4dfe:	48 8d 14 c5 00 00 00 	lea    0x0(,%rax,8),%rdx
    4e05:	00 
    4e06:	48 8b 45 d0          	mov    -0x30(%rbp),%rax
    4e0a:	48 01 d0             	add    %rdx,%rax
    4e0d:	48 8b 00             	mov    (%rax),%rax
    4e10:	48 8d 35 a9 06 00 00 	lea    0x6a9(%rip),%rsi        # 54c0 <_ZTSN3Php8FunctionE@@Base+0x70>
    4e17:	48 89 c7             	mov    %rax,%rdi
    4e1a:	e8 01 e2 ff ff       	callq  3020 <_init@@Base+0x1b0>
    4e1f:	85 c0                	test   %eax,%eax
    4e21:	75 32                	jne    4e55 <get_user@@Base+0x1a3>
    4e23:	8b 45 fc             	mov    -0x4(%rbp),%eax
    4e26:	48 98                	cltq   
    4e28:	48 8d 14 c5 00 00 00 	lea    0x0(,%rax,8),%rdx
    4e2f:	00 
    4e30:	48 8b 45 d8          	mov    -0x28(%rbp),%rax
    4e34:	48 01 d0             	add    %rdx,%rax
    4e37:	48 8b 00             	mov    (%rax),%rax
    4e3a:	48 8d 15 5f 23 20 00 	lea    0x20235f(%rip),%rdx        # 2071a0 <_ZZNK3Php9Exception4fileB5cxx11EvE4file@@Base+0x60>
    4e41:	48 8d 35 7e 06 00 00 	lea    0x67e(%rip),%rsi        # 54c6 <_ZTSN3Php8FunctionE@@Base+0x76>
    4e48:	48 89 c7             	mov    %rax,%rdi
    4e4b:	b8 00 00 00 00       	mov    $0x0,%eax
    4e50:	e8 83 e1 ff ff       	callq  2fd8 <_init@@Base+0x168>
    4e55:	83 45 fc 01          	addl   $0x1,-0x4(%rbp)
    4e59:	8b 45 fc             	mov    -0x4(%rbp),%eax
    4e5c:	3b 45 e4             	cmp    -0x1c(%rbp),%eax
    4e5f:	7c 98                	jl     4df9 <get_user@@Base+0x147>
    4e61:	b8 00 00 00 00       	mov    $0x0,%eax
    4e66:	c9                   	leaveq 
    4e67:	c3                   	retq   
    4e68:	55                   	push   %rbp
    4e69:	48 89 e5             	mov    %rsp,%rbp
    4e6c:	48 81 ec c0 01 00 00 	sub    $0x1c0,%rsp
    4e73:	48 89 bd 48 fe ff ff 	mov    %rdi,-0x1b8(%rbp)
    4e7a:	64 48 8b 04 25 28 00 	mov    %fs:0x28,%rax
    4e81:	00 00 
    4e83:	48 89 45 f8          	mov    %rax,-0x8(%rbp)
    4e87:	31 c0                	xor    %eax,%eax
    4e89:	c7 05 0d 23 20 00 fe 	movl   $0xfffffffe,0x20230d(%rip)        # 2071a0 <_ZZNK3Php9Exception4fileB5cxx11EvE4file@@Base+0x60>
    4e90:	ff ff ff 
    4e93:	48 8d 85 50 fe ff ff 	lea    -0x1b0(%rbp),%rax
    4e9a:	c7 00 75 73 65 72    	movl   $0x72657375,(%rax)
    4ea0:	66 c7 40 04 73 00    	movw   $0x73,0x4(%rax)
    4ea6:	48 8b 8d 48 fe ff ff 	mov    -0x1b8(%rbp),%rcx
    4ead:	48 8d 95 50 fe ff ff 	lea    -0x1b0(%rbp),%rdx
    4eb4:	48 8d 85 c0 fe ff ff 	lea    -0x140(%rbp),%rax
    4ebb:	49 89 c8             	mov    %rcx,%r8
    4ebe:	48 89 d1             	mov    %rdx,%rcx
    4ec1:	48 8d 15 60 06 00 00 	lea    0x660(%rip),%rdx        # 5528 <_ZTSN3Php8FunctionE@@Base+0xd8>
    4ec8:	be 31 01 00 00       	mov    $0x131,%esi
    4ecd:	48 89 c7             	mov    %rax,%rdi
    4ed0:	b8 00 00 00 00       	mov    $0x0,%eax
    4ed5:	e8 7e e1 ff ff       	callq  3058 <_init@@Base+0x1e8>
    4eda:	48 8d 85 c0 fe ff ff 	lea    -0x140(%rbp),%rax
    4ee1:	48 8d 35 f1 fe ff ff 	lea    -0x10f(%rip),%rsi        # 4dd9 <get_user@@Base+0x127>
    4ee8:	48 89 c7             	mov    %rax,%rdi
    4eeb:	e8 b0 02 00 00       	callq  51a0 <add_user@@Base+0xee>
    4ef0:	8b 05 aa 22 20 00    	mov    0x2022aa(%rip),%eax        # 2071a0 <_ZZNK3Php9Exception4fileB5cxx11EvE4file@@Base+0x60>
    4ef6:	48 8b 75 f8          	mov    -0x8(%rbp),%rsi
    4efa:	64 48 33 34 25 28 00 	xor    %fs:0x28,%rsi
    4f01:	00 00 
    4f03:	74 05                	je     4f0a <get_user@@Base+0x258>
    4f05:	e8 e6 e0 ff ff       	callq  2ff0 <_init@@Base+0x180>
    4f0a:	c9                   	leaveq 
    4f0b:	c3                   	retq   
    4f0c:	55                   	push   %rbp
    4f0d:	48 89 e5             	mov    %rsp,%rbp
    4f10:	48 81 ec c0 01 00 00 	sub    $0x1c0,%rsp
    4f17:	48 89 bd 48 fe ff ff 	mov    %rdi,-0x1b8(%rbp)
    4f1e:	64 48 8b 04 25 28 00 	mov    %fs:0x28,%rax
    4f25:	00 00 
    4f27:	48 89 45 f8          	mov    %rax,-0x8(%rbp)
    4f2b:	31 c0                	xor    %eax,%eax
    4f2d:	c7 05 69 22 20 00 fe 	movl   $0xfffffffe,0x202269(%rip)        # 2071a0 <_ZZNK3Php9Exception4fileB5cxx11EvE4file@@Base+0x60>
    4f34:	ff ff ff 
    4f37:	48 8d 85 50 fe ff ff 	lea    -0x1b0(%rbp),%rax
    4f3e:	c7 00 75 73 65 72    	movl   $0x72657375,(%rax)
    4f44:	66 c7 40 04 73 00    	movw   $0x73,0x4(%rax)
    4f4a:	48 8b 8d 48 fe ff ff 	mov    -0x1b8(%rbp),%rcx
    4f51:	48 8d 95 50 fe ff ff 	lea    -0x1b0(%rbp),%rdx
    4f58:	48 8d 85 c0 fe ff ff 	lea    -0x140(%rbp),%rax
    4f5f:	49 89 c8             	mov    %rcx,%r8
    4f62:	48 89 d1             	mov    %rdx,%rcx
    4f65:	48 8d 15 ec 05 00 00 	lea    0x5ec(%rip),%rdx        # 5558 <_ZTSN3Php8FunctionE@@Base+0x108>
    4f6c:	be 31 01 00 00       	mov    $0x131,%esi
    4f71:	48 89 c7             	mov    %rax,%rdi
    4f74:	b8 00 00 00 00       	mov    $0x0,%eax
    4f79:	e8 da e0 ff ff       	callq  3058 <_init@@Base+0x1e8>
    4f7e:	48 8d 85 c0 fe ff ff 	lea    -0x140(%rbp),%rax
    4f85:	48 8d 35 4d fe ff ff 	lea    -0x1b3(%rip),%rsi        # 4dd9 <get_user@@Base+0x127>
    4f8c:	48 89 c7             	mov    %rax,%rdi
    4f8f:	e8 0c 02 00 00       	callq  51a0 <add_user@@Base+0xee>
    4f94:	8b 05 06 22 20 00    	mov    0x202206(%rip),%eax        # 2071a0 <_ZZNK3Php9Exception4fileB5cxx11EvE4file@@Base+0x60>
    4f9a:	48 8b 75 f8          	mov    -0x8(%rbp),%rsi
    4f9e:	64 48 33 34 25 28 00 	xor    %fs:0x28,%rsi
    4fa5:	00 00 
    4fa7:	74 05                	je     4fae <get_user@@Base+0x2fc>
    4fa9:	e8 42 e0 ff ff       	callq  2ff0 <_init@@Base+0x180>
    4fae:	c9                   	leaveq 
    4faf:	c3                   	retq   

0000000000004fb0 <get_user_id@@Base>:
    4fb0:	55                   	push   %rbp
    4fb1:	48 89 e5             	mov    %rsp,%rbp
    4fb4:	48 81 ec 50 02 00 00 	sub    $0x250,%rsp
    4fbb:	48 89 bd c8 fd ff ff 	mov    %rdi,-0x238(%rbp)
    4fc2:	48 89 b5 c0 fd ff ff 	mov    %rsi,-0x240(%rbp)
    4fc9:	48 89 95 b8 fd ff ff 	mov    %rdx,-0x248(%rbp)
    4fd0:	64 48 8b 04 25 28 00 	mov    %fs:0x28,%rax
    4fd7:	00 00 
    4fd9:	48 89 45 f8          	mov    %rax,-0x8(%rbp)
    4fdd:	31 c0                	xor    %eax,%eax
    4fdf:	c7 05 b7 21 20 00 fe 	movl   $0xfffffffe,0x2021b7(%rip)        # 2071a0 <_ZZNK3Php9Exception4fileB5cxx11EvE4file@@Base+0x60>
    4fe6:	ff ff ff 
    4fe9:	48 8d 85 50 fe ff ff 	lea    -0x1b0(%rbp),%rax
    4ff0:	c7 00 75 73 65 72    	movl   $0x72657375,(%rax)
    4ff6:	66 c7 40 04 73 00    	movw   $0x73,0x4(%rax)
    4ffc:	48 8b 8d c8 fd ff ff 	mov    -0x238(%rbp),%rcx
    5003:	48 8d 95 e0 fd ff ff 	lea    -0x220(%rbp),%rdx
    500a:	48 8b 85 b8 fd ff ff 	mov    -0x248(%rbp),%rax
    5011:	48 89 ce             	mov    %rcx,%rsi
    5014:	48 89 d7             	mov    %rdx,%rdi
    5017:	ff d0                	callq  *%rax
    5019:	89 85 dc fd ff ff    	mov    %eax,-0x224(%rbp)
    501f:	83 bd dc fd ff ff 01 	cmpl   $0x1,-0x224(%rbp)
    5026:	75 07                	jne    502f <get_user_id@@Base+0x7f>
    5028:	b8 fe ff ff ff       	mov    $0xfffffffe,%eax
    502d:	eb 5a                	jmp    5089 <get_user_id@@Base+0xd9>
    502f:	48 8b b5 c0 fd ff ff 	mov    -0x240(%rbp),%rsi
    5036:	48 8b 8d c8 fd ff ff 	mov    -0x238(%rbp),%rcx
    503d:	48 8d 95 50 fe ff ff 	lea    -0x1b0(%rbp),%rdx
    5044:	48 8d 85 c0 fe ff ff 	lea    -0x140(%rbp),%rax
    504b:	49 89 f1             	mov    %rsi,%r9
    504e:	49 89 c8             	mov    %rcx,%r8
    5051:	48 89 d1             	mov    %rdx,%rcx
    5054:	48 8d 15 2d 05 00 00 	lea    0x52d(%rip),%rdx        # 5588 <_ZTSN3Php8FunctionE@@Base+0x138>
    505b:	be 31 01 00 00       	mov    $0x131,%esi
    5060:	48 89 c7             	mov    %rax,%rdi
    5063:	b8 00 00 00 00       	mov    $0x0,%eax
    5068:	e8 eb df ff ff       	callq  3058 <_init@@Base+0x1e8>
    506d:	48 8d 85 c0 fe ff ff 	lea    -0x140(%rbp),%rax
    5074:	48 8d 35 5e fd ff ff 	lea    -0x2a2(%rip),%rsi        # 4dd9 <get_user@@Base+0x127>
    507b:	48 89 c7             	mov    %rax,%rdi
    507e:	e8 1d 01 00 00       	callq  51a0 <add_user@@Base+0xee>
    5083:	8b 05 17 21 20 00    	mov    0x202117(%rip),%eax        # 2071a0 <_ZZNK3Php9Exception4fileB5cxx11EvE4file@@Base+0x60>
    5089:	48 8b 7d f8          	mov    -0x8(%rbp),%rdi
    508d:	64 48 33 3c 25 28 00 	xor    %fs:0x28,%rdi
    5094:	00 00 
    5096:	74 05                	je     509d <get_user_id@@Base+0xed>
    5098:	e8 53 df ff ff       	callq  2ff0 <_init@@Base+0x180>
    509d:	c9                   	leaveq 
    509e:	c3                   	retq   

000000000000509f <dummy_check@@Base>:
    509f:	55                   	push   %rbp
    50a0:	48 89 e5             	mov    %rsp,%rbp
    50a3:	48 89 7d f8          	mov    %rdi,-0x8(%rbp)
    50a7:	48 89 75 f0          	mov    %rsi,-0x10(%rbp)
    50ab:	b8 00 00 00 00       	mov    $0x0,%eax
    50b0:	5d                   	pop    %rbp
    50b1:	c3                   	retq   

00000000000050b2 <add_user@@Base>:
    50b2:	55                   	push   %rbp
    50b3:	48 89 e5             	mov    %rsp,%rbp
    50b6:	48 81 ec d0 01 00 00 	sub    $0x1d0,%rsp
    50bd:	48 89 bd 38 fe ff ff 	mov    %rdi,-0x1c8(%rbp)
    50c4:	48 89 b5 30 fe ff ff 	mov    %rsi,-0x1d0(%rbp)
    50cb:	64 48 8b 04 25 28 00 	mov    %fs:0x28,%rax
    50d2:	00 00 
    50d4:	48 89 45 f8          	mov    %rax,-0x8(%rbp)
    50d8:	31 c0                	xor    %eax,%eax
    50da:	48 8b 85 38 fe ff ff 	mov    -0x1c8(%rbp),%rax
    50e1:	48 89 c7             	mov    %rax,%rdi
    50e4:	e8 7f fd ff ff       	callq  4e68 <get_user@@Base+0x1b6>
    50e9:	89 85 4c fe ff ff    	mov    %eax,-0x1b4(%rbp)
    50ef:	83 bd 4c fe ff ff fe 	cmpl   $0xfffffffe,-0x1b4(%rbp)
    50f6:	0f 85 89 00 00 00    	jne    5185 <add_user@@Base+0xd3>
    50fc:	48 8d 85 50 fe ff ff 	lea    -0x1b0(%rbp),%rax
    5103:	c7 00 75 73 65 72    	movl   $0x72657375,(%rax)
    5109:	66 c7 40 04 73 00    	movw   $0x73,0x4(%rax)
    510f:	48 8b b5 30 fe ff ff 	mov    -0x1d0(%rbp),%rsi
    5116:	48 8b 8d 38 fe ff ff 	mov    -0x1c8(%rbp),%rcx
    511d:	48 8d 95 50 fe ff ff 	lea    -0x1b0(%rbp),%rdx
    5124:	48 8d 85 c0 fe ff ff 	lea    -0x140(%rbp),%rax
    512b:	49 89 f1             	mov    %rsi,%r9
    512e:	49 89 c8             	mov    %rcx,%r8
    5131:	48 89 d1             	mov    %rdx,%rcx
    5134:	48 8d 15 8d 04 00 00 	lea    0x48d(%rip),%rdx        # 55c8 <_ZTSN3Php8FunctionE@@Base+0x178>
    513b:	be 31 01 00 00       	mov    $0x131,%esi
    5140:	48 89 c7             	mov    %rax,%rdi
    5143:	b8 00 00 00 00       	mov    $0x0,%eax
    5148:	e8 0b df ff ff       	callq  3058 <_init@@Base+0x1e8>
    514d:	48 8d 85 c0 fe ff ff 	lea    -0x140(%rbp),%rax
    5154:	48 8d 35 e8 f9 ff ff 	lea    -0x618(%rip),%rsi        # 4b43 <_ZN3Php12ZendCallable6invokeIXadL_Z11create_userRNS_10ParametersEEEEEvP18_zend_execute_dataP12_zval_struct@@Base+0x113>
    515b:	48 89 c7             	mov    %rax,%rdi
    515e:	e8 3d 00 00 00       	callq  51a0 <add_user@@Base+0xee>
    5163:	48 8b 8d 30 fe ff ff 	mov    -0x1d0(%rbp),%rcx
    516a:	48 8b 85 38 fe ff ff 	mov    -0x1c8(%rbp),%rax
    5171:	48 8b 15 a8 1d 20 00 	mov    0x201da8(%rip),%rdx        # 206f20 <_ZTVN3Php8FunctionE@@Base+0x490>
    5178:	48 89 ce             	mov    %rcx,%rsi
    517b:	48 89 c7             	mov    %rax,%rdi
    517e:	e8 15 df ff ff       	callq  3098 <_init@@Base+0x228>
    5183:	eb 05                	jmp    518a <add_user@@Base+0xd8>
    5185:	b8 fd ff ff ff       	mov    $0xfffffffd,%eax
    518a:	48 8b 4d f8          	mov    -0x8(%rbp),%rcx
    518e:	64 48 33 0c 25 28 00 	xor    %fs:0x28,%rcx
    5195:	00 00 
    5197:	74 05                	je     519e <add_user@@Base+0xec>
    5199:	e8 52 de ff ff       	callq  2ff0 <_init@@Base+0x180>
    519e:	c9                   	leaveq 
    519f:	c3                   	retq   
    51a0:	55                   	push   %rbp
    51a1:	48 89 e5             	mov    %rsp,%rbp
    51a4:	48 83 ec 30          	sub    $0x30,%rsp
    51a8:	48 89 7d d8          	mov    %rdi,-0x28(%rbp)
    51ac:	48 89 75 d0          	mov    %rsi,-0x30(%rbp)
    51b0:	48 c7 45 f8 00 00 00 	movq   $0x0,-0x8(%rbp)
    51b7:	00 
    51b8:	48 8b 05 99 1c 20 00 	mov    0x201c99(%rip),%rax        # 206e58 <_ZTVN3Php8FunctionE@@Base+0x3c8>
    51bf:	48 8b 00             	mov    (%rax),%rax
    51c2:	48 8d 55 f0          	lea    -0x10(%rbp),%rdx
    51c6:	48 89 d6             	mov    %rdx,%rsi
    51c9:	48 89 c7             	mov    %rax,%rdi
    51cc:	e8 a7 de ff ff       	callq  3078 <_init@@Base+0x208>
    51d1:	89 45 ec             	mov    %eax,-0x14(%rbp)
    51d4:	83 7d ec 00          	cmpl   $0x0,-0x14(%rbp)
    51d8:	74 3b                	je     5215 <add_user@@Base+0x163>
    51da:	48 8b 45 f0          	mov    -0x10(%rbp),%rax
    51de:	48 89 c7             	mov    %rax,%rdi
    51e1:	e8 ea dd ff ff       	callq  2fd0 <_init@@Base+0x160>
    51e6:	48 89 c2             	mov    %rax,%rdx
    51e9:	48 8b 05 48 1d 20 00 	mov    0x201d48(%rip),%rax        # 206f38 <_ZTVN3Php8FunctionE@@Base+0x4a8>
    51f0:	48 8b 00             	mov    (%rax),%rax
    51f3:	48 8d 35 07 04 00 00 	lea    0x407(%rip),%rsi        # 5601 <_ZTSN3Php8FunctionE@@Base+0x1b1>
    51fa:	48 89 c7             	mov    %rax,%rdi
    51fd:	b8 00 00 00 00       	mov    $0x0,%eax
    5202:	e8 31 de ff ff       	callq  3038 <_init@@Base+0x1c8>
    5207:	48 8b 45 f0          	mov    -0x10(%rbp),%rax
    520b:	48 89 c7             	mov    %rax,%rdi
    520e:	e8 0d dd ff ff       	callq  2f20 <_init@@Base+0xb0>
    5213:	eb 71                	jmp    5286 <add_user@@Base+0x1d4>
    5215:	48 8b 55 d0          	mov    -0x30(%rbp),%rdx
    5219:	48 8b 45 f0          	mov    -0x10(%rbp),%rax
    521d:	48 8d 4d f8          	lea    -0x8(%rbp),%rcx
    5221:	48 8b 75 d8          	mov    -0x28(%rbp),%rsi
    5225:	49 89 c8             	mov    %rcx,%r8
    5228:	b9 00 00 00 00       	mov    $0x0,%ecx
    522d:	48 89 c7             	mov    %rax,%rdi
    5230:	e8 e3 dd ff ff       	callq  3018 <_init@@Base+0x1a8>
    5235:	89 45 ec             	mov    %eax,-0x14(%rbp)
    5238:	83 7d ec 00          	cmpl   $0x0,-0x14(%rbp)
    523c:	74 3c                	je     527a <add_user@@Base+0x1c8>
    523e:	48 8b 55 f8          	mov    -0x8(%rbp),%rdx
    5242:	48 8b 05 ef 1c 20 00 	mov    0x201cef(%rip),%rax        # 206f38 <_ZTVN3Php8FunctionE@@Base+0x4a8>
    5249:	48 8b 00             	mov    (%rax),%rax
    524c:	48 8d 35 c7 03 00 00 	lea    0x3c7(%rip),%rsi        # 561a <_ZTSN3Php8FunctionE@@Base+0x1ca>
    5253:	48 89 c7             	mov    %rax,%rdi
    5256:	b8 00 00 00 00       	mov    $0x0,%eax
    525b:	e8 d8 dd ff ff       	callq  3038 <_init@@Base+0x1c8>
    5260:	48 8b 45 f8          	mov    -0x8(%rbp),%rax
    5264:	48 89 c7             	mov    %rax,%rdi
    5267:	e8 8c dd ff ff       	callq  2ff8 <_init@@Base+0x188>
    526c:	48 8b 45 f0          	mov    -0x10(%rbp),%rax
    5270:	48 89 c7             	mov    %rax,%rdi
    5273:	e8 a8 dc ff ff       	callq  2f20 <_init@@Base+0xb0>
    5278:	eb 18                	jmp    5292 <add_user@@Base+0x1e0>
    527a:	48 8b 45 f0          	mov    -0x10(%rbp),%rax
    527e:	48 89 c7             	mov    %rax,%rdi
    5281:	e8 9a dc ff ff       	callq  2f20 <_init@@Base+0xb0>
    5286:	48 8b 45 f8          	mov    -0x8(%rbp),%rax
    528a:	48 89 c7             	mov    %rax,%rdi
    528d:	e8 66 dd ff ff       	callq  2ff8 <_init@@Base+0x188>
    5292:	c9                   	leaveq 
    5293:	c3                   	retq   

Disassembly of section .fini:

0000000000005294 <_fini@@Base>:
    5294:	48 83 ec 08          	sub    $0x8,%rsp
    5298:	48 83 c4 08          	add    $0x8,%rsp
    529c:	c3                   	retq   
