
keyjoinfile:     file format elf32-i386


Disassembly of section .init:

08048748 <_init>:
 8048748:	53                   	push   %ebx
 8048749:	83 ec 08             	sub    $0x8,%esp
 804874c:	e8 2f 02 00 00       	call   8048980 <__x86.get_pc_thunk.bx>
 8048751:	81 c3 af a8 02 00    	add    $0x2a8af,%ebx
 8048757:	8b 83 fc ff ff ff    	mov    -0x4(%ebx),%eax
 804875d:	85 c0                	test   %eax,%eax
 804875f:	74 05                	je     8048766 <_init+0x1e>
 8048761:	e8 da 01 00 00       	call   8048940 <calloc@plt+0x10>
 8048766:	83 c4 08             	add    $0x8,%esp
 8048769:	5b                   	pop    %ebx
 804876a:	c3                   	ret    

Disassembly of section .plt:

08048770 <printf@plt-0x10>:
 8048770:	ff 35 04 30 07 08    	pushl  0x8073004
 8048776:	ff 25 08 30 07 08    	jmp    *0x8073008
 804877c:	00 00                	add    %al,(%eax)
	...

08048780 <printf@plt>:
 8048780:	ff 25 0c 30 07 08    	jmp    *0x807300c
 8048786:	68 00 00 00 00       	push   $0x0
 804878b:	e9 e0 ff ff ff       	jmp    8048770 <_init+0x28>

08048790 <fflush@plt>:
 8048790:	ff 25 10 30 07 08    	jmp    *0x8073010
 8048796:	68 08 00 00 00       	push   $0x8
 804879b:	e9 d0 ff ff ff       	jmp    8048770 <_init+0x28>

080487a0 <memmove@plt>:
 80487a0:	ff 25 14 30 07 08    	jmp    *0x8073014
 80487a6:	68 10 00 00 00       	push   $0x10
 80487ab:	e9 c0 ff ff ff       	jmp    8048770 <_init+0x28>

080487b0 <free@plt>:
 80487b0:	ff 25 18 30 07 08    	jmp    *0x8073018
 80487b6:	68 18 00 00 00       	push   $0x18
 80487bb:	e9 b0 ff ff ff       	jmp    8048770 <_init+0x28>

080487c0 <memcpy@plt>:
 80487c0:	ff 25 1c 30 07 08    	jmp    *0x807301c
 80487c6:	68 20 00 00 00       	push   $0x20
 80487cb:	e9 a0 ff ff ff       	jmp    8048770 <_init+0x28>

080487d0 <getchar@plt>:
 80487d0:	ff 25 20 30 07 08    	jmp    *0x8073020
 80487d6:	68 28 00 00 00       	push   $0x28
 80487db:	e9 90 ff ff ff       	jmp    8048770 <_init+0x28>

080487e0 <fgets@plt>:
 80487e0:	ff 25 24 30 07 08    	jmp    *0x8073024
 80487e6:	68 30 00 00 00       	push   $0x30
 80487eb:	e9 80 ff ff ff       	jmp    8048770 <_init+0x28>

080487f0 <tolower@plt>:
 80487f0:	ff 25 28 30 07 08    	jmp    *0x8073028
 80487f6:	68 38 00 00 00       	push   $0x38
 80487fb:	e9 70 ff ff ff       	jmp    8048770 <_init+0x28>

08048800 <memcmp@plt>:
 8048800:	ff 25 2c 30 07 08    	jmp    *0x807302c
 8048806:	68 40 00 00 00       	push   $0x40
 804880b:	e9 60 ff ff ff       	jmp    8048770 <_init+0x28>

08048810 <popen@plt>:
 8048810:	ff 25 30 30 07 08    	jmp    *0x8073030
 8048816:	68 48 00 00 00       	push   $0x48
 804881b:	e9 50 ff ff ff       	jmp    8048770 <_init+0x28>

08048820 <__stack_chk_fail@plt>:
 8048820:	ff 25 34 30 07 08    	jmp    *0x8073034
 8048826:	68 50 00 00 00       	push   $0x50
 804882b:	e9 40 ff ff ff       	jmp    8048770 <_init+0x28>

08048830 <realloc@plt>:
 8048830:	ff 25 38 30 07 08    	jmp    *0x8073038
 8048836:	68 58 00 00 00       	push   $0x58
 804883b:	e9 30 ff ff ff       	jmp    8048770 <_init+0x28>

08048840 <malloc@plt>:
 8048840:	ff 25 3c 30 07 08    	jmp    *0x807303c
 8048846:	68 60 00 00 00       	push   $0x60
 804884b:	e9 20 ff ff ff       	jmp    8048770 <_init+0x28>

08048850 <puts@plt>:
 8048850:	ff 25 40 30 07 08    	jmp    *0x8073040
 8048856:	68 68 00 00 00       	push   $0x68
 804885b:	e9 10 ff ff ff       	jmp    8048770 <_init+0x28>

08048860 <exit@plt>:
 8048860:	ff 25 44 30 07 08    	jmp    *0x8073044
 8048866:	68 70 00 00 00       	push   $0x70
 804886b:	e9 00 ff ff ff       	jmp    8048770 <_init+0x28>

08048870 <pclose@plt>:
 8048870:	ff 25 48 30 07 08    	jmp    *0x8073048
 8048876:	68 78 00 00 00       	push   $0x78
 804887b:	e9 f0 fe ff ff       	jmp    8048770 <_init+0x28>

08048880 <strlen@plt>:
 8048880:	ff 25 4c 30 07 08    	jmp    *0x807304c
 8048886:	68 80 00 00 00       	push   $0x80
 804888b:	e9 e0 fe ff ff       	jmp    8048770 <_init+0x28>

08048890 <__libc_start_main@plt>:
 8048890:	ff 25 50 30 07 08    	jmp    *0x8073050
 8048896:	68 88 00 00 00       	push   $0x88
 804889b:	e9 d0 fe ff ff       	jmp    8048770 <_init+0x28>

080488a0 <write@plt>:
 80488a0:	ff 25 54 30 07 08    	jmp    *0x8073054
 80488a6:	68 90 00 00 00       	push   $0x90
 80488ab:	e9 c0 fe ff ff       	jmp    8048770 <_init+0x28>

080488b0 <backtrace_symbols@plt>:
 80488b0:	ff 25 58 30 07 08    	jmp    *0x8073058
 80488b6:	68 98 00 00 00       	push   $0x98
 80488bb:	e9 b0 fe ff ff       	jmp    8048770 <_init+0x28>

080488c0 <memset@plt>:
 80488c0:	ff 25 5c 30 07 08    	jmp    *0x807305c
 80488c6:	68 a0 00 00 00       	push   $0xa0
 80488cb:	e9 a0 fe ff ff       	jmp    8048770 <_init+0x28>

080488d0 <vsprintf@plt>:
 80488d0:	ff 25 60 30 07 08    	jmp    *0x8073060
 80488d6:	68 a8 00 00 00       	push   $0xa8
 80488db:	e9 90 fe ff ff       	jmp    8048770 <_init+0x28>

080488e0 <toupper@plt>:
 80488e0:	ff 25 64 30 07 08    	jmp    *0x8073064
 80488e6:	68 b0 00 00 00       	push   $0xb0
 80488eb:	e9 80 fe ff ff       	jmp    8048770 <_init+0x28>

080488f0 <vsnprintf@plt>:
 80488f0:	ff 25 68 30 07 08    	jmp    *0x8073068
 80488f6:	68 b8 00 00 00       	push   $0xb8
 80488fb:	e9 70 fe ff ff       	jmp    8048770 <_init+0x28>

08048900 <qsort@plt>:
 8048900:	ff 25 6c 30 07 08    	jmp    *0x807306c
 8048906:	68 c0 00 00 00       	push   $0xc0
 804890b:	e9 60 fe ff ff       	jmp    8048770 <_init+0x28>

08048910 <isatty@plt>:
 8048910:	ff 25 70 30 07 08    	jmp    *0x8073070
 8048916:	68 c8 00 00 00       	push   $0xc8
 804891b:	e9 50 fe ff ff       	jmp    8048770 <_init+0x28>

08048920 <backtrace@plt>:
 8048920:	ff 25 74 30 07 08    	jmp    *0x8073074
 8048926:	68 d0 00 00 00       	push   $0xd0
 804892b:	e9 40 fe ff ff       	jmp    8048770 <_init+0x28>

08048930 <calloc@plt>:
 8048930:	ff 25 78 30 07 08    	jmp    *0x8073078
 8048936:	68 d8 00 00 00       	push   $0xd8
 804893b:	e9 30 fe ff ff       	jmp    8048770 <_init+0x28>

Disassembly of section .plt.got:

08048940 <.plt.got>:
 8048940:	ff 25 fc 2f 07 08    	jmp    *0x8072ffc
 8048946:	66 90                	xchg   %ax,%ax

Disassembly of section .text:

08048950 <_start>:
 8048950:	31 ed                	xor    %ebp,%ebp
 8048952:	5e                   	pop    %esi
 8048953:	89 e1                	mov    %esp,%ecx
 8048955:	83 e4 f0             	and    $0xfffffff0,%esp
 8048958:	50                   	push   %eax
 8048959:	54                   	push   %esp
 804895a:	52                   	push   %edx
 804895b:	68 e0 95 06 08       	push   $0x80695e0
 8048960:	68 80 95 06 08       	push   $0x8069580
 8048965:	51                   	push   %ecx
 8048966:	56                   	push   %esi
 8048967:	68 89 8f 06 08       	push   $0x8068f89
 804896c:	e8 1f ff ff ff       	call   8048890 <__libc_start_main@plt>
 8048971:	f4                   	hlt    
 8048972:	66 90                	xchg   %ax,%ax
 8048974:	66 90                	xchg   %ax,%ax
 8048976:	66 90                	xchg   %ax,%ax
 8048978:	66 90                	xchg   %ax,%ax
 804897a:	66 90                	xchg   %ax,%ax
 804897c:	66 90                	xchg   %ax,%ax
 804897e:	66 90                	xchg   %ax,%ax

08048980 <__x86.get_pc_thunk.bx>:
 8048980:	8b 1c 24             	mov    (%esp),%ebx
 8048983:	c3                   	ret    
 8048984:	66 90                	xchg   %ax,%ax
 8048986:	66 90                	xchg   %ax,%ax
 8048988:	66 90                	xchg   %ax,%ax
 804898a:	66 90                	xchg   %ax,%ax
 804898c:	66 90                	xchg   %ax,%ax
 804898e:	66 90                	xchg   %ax,%ax

08048990 <deregister_tm_clones>:
 8048990:	b8 87 30 07 08       	mov    $0x8073087,%eax
 8048995:	2d 84 30 07 08       	sub    $0x8073084,%eax
 804899a:	83 f8 06             	cmp    $0x6,%eax
 804899d:	76 1a                	jbe    80489b9 <deregister_tm_clones+0x29>
 804899f:	b8 00 00 00 00       	mov    $0x0,%eax
 80489a4:	85 c0                	test   %eax,%eax
 80489a6:	74 11                	je     80489b9 <deregister_tm_clones+0x29>
 80489a8:	55                   	push   %ebp
 80489a9:	89 e5                	mov    %esp,%ebp
 80489ab:	83 ec 14             	sub    $0x14,%esp
 80489ae:	68 84 30 07 08       	push   $0x8073084
 80489b3:	ff d0                	call   *%eax
 80489b5:	83 c4 10             	add    $0x10,%esp
 80489b8:	c9                   	leave  
 80489b9:	f3 c3                	repz ret 
 80489bb:	90                   	nop
 80489bc:	8d 74 26 00          	lea    0x0(%esi,%eiz,1),%esi

080489c0 <register_tm_clones>:
 80489c0:	b8 84 30 07 08       	mov    $0x8073084,%eax
 80489c5:	2d 84 30 07 08       	sub    $0x8073084,%eax
 80489ca:	c1 f8 02             	sar    $0x2,%eax
 80489cd:	89 c2                	mov    %eax,%edx
 80489cf:	c1 ea 1f             	shr    $0x1f,%edx
 80489d2:	01 d0                	add    %edx,%eax
 80489d4:	d1 f8                	sar    %eax
 80489d6:	74 1b                	je     80489f3 <register_tm_clones+0x33>
 80489d8:	ba 00 00 00 00       	mov    $0x0,%edx
 80489dd:	85 d2                	test   %edx,%edx
 80489df:	74 12                	je     80489f3 <register_tm_clones+0x33>
 80489e1:	55                   	push   %ebp
 80489e2:	89 e5                	mov    %esp,%ebp
 80489e4:	83 ec 10             	sub    $0x10,%esp
 80489e7:	50                   	push   %eax
 80489e8:	68 84 30 07 08       	push   $0x8073084
 80489ed:	ff d2                	call   *%edx
 80489ef:	83 c4 10             	add    $0x10,%esp
 80489f2:	c9                   	leave  
 80489f3:	f3 c3                	repz ret 
 80489f5:	8d 74 26 00          	lea    0x0(%esi,%eiz,1),%esi
 80489f9:	8d bc 27 00 00 00 00 	lea    0x0(%edi,%eiz,1),%edi

08048a00 <__do_global_dtors_aux>:
 8048a00:	80 3d 90 30 07 08 00 	cmpb   $0x0,0x8073090
 8048a07:	75 13                	jne    8048a1c <__do_global_dtors_aux+0x1c>
 8048a09:	55                   	push   %ebp
 8048a0a:	89 e5                	mov    %esp,%ebp
 8048a0c:	83 ec 08             	sub    $0x8,%esp
 8048a0f:	e8 7c ff ff ff       	call   8048990 <deregister_tm_clones>
 8048a14:	c6 05 90 30 07 08 01 	movb   $0x1,0x8073090
 8048a1b:	c9                   	leave  
 8048a1c:	f3 c3                	repz ret 
 8048a1e:	66 90                	xchg   %ax,%ax

08048a20 <frame_dummy>:
 8048a20:	b8 08 2f 07 08       	mov    $0x8072f08,%eax
 8048a25:	8b 10                	mov    (%eax),%edx
 8048a27:	85 d2                	test   %edx,%edx
 8048a29:	75 05                	jne    8048a30 <frame_dummy+0x10>
 8048a2b:	eb 93                	jmp    80489c0 <register_tm_clones>
 8048a2d:	8d 76 00             	lea    0x0(%esi),%esi
 8048a30:	ba 00 00 00 00       	mov    $0x0,%edx
 8048a35:	85 d2                	test   %edx,%edx
 8048a37:	74 f2                	je     8048a2b <frame_dummy+0xb>
 8048a39:	55                   	push   %ebp
 8048a3a:	89 e5                	mov    %esp,%ebp
 8048a3c:	83 ec 14             	sub    $0x14,%esp
 8048a3f:	50                   	push   %eax
 8048a40:	ff d2                	call   *%edx
 8048a42:	83 c4 10             	add    $0x10,%esp
 8048a45:	c9                   	leave  
 8048a46:	e9 75 ff ff ff       	jmp    80489c0 <register_tm_clones>

08048a4b <_us32_ge>:
 8048a4b:	55                   	push   %ebp
 8048a4c:	89 e5                	mov    %esp,%ebp
 8048a4e:	81 7d 08 fe ff ff 7f 	cmpl   $0x7ffffffe,0x8(%ebp)
 8048a55:	77 08                	ja     8048a5f <_us32_ge+0x14>
 8048a57:	8b 45 08             	mov    0x8(%ebp),%eax
 8048a5a:	3b 45 0c             	cmp    0xc(%ebp),%eax
 8048a5d:	7c 07                	jl     8048a66 <_us32_ge+0x1b>
 8048a5f:	b8 01 00 00 00       	mov    $0x1,%eax
 8048a64:	eb 05                	jmp    8048a6b <_us32_ge+0x20>
 8048a66:	b8 00 00 00 00       	mov    $0x0,%eax
 8048a6b:	5d                   	pop    %ebp
 8048a6c:	c3                   	ret    

08048a6d <_us32_lt>:
 8048a6d:	55                   	push   %ebp
 8048a6e:	89 e5                	mov    %esp,%ebp
 8048a70:	81 7d 08 fe ff ff 7f 	cmpl   $0x7ffffffe,0x8(%ebp)
 8048a77:	77 0f                	ja     8048a88 <_us32_lt+0x1b>
 8048a79:	8b 45 08             	mov    0x8(%ebp),%eax
 8048a7c:	3b 45 0c             	cmp    0xc(%ebp),%eax
 8048a7f:	7d 07                	jge    8048a88 <_us32_lt+0x1b>
 8048a81:	b8 01 00 00 00       	mov    $0x1,%eax
 8048a86:	eb 05                	jmp    8048a8d <_us32_lt+0x20>
 8048a88:	b8 00 00 00 00       	mov    $0x0,%eax
 8048a8d:	5d                   	pop    %ebp
 8048a8e:	c3                   	ret    

08048a8f <_wyr8>:
 8048a8f:	55                   	push   %ebp
 8048a90:	89 e5                	mov    %esp,%ebp
 8048a92:	83 ec 28             	sub    $0x28,%esp
 8048a95:	8b 45 08             	mov    0x8(%ebp),%eax
 8048a98:	89 45 e4             	mov    %eax,-0x1c(%ebp)
 8048a9b:	65 a1 14 00 00 00    	mov    %gs:0x14,%eax
 8048aa1:	89 45 f4             	mov    %eax,-0xc(%ebp)
 8048aa4:	31 c0                	xor    %eax,%eax
 8048aa6:	8b 45 e4             	mov    -0x1c(%ebp),%eax
 8048aa9:	8b 50 04             	mov    0x4(%eax),%edx
 8048aac:	8b 00                	mov    (%eax),%eax
 8048aae:	89 45 e8             	mov    %eax,-0x18(%ebp)
 8048ab1:	89 55 ec             	mov    %edx,-0x14(%ebp)
 8048ab4:	8b 45 e8             	mov    -0x18(%ebp),%eax
 8048ab7:	8b 55 ec             	mov    -0x14(%ebp),%edx
 8048aba:	8b 4d f4             	mov    -0xc(%ebp),%ecx
 8048abd:	65 33 0d 14 00 00 00 	xor    %gs:0x14,%ecx
 8048ac4:	74 05                	je     8048acb <_wyr8+0x3c>
 8048ac6:	e8 55 fd ff ff       	call   8048820 <__stack_chk_fail@plt>
 8048acb:	c9                   	leave  
 8048acc:	c3                   	ret    

08048acd <_wyr4>:
 8048acd:	55                   	push   %ebp
 8048ace:	89 e5                	mov    %esp,%ebp
 8048ad0:	83 ec 28             	sub    $0x28,%esp
 8048ad3:	8b 45 08             	mov    0x8(%ebp),%eax
 8048ad6:	89 45 e4             	mov    %eax,-0x1c(%ebp)
 8048ad9:	65 a1 14 00 00 00    	mov    %gs:0x14,%eax
 8048adf:	89 45 f4             	mov    %eax,-0xc(%ebp)
 8048ae2:	31 c0                	xor    %eax,%eax
 8048ae4:	8b 45 e4             	mov    -0x1c(%ebp),%eax
 8048ae7:	8b 00                	mov    (%eax),%eax
 8048ae9:	89 45 f0             	mov    %eax,-0x10(%ebp)
 8048aec:	8b 45 f0             	mov    -0x10(%ebp),%eax
 8048aef:	ba 00 00 00 00       	mov    $0x0,%edx
 8048af4:	8b 4d f4             	mov    -0xc(%ebp),%ecx
 8048af7:	65 33 0d 14 00 00 00 	xor    %gs:0x14,%ecx
 8048afe:	74 05                	je     8048b05 <_wyr4+0x38>
 8048b00:	e8 1b fd ff ff       	call   8048820 <__stack_chk_fail@plt>
 8048b05:	c9                   	leave  
 8048b06:	c3                   	ret    

08048b07 <_wyr3>:
 8048b07:	55                   	push   %ebp
 8048b08:	89 e5                	mov    %esp,%ebp
 8048b0a:	56                   	push   %esi
 8048b0b:	53                   	push   %ebx
 8048b0c:	83 ec 10             	sub    $0x10,%esp
 8048b0f:	8b 45 08             	mov    0x8(%ebp),%eax
 8048b12:	0f b6 08             	movzbl (%eax),%ecx
 8048b15:	0f b6 c1             	movzbl %cl,%eax
 8048b18:	ba 00 00 00 00       	mov    $0x0,%edx
 8048b1d:	0f a4 c2 10          	shld   $0x10,%eax,%edx
 8048b21:	c1 e0 10             	shl    $0x10,%eax
 8048b24:	89 45 f0             	mov    %eax,-0x10(%ebp)
 8048b27:	89 55 f4             	mov    %edx,-0xc(%ebp)
 8048b2a:	8b 45 0c             	mov    0xc(%ebp),%eax
 8048b2d:	89 c2                	mov    %eax,%edx
 8048b2f:	d1 ea                	shr    %edx
 8048b31:	8b 45 08             	mov    0x8(%ebp),%eax
 8048b34:	01 d0                	add    %edx,%eax
 8048b36:	0f b6 08             	movzbl (%eax),%ecx
 8048b39:	0f b6 c1             	movzbl %cl,%eax
 8048b3c:	ba 00 00 00 00       	mov    $0x0,%edx
 8048b41:	0f a4 c2 08          	shld   $0x8,%eax,%edx
 8048b45:	c1 e0 08             	shl    $0x8,%eax
 8048b48:	8b 4d f0             	mov    -0x10(%ebp),%ecx
 8048b4b:	09 c1                	or     %eax,%ecx
 8048b4d:	89 cb                	mov    %ecx,%ebx
 8048b4f:	8b 4d f4             	mov    -0xc(%ebp),%ecx
 8048b52:	09 d1                	or     %edx,%ecx
 8048b54:	89 ce                	mov    %ecx,%esi
 8048b56:	8b 45 0c             	mov    0xc(%ebp),%eax
 8048b59:	8d 50 ff             	lea    -0x1(%eax),%edx
 8048b5c:	8b 45 08             	mov    0x8(%ebp),%eax
 8048b5f:	01 d0                	add    %edx,%eax
 8048b61:	0f b6 08             	movzbl (%eax),%ecx
 8048b64:	0f b6 c1             	movzbl %cl,%eax
 8048b67:	ba 00 00 00 00       	mov    $0x0,%edx
 8048b6c:	89 d9                	mov    %ebx,%ecx
 8048b6e:	09 c1                	or     %eax,%ecx
 8048b70:	89 4d e8             	mov    %ecx,-0x18(%ebp)
 8048b73:	09 d6                	or     %edx,%esi
 8048b75:	89 75 ec             	mov    %esi,-0x14(%ebp)
 8048b78:	8b 45 e8             	mov    -0x18(%ebp),%eax
 8048b7b:	8b 55 ec             	mov    -0x14(%ebp),%edx
 8048b7e:	83 c4 10             	add    $0x10,%esp
 8048b81:	5b                   	pop    %ebx
 8048b82:	5e                   	pop    %esi
 8048b83:	5d                   	pop    %ebp
 8048b84:	c3                   	ret    

08048b85 <_wymix128>:
 8048b85:	55                   	push   %ebp
 8048b86:	89 e5                	mov    %esp,%ebp
 8048b88:	53                   	push   %ebx
 8048b89:	83 ec 74             	sub    $0x74,%esp
 8048b8c:	8b 45 08             	mov    0x8(%ebp),%eax
 8048b8f:	89 45 90             	mov    %eax,-0x70(%ebp)
 8048b92:	8b 45 0c             	mov    0xc(%ebp),%eax
 8048b95:	89 45 94             	mov    %eax,-0x6c(%ebp)
 8048b98:	8b 45 10             	mov    0x10(%ebp),%eax
 8048b9b:	89 45 88             	mov    %eax,-0x78(%ebp)
 8048b9e:	8b 45 14             	mov    0x14(%ebp),%eax
 8048ba1:	89 45 8c             	mov    %eax,-0x74(%ebp)
 8048ba4:	8b 45 18             	mov    0x18(%ebp),%eax
 8048ba7:	8b 50 04             	mov    0x4(%eax),%edx
 8048baa:	8b 00                	mov    (%eax),%eax
 8048bac:	31 45 90             	xor    %eax,-0x70(%ebp)
 8048baf:	31 55 94             	xor    %edx,-0x6c(%ebp)
 8048bb2:	8b 45 1c             	mov    0x1c(%ebp),%eax
 8048bb5:	8b 50 04             	mov    0x4(%eax),%edx
 8048bb8:	8b 00                	mov    (%eax),%eax
 8048bba:	31 45 88             	xor    %eax,-0x78(%ebp)
 8048bbd:	31 55 8c             	xor    %edx,-0x74(%ebp)
 8048bc0:	8b 45 90             	mov    -0x70(%ebp),%eax
 8048bc3:	8b 55 94             	mov    -0x6c(%ebp),%edx
 8048bc6:	89 d0                	mov    %edx,%eax
 8048bc8:	31 d2                	xor    %edx,%edx
 8048bca:	89 45 98             	mov    %eax,-0x68(%ebp)
 8048bcd:	89 55 9c             	mov    %edx,-0x64(%ebp)
 8048bd0:	8b 45 88             	mov    -0x78(%ebp),%eax
 8048bd3:	8b 55 8c             	mov    -0x74(%ebp),%edx
 8048bd6:	89 d0                	mov    %edx,%eax
 8048bd8:	31 d2                	xor    %edx,%edx
 8048bda:	89 45 a0             	mov    %eax,-0x60(%ebp)
 8048bdd:	89 55 a4             	mov    %edx,-0x5c(%ebp)
 8048be0:	8b 45 90             	mov    -0x70(%ebp),%eax
 8048be3:	80 e4 ff             	and    $0xff,%ah
 8048be6:	89 45 a8             	mov    %eax,-0x58(%ebp)
 8048be9:	8b 45 94             	mov    -0x6c(%ebp),%eax
 8048bec:	83 e0 00             	and    $0x0,%eax
 8048bef:	89 45 ac             	mov    %eax,-0x54(%ebp)
 8048bf2:	8b 45 88             	mov    -0x78(%ebp),%eax
 8048bf5:	80 e4 ff             	and    $0xff,%ah
 8048bf8:	89 45 b0             	mov    %eax,-0x50(%ebp)
 8048bfb:	8b 45 8c             	mov    -0x74(%ebp),%eax
 8048bfe:	83 e0 00             	and    $0x0,%eax
 8048c01:	89 45 b4             	mov    %eax,-0x4c(%ebp)
 8048c04:	8b 45 9c             	mov    -0x64(%ebp),%eax
 8048c07:	0f af 45 a0          	imul   -0x60(%ebp),%eax
 8048c0b:	89 c2                	mov    %eax,%edx
 8048c0d:	8b 45 a4             	mov    -0x5c(%ebp),%eax
 8048c10:	0f af 45 98          	imul   -0x68(%ebp),%eax
 8048c14:	8d 0c 02             	lea    (%edx,%eax,1),%ecx
 8048c17:	8b 45 a0             	mov    -0x60(%ebp),%eax
 8048c1a:	f7 65 98             	mull   -0x68(%ebp)
 8048c1d:	01 d1                	add    %edx,%ecx
 8048c1f:	89 ca                	mov    %ecx,%edx
 8048c21:	89 45 b8             	mov    %eax,-0x48(%ebp)
 8048c24:	89 55 bc             	mov    %edx,-0x44(%ebp)
 8048c27:	89 45 b8             	mov    %eax,-0x48(%ebp)
 8048c2a:	89 55 bc             	mov    %edx,-0x44(%ebp)
 8048c2d:	8b 45 9c             	mov    -0x64(%ebp),%eax
 8048c30:	0f af 45 b0          	imul   -0x50(%ebp),%eax
 8048c34:	89 c2                	mov    %eax,%edx
 8048c36:	8b 45 b4             	mov    -0x4c(%ebp),%eax
 8048c39:	0f af 45 98          	imul   -0x68(%ebp),%eax
 8048c3d:	8d 0c 02             	lea    (%edx,%eax,1),%ecx
 8048c40:	8b 45 b0             	mov    -0x50(%ebp),%eax
 8048c43:	f7 65 98             	mull   -0x68(%ebp)
 8048c46:	01 d1                	add    %edx,%ecx
 8048c48:	89 ca                	mov    %ecx,%edx
 8048c4a:	89 45 c0             	mov    %eax,-0x40(%ebp)
 8048c4d:	89 55 c4             	mov    %edx,-0x3c(%ebp)
 8048c50:	89 45 c0             	mov    %eax,-0x40(%ebp)
 8048c53:	89 55 c4             	mov    %edx,-0x3c(%ebp)
 8048c56:	8b 45 a4             	mov    -0x5c(%ebp),%eax
 8048c59:	0f af 45 a8          	imul   -0x58(%ebp),%eax
 8048c5d:	89 c2                	mov    %eax,%edx
 8048c5f:	8b 45 ac             	mov    -0x54(%ebp),%eax
 8048c62:	0f af 45 a0          	imul   -0x60(%ebp),%eax
 8048c66:	8d 0c 02             	lea    (%edx,%eax,1),%ecx
 8048c69:	8b 45 a8             	mov    -0x58(%ebp),%eax
 8048c6c:	f7 65 a0             	mull   -0x60(%ebp)
 8048c6f:	01 d1                	add    %edx,%ecx
 8048c71:	89 ca                	mov    %ecx,%edx
 8048c73:	89 45 c8             	mov    %eax,-0x38(%ebp)
 8048c76:	89 55 cc             	mov    %edx,-0x34(%ebp)
 8048c79:	89 45 c8             	mov    %eax,-0x38(%ebp)
 8048c7c:	89 55 cc             	mov    %edx,-0x34(%ebp)
 8048c7f:	8b 45 ac             	mov    -0x54(%ebp),%eax
 8048c82:	0f af 45 b0          	imul   -0x50(%ebp),%eax
 8048c86:	89 c2                	mov    %eax,%edx
 8048c88:	8b 45 b4             	mov    -0x4c(%ebp),%eax
 8048c8b:	0f af 45 a8          	imul   -0x58(%ebp),%eax
 8048c8f:	8d 0c 02             	lea    (%edx,%eax,1),%ecx
 8048c92:	8b 45 b0             	mov    -0x50(%ebp),%eax
 8048c95:	f7 65 a8             	mull   -0x58(%ebp)
 8048c98:	01 d1                	add    %edx,%ecx
 8048c9a:	89 ca                	mov    %ecx,%edx
 8048c9c:	89 45 d0             	mov    %eax,-0x30(%ebp)
 8048c9f:	89 55 d4             	mov    %edx,-0x2c(%ebp)
 8048ca2:	89 45 d0             	mov    %eax,-0x30(%ebp)
 8048ca5:	89 55 d4             	mov    %edx,-0x2c(%ebp)
 8048ca8:	8b 45 c0             	mov    -0x40(%ebp),%eax
 8048cab:	8b 55 c4             	mov    -0x3c(%ebp),%edx
 8048cae:	89 c2                	mov    %eax,%edx
 8048cb0:	b8 00 00 00 00       	mov    $0x0,%eax
 8048cb5:	89 c1                	mov    %eax,%ecx
 8048cb7:	89 d3                	mov    %edx,%ebx
 8048cb9:	8b 45 d0             	mov    -0x30(%ebp),%eax
 8048cbc:	8b 55 d4             	mov    -0x2c(%ebp),%edx
 8048cbf:	01 c8                	add    %ecx,%eax
 8048cc1:	11 da                	adc    %ebx,%edx
 8048cc3:	89 45 d8             	mov    %eax,-0x28(%ebp)
 8048cc6:	89 55 dc             	mov    %edx,-0x24(%ebp)
 8048cc9:	b9 01 00 00 00       	mov    $0x1,%ecx
 8048cce:	8b 45 d8             	mov    -0x28(%ebp),%eax
 8048cd1:	8b 55 dc             	mov    -0x24(%ebp),%edx
 8048cd4:	3b 55 d4             	cmp    -0x2c(%ebp),%edx
 8048cd7:	72 0f                	jb     8048ce8 <_wymix128+0x163>
 8048cd9:	3b 55 d4             	cmp    -0x2c(%ebp),%edx
 8048cdc:	77 05                	ja     8048ce3 <_wymix128+0x15e>
 8048cde:	3b 45 d0             	cmp    -0x30(%ebp),%eax
 8048ce1:	72 05                	jb     8048ce8 <_wymix128+0x163>
 8048ce3:	b9 00 00 00 00       	mov    $0x0,%ecx
 8048ce8:	0f b6 c1             	movzbl %cl,%eax
 8048ceb:	89 45 e0             	mov    %eax,-0x20(%ebp)
 8048cee:	c7 45 e4 00 00 00 00 	movl   $0x0,-0x1c(%ebp)
 8048cf5:	8b 45 c8             	mov    -0x38(%ebp),%eax
 8048cf8:	8b 55 cc             	mov    -0x34(%ebp),%edx
 8048cfb:	89 c2                	mov    %eax,%edx
 8048cfd:	b8 00 00 00 00       	mov    $0x0,%eax
 8048d02:	89 c1                	mov    %eax,%ecx
 8048d04:	89 d3                	mov    %edx,%ebx
 8048d06:	8b 45 d8             	mov    -0x28(%ebp),%eax
 8048d09:	8b 55 dc             	mov    -0x24(%ebp),%edx
 8048d0c:	01 c8                	add    %ecx,%eax
 8048d0e:	11 da                	adc    %ebx,%edx
 8048d10:	89 45 e8             	mov    %eax,-0x18(%ebp)
 8048d13:	89 55 ec             	mov    %edx,-0x14(%ebp)
 8048d16:	b9 01 00 00 00       	mov    $0x1,%ecx
 8048d1b:	8b 45 e8             	mov    -0x18(%ebp),%eax
 8048d1e:	8b 55 ec             	mov    -0x14(%ebp),%edx
 8048d21:	3b 55 dc             	cmp    -0x24(%ebp),%edx
 8048d24:	72 0f                	jb     8048d35 <_wymix128+0x1b0>
 8048d26:	3b 55 dc             	cmp    -0x24(%ebp),%edx
 8048d29:	77 05                	ja     8048d30 <_wymix128+0x1ab>
 8048d2b:	3b 45 d8             	cmp    -0x28(%ebp),%eax
 8048d2e:	72 05                	jb     8048d35 <_wymix128+0x1b0>
 8048d30:	b9 00 00 00 00       	mov    $0x0,%ecx
 8048d35:	0f b6 c1             	movzbl %cl,%eax
 8048d38:	ba 00 00 00 00       	mov    $0x0,%edx
 8048d3d:	01 45 e0             	add    %eax,-0x20(%ebp)
 8048d40:	11 55 e4             	adc    %edx,-0x1c(%ebp)
 8048d43:	8b 45 c0             	mov    -0x40(%ebp),%eax
 8048d46:	8b 55 c4             	mov    -0x3c(%ebp),%edx
 8048d49:	89 d0                	mov    %edx,%eax
 8048d4b:	31 d2                	xor    %edx,%edx
 8048d4d:	89 c1                	mov    %eax,%ecx
 8048d4f:	89 d3                	mov    %edx,%ebx
 8048d51:	8b 45 b8             	mov    -0x48(%ebp),%eax
 8048d54:	8b 55 bc             	mov    -0x44(%ebp),%edx
 8048d57:	01 c1                	add    %eax,%ecx
 8048d59:	11 d3                	adc    %edx,%ebx
 8048d5b:	8b 45 c8             	mov    -0x38(%ebp),%eax
 8048d5e:	8b 55 cc             	mov    -0x34(%ebp),%edx
 8048d61:	89 d0                	mov    %edx,%eax
 8048d63:	31 d2                	xor    %edx,%edx
 8048d65:	01 c1                	add    %eax,%ecx
 8048d67:	11 d3                	adc    %edx,%ebx
 8048d69:	8b 45 e0             	mov    -0x20(%ebp),%eax
 8048d6c:	8b 55 e4             	mov    -0x1c(%ebp),%edx
 8048d6f:	01 c8                	add    %ecx,%eax
 8048d71:	11 da                	adc    %ebx,%edx
 8048d73:	89 45 f0             	mov    %eax,-0x10(%ebp)
 8048d76:	89 55 f4             	mov    %edx,-0xc(%ebp)
 8048d79:	8b 4d 18             	mov    0x18(%ebp),%ecx
 8048d7c:	8b 45 e8             	mov    -0x18(%ebp),%eax
 8048d7f:	8b 55 ec             	mov    -0x14(%ebp),%edx
 8048d82:	89 01                	mov    %eax,(%ecx)
 8048d84:	89 51 04             	mov    %edx,0x4(%ecx)
 8048d87:	8b 4d 1c             	mov    0x1c(%ebp),%ecx
 8048d8a:	8b 45 f0             	mov    -0x10(%ebp),%eax
 8048d8d:	8b 55 f4             	mov    -0xc(%ebp),%edx
 8048d90:	89 01                	mov    %eax,(%ecx)
 8048d92:	89 51 04             	mov    %edx,0x4(%ecx)
 8048d95:	90                   	nop
 8048d96:	83 c4 74             	add    $0x74,%esp
 8048d99:	5b                   	pop    %ebx
 8048d9a:	5d                   	pop    %ebp
 8048d9b:	c3                   	ret    

08048d9c <wyhash>:
 8048d9c:	55                   	push   %ebp
 8048d9d:	89 e5                	mov    %esp,%ebp
 8048d9f:	56                   	push   %esi
 8048da0:	53                   	push   %ebx
 8048da1:	83 ec 70             	sub    $0x70,%esp
 8048da4:	8b 45 08             	mov    0x8(%ebp),%eax
 8048da7:	89 45 d4             	mov    %eax,-0x2c(%ebp)
 8048daa:	8b 45 0c             	mov    0xc(%ebp),%eax
 8048dad:	89 45 c8             	mov    %eax,-0x38(%ebp)
 8048db0:	8b 45 10             	mov    0x10(%ebp),%eax
 8048db3:	89 45 cc             	mov    %eax,-0x34(%ebp)
 8048db6:	8b 45 14             	mov    0x14(%ebp),%eax
 8048db9:	89 45 c0             	mov    %eax,-0x40(%ebp)
 8048dbc:	8b 45 18             	mov    0x18(%ebp),%eax
 8048dbf:	89 45 c4             	mov    %eax,-0x3c(%ebp)
 8048dc2:	65 a1 14 00 00 00    	mov    %gs:0x14,%eax
 8048dc8:	89 45 f4             	mov    %eax,-0xc(%ebp)
 8048dcb:	31 c0                	xor    %eax,%eax
 8048dcd:	8b 45 d4             	mov    -0x2c(%ebp),%eax
 8048dd0:	89 45 dc             	mov    %eax,-0x24(%ebp)
 8048dd3:	8b 45 c8             	mov    -0x38(%ebp),%eax
 8048dd6:	8b 55 cc             	mov    -0x34(%ebp),%edx
 8048dd9:	89 45 e8             	mov    %eax,-0x18(%ebp)
 8048ddc:	89 55 ec             	mov    %edx,-0x14(%ebp)
 8048ddf:	8b 45 c0             	mov    -0x40(%ebp),%eax
 8048de2:	8b 55 c4             	mov    -0x3c(%ebp),%edx
 8048de5:	89 45 e0             	mov    %eax,-0x20(%ebp)
 8048de8:	89 55 e4             	mov    %edx,-0x1c(%ebp)
 8048deb:	b8 01 00 00 00       	mov    $0x1,%eax
 8048df0:	83 7d ec 00          	cmpl   $0x0,-0x14(%ebp)
 8048df4:	72 11                	jb     8048e07 <wyhash+0x6b>
 8048df6:	83 7d ec 00          	cmpl   $0x0,-0x14(%ebp)
 8048dfa:	77 06                	ja     8048e02 <wyhash+0x66>
 8048dfc:	83 7d e8 10          	cmpl   $0x10,-0x18(%ebp)
 8048e00:	76 05                	jbe    8048e07 <wyhash+0x6b>
 8048e02:	b8 00 00 00 00       	mov    $0x0,%eax
 8048e07:	0f b6 c0             	movzbl %al,%eax
 8048e0a:	85 c0                	test   %eax,%eax
 8048e0c:	0f 84 f9 01 00 00    	je     804900b <wyhash+0x26f>
 8048e12:	b8 01 00 00 00       	mov    $0x1,%eax
 8048e17:	83 7d ec 00          	cmpl   $0x0,-0x14(%ebp)
 8048e1b:	72 11                	jb     8048e2e <wyhash+0x92>
 8048e1d:	83 7d ec 00          	cmpl   $0x0,-0x14(%ebp)
 8048e21:	77 06                	ja     8048e29 <wyhash+0x8d>
 8048e23:	83 7d e8 08          	cmpl   $0x8,-0x18(%ebp)
 8048e27:	76 05                	jbe    8048e2e <wyhash+0x92>
 8048e29:	b8 00 00 00 00       	mov    $0x0,%eax
 8048e2e:	0f b6 c0             	movzbl %al,%eax
 8048e31:	85 c0                	test   %eax,%eax
 8048e33:	0f 84 15 01 00 00    	je     8048f4e <wyhash+0x1b2>
 8048e39:	b8 01 00 00 00       	mov    $0x1,%eax
 8048e3e:	83 7d ec 00          	cmpl   $0x0,-0x14(%ebp)
 8048e42:	77 11                	ja     8048e55 <wyhash+0xb9>
 8048e44:	83 7d ec 00          	cmpl   $0x0,-0x14(%ebp)
 8048e48:	72 06                	jb     8048e50 <wyhash+0xb4>
 8048e4a:	83 7d e8 03          	cmpl   $0x3,-0x18(%ebp)
 8048e4e:	77 05                	ja     8048e55 <wyhash+0xb9>
 8048e50:	b8 00 00 00 00       	mov    $0x0,%eax
 8048e55:	0f b6 c0             	movzbl %al,%eax
 8048e58:	85 c0                	test   %eax,%eax
 8048e5a:	74 73                	je     8048ecf <wyhash+0x133>
 8048e5c:	8b 45 e8             	mov    -0x18(%ebp),%eax
 8048e5f:	8d 50 fc             	lea    -0x4(%eax),%edx
 8048e62:	8b 45 dc             	mov    -0x24(%ebp),%eax
 8048e65:	01 d0                	add    %edx,%eax
 8048e67:	83 ec 0c             	sub    $0xc,%esp
 8048e6a:	50                   	push   %eax
 8048e6b:	e8 5d fc ff ff       	call   8048acd <_wyr4>
 8048e70:	83 c4 10             	add    $0x10,%esp
 8048e73:	89 c6                	mov    %eax,%esi
 8048e75:	81 f6 db 28 b4 a0    	xor    $0xa0b428db,%esi
 8048e7b:	89 75 b0             	mov    %esi,-0x50(%ebp)
 8048e7e:	89 d0                	mov    %edx,%eax
 8048e80:	35 d1 7e 03 e7       	xor    $0xe7037ed1,%eax
 8048e85:	89 45 b4             	mov    %eax,-0x4c(%ebp)
 8048e88:	83 ec 0c             	sub    $0xc,%esp
 8048e8b:	ff 75 dc             	pushl  -0x24(%ebp)
 8048e8e:	e8 3a fc ff ff       	call   8048acd <_wyr4>
 8048e93:	83 c4 10             	add    $0x10,%esp
 8048e96:	89 c1                	mov    %eax,%ecx
 8048e98:	81 f1 2f 64 bd 78    	xor    $0x78bd642f,%ecx
 8048e9e:	89 4d a8             	mov    %ecx,-0x58(%ebp)
 8048ea1:	89 d0                	mov    %edx,%eax
 8048ea3:	35 64 1d 76 a0       	xor    $0xa0761d64,%eax
 8048ea8:	89 45 ac             	mov    %eax,-0x54(%ebp)
 8048eab:	83 ec 08             	sub    $0x8,%esp
 8048eae:	8d 45 e0             	lea    -0x20(%ebp),%eax
 8048eb1:	50                   	push   %eax
 8048eb2:	8d 45 c0             	lea    -0x40(%ebp),%eax
 8048eb5:	50                   	push   %eax
 8048eb6:	ff 75 b4             	pushl  -0x4c(%ebp)
 8048eb9:	ff 75 b0             	pushl  -0x50(%ebp)
 8048ebc:	ff 75 ac             	pushl  -0x54(%ebp)
 8048ebf:	ff 75 a8             	pushl  -0x58(%ebp)
 8048ec2:	e8 be fc ff ff       	call   8048b85 <_wymix128>
 8048ec7:	83 c4 20             	add    $0x20,%esp
 8048eca:	e9 ed 00 00 00       	jmp    8048fbc <wyhash+0x220>
 8048ecf:	8b 45 e8             	mov    -0x18(%ebp),%eax
 8048ed2:	85 c0                	test   %eax,%eax
 8048ed4:	74 4f                	je     8048f25 <wyhash+0x189>
 8048ed6:	8b 45 e8             	mov    -0x18(%ebp),%eax
 8048ed9:	83 ec 08             	sub    $0x8,%esp
 8048edc:	50                   	push   %eax
 8048edd:	ff 75 dc             	pushl  -0x24(%ebp)
 8048ee0:	e8 22 fc ff ff       	call   8048b07 <_wyr3>
 8048ee5:	83 c4 10             	add    $0x10,%esp
 8048ee8:	89 c3                	mov    %eax,%ebx
 8048eea:	81 f3 2f 64 bd 78    	xor    $0x78bd642f,%ebx
 8048ef0:	89 5d a0             	mov    %ebx,-0x60(%ebp)
 8048ef3:	89 d0                	mov    %edx,%eax
 8048ef5:	35 64 1d 76 a0       	xor    $0xa0761d64,%eax
 8048efa:	89 45 a4             	mov    %eax,-0x5c(%ebp)
 8048efd:	83 ec 08             	sub    $0x8,%esp
 8048f00:	8d 45 e0             	lea    -0x20(%ebp),%eax
 8048f03:	50                   	push   %eax
 8048f04:	8d 45 c0             	lea    -0x40(%ebp),%eax
 8048f07:	50                   	push   %eax
 8048f08:	68 d1 7e 03 e7       	push   $0xe7037ed1
 8048f0d:	68 db 28 b4 a0       	push   $0xa0b428db
 8048f12:	ff 75 a4             	pushl  -0x5c(%ebp)
 8048f15:	ff 75 a0             	pushl  -0x60(%ebp)
 8048f18:	e8 68 fc ff ff       	call   8048b85 <_wymix128>
 8048f1d:	83 c4 20             	add    $0x20,%esp
 8048f20:	e9 97 00 00 00       	jmp    8048fbc <wyhash+0x220>
 8048f25:	83 ec 08             	sub    $0x8,%esp
 8048f28:	8d 45 e0             	lea    -0x20(%ebp),%eax
 8048f2b:	50                   	push   %eax
 8048f2c:	8d 45 c0             	lea    -0x40(%ebp),%eax
 8048f2f:	50                   	push   %eax
 8048f30:	68 d1 7e 03 e7       	push   $0xe7037ed1
 8048f35:	68 db 28 b4 a0       	push   $0xa0b428db
 8048f3a:	68 64 1d 76 a0       	push   $0xa0761d64
 8048f3f:	68 2f 64 bd 78       	push   $0x78bd642f
 8048f44:	e8 3c fc ff ff       	call   8048b85 <_wymix128>
 8048f49:	83 c4 20             	add    $0x20,%esp
 8048f4c:	eb 6e                	jmp    8048fbc <wyhash+0x220>
 8048f4e:	8b 45 e8             	mov    -0x18(%ebp),%eax
 8048f51:	8d 50 f8             	lea    -0x8(%eax),%edx
 8048f54:	8b 45 dc             	mov    -0x24(%ebp),%eax
 8048f57:	01 d0                	add    %edx,%eax
 8048f59:	83 ec 0c             	sub    $0xc,%esp
 8048f5c:	50                   	push   %eax
 8048f5d:	e8 2d fb ff ff       	call   8048a8f <_wyr8>
 8048f62:	83 c4 10             	add    $0x10,%esp
 8048f65:	89 c6                	mov    %eax,%esi
 8048f67:	81 f6 db 28 b4 a0    	xor    $0xa0b428db,%esi
 8048f6d:	89 75 98             	mov    %esi,-0x68(%ebp)
 8048f70:	89 d0                	mov    %edx,%eax
 8048f72:	35 d1 7e 03 e7       	xor    $0xe7037ed1,%eax
 8048f77:	89 45 9c             	mov    %eax,-0x64(%ebp)
 8048f7a:	83 ec 0c             	sub    $0xc,%esp
 8048f7d:	ff 75 dc             	pushl  -0x24(%ebp)
 8048f80:	e8 0a fb ff ff       	call   8048a8f <_wyr8>
 8048f85:	83 c4 10             	add    $0x10,%esp
 8048f88:	89 c1                	mov    %eax,%ecx
 8048f8a:	81 f1 2f 64 bd 78    	xor    $0x78bd642f,%ecx
 8048f90:	89 4d 90             	mov    %ecx,-0x70(%ebp)
 8048f93:	89 d0                	mov    %edx,%eax
 8048f95:	35 64 1d 76 a0       	xor    $0xa0761d64,%eax
 8048f9a:	89 45 94             	mov    %eax,-0x6c(%ebp)
 8048f9d:	83 ec 08             	sub    $0x8,%esp
 8048fa0:	8d 45 e0             	lea    -0x20(%ebp),%eax
 8048fa3:	50                   	push   %eax
 8048fa4:	8d 45 c0             	lea    -0x40(%ebp),%eax
 8048fa7:	50                   	push   %eax
 8048fa8:	ff 75 9c             	pushl  -0x64(%ebp)
 8048fab:	ff 75 98             	pushl  -0x68(%ebp)
 8048fae:	ff 75 94             	pushl  -0x6c(%ebp)
 8048fb1:	ff 75 90             	pushl  -0x70(%ebp)
 8048fb4:	e8 cc fb ff ff       	call   8048b85 <_wymix128>
 8048fb9:	83 c4 20             	add    $0x20,%esp
 8048fbc:	83 ec 08             	sub    $0x8,%esp
 8048fbf:	8d 45 e0             	lea    -0x20(%ebp),%eax
 8048fc2:	50                   	push   %eax
 8048fc3:	8d 45 c0             	lea    -0x40(%ebp),%eax
 8048fc6:	50                   	push   %eax
 8048fc7:	68 64 1d 76 a0       	push   $0xa0761d64
 8048fcc:	68 2f 64 bd 78       	push   $0x78bd642f
 8048fd1:	ff 75 cc             	pushl  -0x34(%ebp)
 8048fd4:	ff 75 c8             	pushl  -0x38(%ebp)
 8048fd7:	e8 a9 fb ff ff       	call   8048b85 <_wymix128>
 8048fdc:	83 c4 20             	add    $0x20,%esp
 8048fdf:	8b 4d c0             	mov    -0x40(%ebp),%ecx
 8048fe2:	8b 5d c4             	mov    -0x3c(%ebp),%ebx
 8048fe5:	8b 45 e0             	mov    -0x20(%ebp),%eax
 8048fe8:	8b 55 e4             	mov    -0x1c(%ebp),%edx
 8048feb:	89 ce                	mov    %ecx,%esi
 8048fed:	31 c6                	xor    %eax,%esi
 8048fef:	89 75 88             	mov    %esi,-0x78(%ebp)
 8048ff2:	31 d3                	xor    %edx,%ebx
 8048ff4:	89 5d 8c             	mov    %ebx,-0x74(%ebp)
 8048ff7:	8b 45 88             	mov    -0x78(%ebp),%eax
 8048ffa:	8b 55 8c             	mov    -0x74(%ebp),%edx
 8048ffd:	8b 5d f4             	mov    -0xc(%ebp),%ebx
 8049000:	65 33 1d 14 00 00 00 	xor    %gs:0x14,%ebx
 8049007:	74 7b                	je     8049084 <wyhash+0x2e8>
 8049009:	eb 74                	jmp    804907f <wyhash+0x2e3>
 804900b:	8b 45 dc             	mov    -0x24(%ebp),%eax
 804900e:	83 c0 08             	add    $0x8,%eax
 8049011:	83 ec 0c             	sub    $0xc,%esp
 8049014:	50                   	push   %eax
 8049015:	e8 75 fa ff ff       	call   8048a8f <_wyr8>
 804901a:	83 c4 10             	add    $0x10,%esp
 804901d:	89 c1                	mov    %eax,%ecx
 804901f:	81 f1 db 28 b4 a0    	xor    $0xa0b428db,%ecx
 8049025:	89 4d b8             	mov    %ecx,-0x48(%ebp)
 8049028:	89 d0                	mov    %edx,%eax
 804902a:	35 d1 7e 03 e7       	xor    $0xe7037ed1,%eax
 804902f:	89 45 bc             	mov    %eax,-0x44(%ebp)
 8049032:	83 ec 0c             	sub    $0xc,%esp
 8049035:	ff 75 dc             	pushl  -0x24(%ebp)
 8049038:	e8 52 fa ff ff       	call   8048a8f <_wyr8>
 804903d:	83 c4 10             	add    $0x10,%esp
 8049040:	89 c1                	mov    %eax,%ecx
 8049042:	81 f1 2f 64 bd 78    	xor    $0x78bd642f,%ecx
 8049048:	89 cb                	mov    %ecx,%ebx
 804904a:	89 d0                	mov    %edx,%eax
 804904c:	35 64 1d 76 a0       	xor    $0xa0761d64,%eax
 8049051:	89 c6                	mov    %eax,%esi
 8049053:	83 ec 08             	sub    $0x8,%esp
 8049056:	8d 45 e0             	lea    -0x20(%ebp),%eax
 8049059:	50                   	push   %eax
 804905a:	8d 45 c0             	lea    -0x40(%ebp),%eax
 804905d:	50                   	push   %eax
 804905e:	ff 75 bc             	pushl  -0x44(%ebp)
 8049061:	ff 75 b8             	pushl  -0x48(%ebp)
 8049064:	56                   	push   %esi
 8049065:	53                   	push   %ebx
 8049066:	e8 1a fb ff ff       	call   8048b85 <_wymix128>
 804906b:	83 c4 20             	add    $0x20,%esp
 804906e:	83 45 e8 f0          	addl   $0xfffffff0,-0x18(%ebp)
 8049072:	83 55 ec ff          	adcl   $0xffffffff,-0x14(%ebp)
 8049076:	83 45 dc 10          	addl   $0x10,-0x24(%ebp)
 804907a:	e9 6c fd ff ff       	jmp    8048deb <wyhash+0x4f>
 804907f:	e8 9c f7 ff ff       	call   8048820 <__stack_chk_fail@plt>
 8049084:	8d 65 f8             	lea    -0x8(%ebp),%esp
 8049087:	5b                   	pop    %ebx
 8049088:	5e                   	pop    %esi
 8049089:	5d                   	pop    %ebp
 804908a:	c3                   	ret    

0804908b <wyhash64>:
 804908b:	55                   	push   %ebp
 804908c:	89 e5                	mov    %esp,%ebp
 804908e:	57                   	push   %edi
 804908f:	56                   	push   %esi
 8049090:	53                   	push   %ebx
 8049091:	83 ec 1c             	sub    $0x1c,%esp
 8049094:	8b 45 08             	mov    0x8(%ebp),%eax
 8049097:	89 45 e8             	mov    %eax,-0x18(%ebp)
 804909a:	8b 45 0c             	mov    0xc(%ebp),%eax
 804909d:	89 45 ec             	mov    %eax,-0x14(%ebp)
 80490a0:	8b 45 10             	mov    0x10(%ebp),%eax
 80490a3:	89 45 e0             	mov    %eax,-0x20(%ebp)
 80490a6:	8b 45 14             	mov    0x14(%ebp),%eax
 80490a9:	89 45 e4             	mov    %eax,-0x1c(%ebp)
 80490ac:	8d 45 e0             	lea    -0x20(%ebp),%eax
 80490af:	50                   	push   %eax
 80490b0:	8d 45 e8             	lea    -0x18(%ebp),%eax
 80490b3:	50                   	push   %eax
 80490b4:	68 d1 7e 03 e7       	push   $0xe7037ed1
 80490b9:	68 db 28 b4 a0       	push   $0xa0b428db
 80490be:	68 64 1d 76 a0       	push   $0xa0761d64
 80490c3:	68 2f 64 bd 78       	push   $0x78bd642f
 80490c8:	e8 b8 fa ff ff       	call   8048b85 <_wymix128>
 80490cd:	83 c4 18             	add    $0x18,%esp
 80490d0:	8d 45 e0             	lea    -0x20(%ebp),%eax
 80490d3:	50                   	push   %eax
 80490d4:	8d 45 e8             	lea    -0x18(%ebp),%eax
 80490d7:	50                   	push   %eax
 80490d8:	6a 00                	push   $0x0
 80490da:	6a 00                	push   $0x0
 80490dc:	6a 00                	push   $0x0
 80490de:	6a 00                	push   $0x0
 80490e0:	e8 a0 fa ff ff       	call   8048b85 <_wymix128>
 80490e5:	83 c4 18             	add    $0x18,%esp
 80490e8:	8b 4d e8             	mov    -0x18(%ebp),%ecx
 80490eb:	8b 5d ec             	mov    -0x14(%ebp),%ebx
 80490ee:	8b 45 e0             	mov    -0x20(%ebp),%eax
 80490f1:	8b 55 e4             	mov    -0x1c(%ebp),%edx
 80490f4:	89 45 d8             	mov    %eax,-0x28(%ebp)
 80490f7:	89 55 dc             	mov    %edx,-0x24(%ebp)
 80490fa:	89 c8                	mov    %ecx,%eax
 80490fc:	33 45 d8             	xor    -0x28(%ebp),%eax
 80490ff:	89 c6                	mov    %eax,%esi
 8049101:	89 d8                	mov    %ebx,%eax
 8049103:	33 45 dc             	xor    -0x24(%ebp),%eax
 8049106:	89 c7                	mov    %eax,%edi
 8049108:	89 f0                	mov    %esi,%eax
 804910a:	89 fa                	mov    %edi,%edx
 804910c:	8d 65 f4             	lea    -0xc(%ebp),%esp
 804910f:	5b                   	pop    %ebx
 8049110:	5e                   	pop    %esi
 8049111:	5f                   	pop    %edi
 8049112:	5d                   	pop    %ebp
 8049113:	c3                   	ret    

08049114 <memfreedup>:
 8049114:	55                   	push   %ebp
 8049115:	89 e5                	mov    %esp,%ebp
 8049117:	83 ec 08             	sub    $0x8,%esp
 804911a:	83 ec 0c             	sub    $0xc,%esp
 804911d:	ff 75 08             	pushl  0x8(%ebp)
 8049120:	e8 8b f6 ff ff       	call   80487b0 <free@plt>
 8049125:	83 c4 10             	add    $0x10,%esp
 8049128:	83 ec 08             	sub    $0x8,%esp
 804912b:	ff 75 10             	pushl  0x10(%ebp)
 804912e:	ff 75 0c             	pushl  0xc(%ebp)
 8049131:	e8 90 e9 00 00       	call   8057ac6 <memdup>
 8049136:	83 c4 10             	add    $0x10,%esp
 8049139:	c9                   	leave  
 804913a:	c3                   	ret    

0804913b <vinit_string_literals>:
 804913b:	55                   	push   %ebp
 804913c:	89 e5                	mov    %esp,%ebp
 804913e:	c7 05 94 31 07 08 20 	movl   $0x8069620,0x8073194
 8049145:	96 06 08 
 8049148:	c7 05 98 31 07 08 0e 	movl   $0xe,0x8073198
 804914f:	00 00 00 
 8049152:	c7 05 9c 31 07 08 01 	movl   $0x1,0x807319c
 8049159:	00 00 00 
 804915c:	c7 05 c0 31 07 08 2f 	movl   $0x806962f,0x80731c0
 8049163:	96 06 08 
 8049166:	c7 05 c4 31 07 08 0c 	movl   $0xc,0x80731c4
 804916d:	00 00 00 
 8049170:	c7 05 c8 31 07 08 01 	movl   $0x1,0x80731c8
 8049177:	00 00 00 
 804917a:	c7 05 3c 32 07 08 3c 	movl   $0x806963c,0x807323c
 8049181:	96 06 08 
 8049184:	c7 05 40 32 07 08 24 	movl   $0x24,0x8073240
 804918b:	00 00 00 
 804918e:	c7 05 44 32 07 08 01 	movl   $0x1,0x8073244
 8049195:	00 00 00 
 8049198:	c7 05 a0 31 07 08 64 	movl   $0x8069664,0x80731a0
 804919f:	96 06 08 
 80491a2:	c7 05 a4 31 07 08 c8 	movl   $0xc8,0x80731a4
 80491a9:	00 00 00 
 80491ac:	c7 05 a8 31 07 08 01 	movl   $0x1,0x80731a8
 80491b3:	00 00 00 
 80491b6:	90                   	nop
 80491b7:	5d                   	pop    %ebp
 80491b8:	c3                   	ret    

080491b9 <array_int_str>:
 80491b9:	55                   	push   %ebp
 80491ba:	89 e5                	mov    %esp,%ebp
 80491bc:	83 ec 28             	sub    $0x28,%esp
 80491bf:	8b 45 08             	mov    0x8(%ebp),%eax
 80491c2:	89 45 e4             	mov    %eax,-0x1c(%ebp)
 80491c5:	65 a1 14 00 00 00    	mov    %gs:0x14,%eax
 80491cb:	89 45 f4             	mov    %eax,-0xc(%ebp)
 80491ce:	31 c0                	xor    %eax,%eax
 80491d0:	8b 45 e4             	mov    -0x1c(%ebp),%eax
 80491d3:	83 ec 08             	sub    $0x8,%esp
 80491d6:	6a 00                	push   $0x0
 80491d8:	ff 75 18             	pushl  0x18(%ebp)
 80491db:	ff 75 14             	pushl  0x14(%ebp)
 80491de:	ff 75 10             	pushl  0x10(%ebp)
 80491e1:	ff 75 0c             	pushl  0xc(%ebp)
 80491e4:	50                   	push   %eax
 80491e5:	e8 1b 00 00 00       	call   8049205 <indent_array_int_str>
 80491ea:	83 c4 1c             	add    $0x1c,%esp
 80491ed:	8b 45 e4             	mov    -0x1c(%ebp),%eax
 80491f0:	8b 55 f4             	mov    -0xc(%ebp),%edx
 80491f3:	65 33 15 14 00 00 00 	xor    %gs:0x14,%edx
 80491fa:	74 05                	je     8049201 <array_int_str+0x48>
 80491fc:	e8 1f f6 ff ff       	call   8048820 <__stack_chk_fail@plt>
 8049201:	c9                   	leave  
 8049202:	c2 04 00             	ret    $0x4

08049205 <indent_array_int_str>:
 8049205:	55                   	push   %ebp
 8049206:	89 e5                	mov    %esp,%ebp
 8049208:	83 ec 78             	sub    $0x78,%esp
 804920b:	8b 45 08             	mov    0x8(%ebp),%eax
 804920e:	89 45 94             	mov    %eax,-0x6c(%ebp)
 8049211:	65 a1 14 00 00 00    	mov    %gs:0x14,%eax
 8049217:	89 45 f4             	mov    %eax,-0xc(%ebp)
 804921a:	31 c0                	xor    %eax,%eax
 804921c:	8b 55 14             	mov    0x14(%ebp),%edx
 804921f:	89 d0                	mov    %edx,%eax
 8049221:	c1 e0 02             	shl    $0x2,%eax
 8049224:	01 d0                	add    %edx,%eax
 8049226:	01 c0                	add    %eax,%eax
 8049228:	89 c2                	mov    %eax,%edx
 804922a:	8d 45 d8             	lea    -0x28(%ebp),%eax
 804922d:	83 ec 08             	sub    $0x8,%esp
 8049230:	52                   	push   %edx
 8049231:	50                   	push   %eax
 8049232:	e8 fb 06 00 00       	call   8049932 <strings__new_builder>
 8049237:	83 c4 0c             	add    $0xc,%esp
 804923a:	c7 45 a8 2d 97 06 08 	movl   $0x806972d,-0x58(%ebp)
 8049241:	c7 45 ac 01 00 00 00 	movl   $0x1,-0x54(%ebp)
 8049248:	c7 45 b0 01 00 00 00 	movl   $0x1,-0x50(%ebp)
 804924f:	ff 75 b0             	pushl  -0x50(%ebp)
 8049252:	ff 75 ac             	pushl  -0x54(%ebp)
 8049255:	ff 75 a8             	pushl  -0x58(%ebp)
 8049258:	8d 45 d8             	lea    -0x28(%ebp),%eax
 804925b:	50                   	push   %eax
 804925c:	e8 d8 07 00 00       	call   8049a39 <strings__Builder_write>
 8049261:	83 c4 10             	add    $0x10,%esp
 8049264:	c7 45 a0 00 00 00 00 	movl   $0x0,-0x60(%ebp)
 804926b:	eb 7f                	jmp    80492ec <indent_array_int_str+0xe7>
 804926d:	83 ec 0c             	sub    $0xc,%esp
 8049270:	ff 75 a0             	pushl  -0x60(%ebp)
 8049273:	ff 75 18             	pushl  0x18(%ebp)
 8049276:	ff 75 14             	pushl  0x14(%ebp)
 8049279:	ff 75 10             	pushl  0x10(%ebp)
 804927c:	ff 75 0c             	pushl  0xc(%ebp)
 804927f:	e8 36 d0 00 00       	call   80562ba <array_get>
 8049284:	83 c4 20             	add    $0x20,%esp
 8049287:	8b 00                	mov    (%eax),%eax
 8049289:	89 45 a4             	mov    %eax,-0x5c(%ebp)
 804928c:	8d 45 cc             	lea    -0x34(%ebp),%eax
 804928f:	83 ec 08             	sub    $0x8,%esp
 8049292:	ff 75 a4             	pushl  -0x5c(%ebp)
 8049295:	50                   	push   %eax
 8049296:	e8 a8 fa 00 00       	call   8058d43 <int_str>
 804929b:	83 c4 0c             	add    $0xc,%esp
 804929e:	ff 75 d4             	pushl  -0x2c(%ebp)
 80492a1:	ff 75 d0             	pushl  -0x30(%ebp)
 80492a4:	ff 75 cc             	pushl  -0x34(%ebp)
 80492a7:	8d 45 d8             	lea    -0x28(%ebp),%eax
 80492aa:	50                   	push   %eax
 80492ab:	e8 89 07 00 00       	call   8049a39 <strings__Builder_write>
 80492b0:	83 c4 10             	add    $0x10,%esp
 80492b3:	8b 45 14             	mov    0x14(%ebp),%eax
 80492b6:	83 e8 01             	sub    $0x1,%eax
 80492b9:	3b 45 a0             	cmp    -0x60(%ebp),%eax
 80492bc:	7e 2a                	jle    80492e8 <indent_array_int_str+0xe3>
 80492be:	c7 45 b4 2f 97 06 08 	movl   $0x806972f,-0x4c(%ebp)
 80492c5:	c7 45 b8 02 00 00 00 	movl   $0x2,-0x48(%ebp)
 80492cc:	c7 45 bc 01 00 00 00 	movl   $0x1,-0x44(%ebp)
 80492d3:	ff 75 bc             	pushl  -0x44(%ebp)
 80492d6:	ff 75 b8             	pushl  -0x48(%ebp)
 80492d9:	ff 75 b4             	pushl  -0x4c(%ebp)
 80492dc:	8d 45 d8             	lea    -0x28(%ebp),%eax
 80492df:	50                   	push   %eax
 80492e0:	e8 54 07 00 00       	call   8049a39 <strings__Builder_write>
 80492e5:	83 c4 10             	add    $0x10,%esp
 80492e8:	83 45 a0 01          	addl   $0x1,-0x60(%ebp)
 80492ec:	8b 45 14             	mov    0x14(%ebp),%eax
 80492ef:	3b 45 a0             	cmp    -0x60(%ebp),%eax
 80492f2:	0f 8f 75 ff ff ff    	jg     804926d <indent_array_int_str+0x68>
 80492f8:	c7 45 c0 32 97 06 08 	movl   $0x8069732,-0x40(%ebp)
 80492ff:	c7 45 c4 01 00 00 00 	movl   $0x1,-0x3c(%ebp)
 8049306:	c7 45 c8 01 00 00 00 	movl   $0x1,-0x38(%ebp)
 804930d:	ff 75 c8             	pushl  -0x38(%ebp)
 8049310:	ff 75 c4             	pushl  -0x3c(%ebp)
 8049313:	ff 75 c0             	pushl  -0x40(%ebp)
 8049316:	8d 45 d8             	lea    -0x28(%ebp),%eax
 8049319:	50                   	push   %eax
 804931a:	e8 1a 07 00 00       	call   8049a39 <strings__Builder_write>
 804931f:	83 c4 10             	add    $0x10,%esp
 8049322:	8d 45 cc             	lea    -0x34(%ebp),%eax
 8049325:	83 ec 08             	sub    $0x8,%esp
 8049328:	8d 55 d8             	lea    -0x28(%ebp),%edx
 804932b:	52                   	push   %edx
 804932c:	50                   	push   %eax
 804932d:	e8 95 0a 00 00       	call   8049dc7 <strings__Builder_str>
 8049332:	83 c4 0c             	add    $0xc,%esp
 8049335:	83 ec 0c             	sub    $0xc,%esp
 8049338:	8d 45 d8             	lea    -0x28(%ebp),%eax
 804933b:	50                   	push   %eax
 804933c:	e8 8f 0b 00 00       	call   8049ed0 <strings__Builder_free>
 8049341:	83 c4 10             	add    $0x10,%esp
 8049344:	8b 45 94             	mov    -0x6c(%ebp),%eax
 8049347:	8b 55 cc             	mov    -0x34(%ebp),%edx
 804934a:	89 10                	mov    %edx,(%eax)
 804934c:	8b 55 d0             	mov    -0x30(%ebp),%edx
 804934f:	89 50 04             	mov    %edx,0x4(%eax)
 8049352:	8b 55 d4             	mov    -0x2c(%ebp),%edx
 8049355:	89 50 08             	mov    %edx,0x8(%eax)
 8049358:	8b 45 94             	mov    -0x6c(%ebp),%eax
 804935b:	8b 4d f4             	mov    -0xc(%ebp),%ecx
 804935e:	65 33 0d 14 00 00 00 	xor    %gs:0x14,%ecx
 8049365:	74 05                	je     804936c <indent_array_int_str+0x167>
 8049367:	e8 b4 f4 ff ff       	call   8048820 <__stack_chk_fail@plt>
 804936c:	c9                   	leave  
 804936d:	c2 04 00             	ret    $0x4

08049370 <array_byte_contains>:
 8049370:	55                   	push   %ebp
 8049371:	89 e5                	mov    %esp,%ebp
 8049373:	83 ec 28             	sub    $0x28,%esp
 8049376:	8b 45 18             	mov    0x18(%ebp),%eax
 8049379:	88 45 e4             	mov    %al,-0x1c(%ebp)
 804937c:	c7 45 f4 00 00 00 00 	movl   $0x0,-0xc(%ebp)
 8049383:	eb 2d                	jmp    80493b2 <array_byte_contains+0x42>
 8049385:	83 ec 0c             	sub    $0xc,%esp
 8049388:	ff 75 f4             	pushl  -0xc(%ebp)
 804938b:	ff 75 14             	pushl  0x14(%ebp)
 804938e:	ff 75 10             	pushl  0x10(%ebp)
 8049391:	ff 75 0c             	pushl  0xc(%ebp)
 8049394:	ff 75 08             	pushl  0x8(%ebp)
 8049397:	e8 1e cf 00 00       	call   80562ba <array_get>
 804939c:	83 c4 20             	add    $0x20,%esp
 804939f:	0f b6 00             	movzbl (%eax),%eax
 80493a2:	3a 45 e4             	cmp    -0x1c(%ebp),%al
 80493a5:	75 07                	jne    80493ae <array_byte_contains+0x3e>
 80493a7:	b8 01 00 00 00       	mov    $0x1,%eax
 80493ac:	eb 11                	jmp    80493bf <array_byte_contains+0x4f>
 80493ae:	83 45 f4 01          	addl   $0x1,-0xc(%ebp)
 80493b2:	8b 45 10             	mov    0x10(%ebp),%eax
 80493b5:	3b 45 f4             	cmp    -0xc(%ebp),%eax
 80493b8:	7f cb                	jg     8049385 <array_byte_contains+0x15>
 80493ba:	b8 00 00 00 00       	mov    $0x0,%eax
 80493bf:	c9                   	leave  
 80493c0:	c3                   	ret    

080493c1 <_STR_PRINT_ARG>:
 80493c1:	55                   	push   %ebp
 80493c2:	89 e5                	mov    %esp,%ebp
 80493c4:	53                   	push   %ebx
 80493c5:	83 ec 24             	sub    $0x24,%esp
 80493c8:	8b 45 08             	mov    0x8(%ebp),%eax
 80493cb:	89 45 e4             	mov    %eax,-0x1c(%ebp)
 80493ce:	8b 45 0c             	mov    0xc(%ebp),%eax
 80493d1:	89 45 e0             	mov    %eax,-0x20(%ebp)
 80493d4:	8b 45 10             	mov    0x10(%ebp),%eax
 80493d7:	89 45 dc             	mov    %eax,-0x24(%ebp)
 80493da:	8b 45 14             	mov    0x14(%ebp),%eax
 80493dd:	89 45 d8             	mov    %eax,-0x28(%ebp)
 80493e0:	65 a1 14 00 00 00    	mov    %gs:0x14,%eax
 80493e6:	89 45 f4             	mov    %eax,-0xc(%ebp)
 80493e9:	31 c0                	xor    %eax,%eax
 80493eb:	8d 45 1c             	lea    0x1c(%ebp),%eax
 80493ee:	89 45 f0             	mov    %eax,-0x10(%ebp)
 80493f1:	8b 45 d8             	mov    -0x28(%ebp),%eax
 80493f4:	8b 10                	mov    (%eax),%edx
 80493f6:	8b 45 dc             	mov    -0x24(%ebp),%eax
 80493f9:	8b 00                	mov    (%eax),%eax
 80493fb:	29 c2                	sub    %eax,%edx
 80493fd:	89 d0                	mov    %edx,%eax
 80493ff:	3b 45 18             	cmp    0x18(%ebp),%eax
 8049402:	7e 62                	jle    8049466 <_STR_PRINT_ARG+0xa5>
 8049404:	8b 45 f0             	mov    -0x10(%ebp),%eax
 8049407:	8b 55 d8             	mov    -0x28(%ebp),%edx
 804940a:	8b 0a                	mov    (%edx),%ecx
 804940c:	8b 55 dc             	mov    -0x24(%ebp),%edx
 804940f:	8b 12                	mov    (%edx),%edx
 8049411:	29 d1                	sub    %edx,%ecx
 8049413:	89 ca                	mov    %ecx,%edx
 8049415:	89 d3                	mov    %edx,%ebx
 8049417:	8b 55 e0             	mov    -0x20(%ebp),%edx
 804941a:	8b 0a                	mov    (%edx),%ecx
 804941c:	8b 55 dc             	mov    -0x24(%ebp),%edx
 804941f:	8b 12                	mov    (%edx),%edx
 8049421:	01 ca                	add    %ecx,%edx
 8049423:	50                   	push   %eax
 8049424:	ff 75 e4             	pushl  -0x1c(%ebp)
 8049427:	53                   	push   %ebx
 8049428:	52                   	push   %edx
 8049429:	e8 c2 f4 ff ff       	call   80488f0 <vsnprintf@plt>
 804942e:	83 c4 10             	add    $0x10,%esp
 8049431:	89 45 18             	mov    %eax,0x18(%ebp)
 8049434:	8b 45 d8             	mov    -0x28(%ebp),%eax
 8049437:	8b 10                	mov    (%eax),%edx
 8049439:	8b 45 dc             	mov    -0x24(%ebp),%eax
 804943c:	8b 00                	mov    (%eax),%eax
 804943e:	29 c2                	sub    %eax,%edx
 8049440:	89 d0                	mov    %edx,%eax
 8049442:	3b 45 18             	cmp    0x18(%ebp),%eax
 8049445:	7e 1f                	jle    8049466 <_STR_PRINT_ARG+0xa5>
 8049447:	8b 45 dc             	mov    -0x24(%ebp),%eax
 804944a:	8b 10                	mov    (%eax),%edx
 804944c:	8b 45 18             	mov    0x18(%ebp),%eax
 804944f:	01 c2                	add    %eax,%edx
 8049451:	8b 45 dc             	mov    -0x24(%ebp),%eax
 8049454:	89 10                	mov    %edx,(%eax)
 8049456:	90                   	nop
 8049457:	90                   	nop
 8049458:	8b 45 f4             	mov    -0xc(%ebp),%eax
 804945b:	65 33 05 14 00 00 00 	xor    %gs:0x14,%eax
 8049462:	74 5b                	je     80494bf <_STR_PRINT_ARG+0xfe>
 8049464:	eb 54                	jmp    80494ba <_STR_PRINT_ARG+0xf9>
 8049466:	8b 45 d8             	mov    -0x28(%ebp),%eax
 8049469:	8b 18                	mov    (%eax),%ebx
 804946b:	8b 45 d8             	mov    -0x28(%ebp),%eax
 804946e:	8b 10                	mov    (%eax),%edx
 8049470:	8b 45 d8             	mov    -0x28(%ebp),%eax
 8049473:	8b 00                	mov    (%eax),%eax
 8049475:	8d 0c 02             	lea    (%edx,%eax,1),%ecx
 8049478:	ba 56 55 55 55       	mov    $0x55555556,%edx
 804947d:	89 c8                	mov    %ecx,%eax
 804947f:	f7 ea                	imul   %edx
 8049481:	89 c8                	mov    %ecx,%eax
 8049483:	c1 f8 1f             	sar    $0x1f,%eax
 8049486:	29 c2                	sub    %eax,%edx
 8049488:	8b 45 18             	mov    0x18(%ebp),%eax
 804948b:	01 d0                	add    %edx,%eax
 804948d:	8d 14 03             	lea    (%ebx,%eax,1),%edx
 8049490:	8b 45 d8             	mov    -0x28(%ebp),%eax
 8049493:	89 10                	mov    %edx,(%eax)
 8049495:	8b 45 d8             	mov    -0x28(%ebp),%eax
 8049498:	8b 00                	mov    (%eax),%eax
 804949a:	89 c2                	mov    %eax,%edx
 804949c:	8b 45 e0             	mov    -0x20(%ebp),%eax
 804949f:	8b 00                	mov    (%eax),%eax
 80494a1:	83 ec 08             	sub    $0x8,%esp
 80494a4:	52                   	push   %edx
 80494a5:	50                   	push   %eax
 80494a6:	e8 85 f3 ff ff       	call   8048830 <realloc@plt>
 80494ab:	83 c4 10             	add    $0x10,%esp
 80494ae:	89 c2                	mov    %eax,%edx
 80494b0:	8b 45 e0             	mov    -0x20(%ebp),%eax
 80494b3:	89 10                	mov    %edx,(%eax)
 80494b5:	e9 37 ff ff ff       	jmp    80493f1 <_STR_PRINT_ARG+0x30>
 80494ba:	e8 61 f3 ff ff       	call   8048820 <__stack_chk_fail@plt>
 80494bf:	8b 5d fc             	mov    -0x4(%ebp),%ebx
 80494c2:	c9                   	leave  
 80494c3:	c3                   	ret    

080494c4 <_STR>:
 80494c4:	55                   	push   %ebp
 80494c5:	89 e5                	mov    %esp,%ebp
 80494c7:	53                   	push   %ebx
 80494c8:	83 ec 54             	sub    $0x54,%esp
 80494cb:	8b 45 08             	mov    0x8(%ebp),%eax
 80494ce:	89 45 b4             	mov    %eax,-0x4c(%ebp)
 80494d1:	8b 45 0c             	mov    0xc(%ebp),%eax
 80494d4:	89 45 b0             	mov    %eax,-0x50(%ebp)
 80494d7:	65 a1 14 00 00 00    	mov    %gs:0x14,%eax
 80494dd:	89 45 f4             	mov    %eax,-0xc(%ebp)
 80494e0:	31 c0                	xor    %eax,%eax
 80494e2:	c7 45 c0 80 00 00 00 	movl   $0x80,-0x40(%ebp)
 80494e9:	c7 45 c4 00 00 00 00 	movl   $0x0,-0x3c(%ebp)
 80494f0:	8b 45 c0             	mov    -0x40(%ebp),%eax
 80494f3:	83 ec 0c             	sub    $0xc,%esp
 80494f6:	50                   	push   %eax
 80494f7:	e8 44 f3 ff ff       	call   8048840 <malloc@plt>
 80494fc:	83 c4 10             	add    $0x10,%esp
 80494ff:	89 45 c8             	mov    %eax,-0x38(%ebp)
 8049502:	8d 45 14             	lea    0x14(%ebp),%eax
 8049505:	89 45 bc             	mov    %eax,-0x44(%ebp)
 8049508:	c7 45 cc 00 00 00 00 	movl   $0x0,-0x34(%ebp)
 804950f:	e9 17 03 00 00       	jmp    804982b <_STR+0x367>
 8049514:	83 ec 0c             	sub    $0xc,%esp
 8049517:	ff 75 b0             	pushl  -0x50(%ebp)
 804951a:	e8 61 f3 ff ff       	call   8048880 <strlen@plt>
 804951f:	83 c4 10             	add    $0x10,%esp
 8049522:	89 45 dc             	mov    %eax,-0x24(%ebp)
 8049525:	c7 45 d0 00 00 00 00 	movl   $0x0,-0x30(%ebp)
 804952c:	c7 45 d4 00 00 00 00 	movl   $0x0,-0x2c(%ebp)
 8049533:	eb 2f                	jmp    8049564 <_STR+0xa0>
 8049535:	8b 55 d4             	mov    -0x2c(%ebp),%edx
 8049538:	8b 45 b0             	mov    -0x50(%ebp),%eax
 804953b:	01 d0                	add    %edx,%eax
 804953d:	0f b6 00             	movzbl (%eax),%eax
 8049540:	3c 25                	cmp    $0x25,%al
 8049542:	75 1c                	jne    8049560 <_STR+0x9c>
 8049544:	83 45 d4 01          	addl   $0x1,-0x2c(%ebp)
 8049548:	8b 55 d4             	mov    -0x2c(%ebp),%edx
 804954b:	8b 45 b0             	mov    -0x50(%ebp),%eax
 804954e:	01 d0                	add    %edx,%eax
 8049550:	0f b6 00             	movzbl (%eax),%eax
 8049553:	3c 25                	cmp    $0x25,%al
 8049555:	74 09                	je     8049560 <_STR+0x9c>
 8049557:	c7 45 d0 01 00 00 00 	movl   $0x1,-0x30(%ebp)
 804955e:	eb 0c                	jmp    804956c <_STR+0xa8>
 8049560:	83 45 d4 01          	addl   $0x1,-0x2c(%ebp)
 8049564:	8b 45 d4             	mov    -0x2c(%ebp),%eax
 8049567:	3b 45 dc             	cmp    -0x24(%ebp),%eax
 804956a:	7c c9                	jl     8049535 <_STR+0x71>
 804956c:	83 7d d0 00          	cmpl   $0x0,-0x30(%ebp)
 8049570:	0f 84 8b 02 00 00    	je     8049801 <_STR+0x33d>
 8049576:	8b 45 dc             	mov    -0x24(%ebp),%eax
 8049579:	8d 50 ff             	lea    -0x1(%eax),%edx
 804957c:	8b 45 b0             	mov    -0x50(%ebp),%eax
 804957f:	01 d0                	add    %edx,%eax
 8049581:	0f b6 00             	movzbl (%eax),%eax
 8049584:	88 45 ba             	mov    %al,-0x46(%ebp)
 8049587:	0f b6 45 ba          	movzbl -0x46(%ebp),%eax
 804958b:	83 e0 df             	and    $0xffffffdf,%eax
 804958e:	88 45 bb             	mov    %al,-0x45(%ebp)
 8049591:	8b 45 dc             	mov    -0x24(%ebp),%eax
 8049594:	8d 50 fe             	lea    -0x2(%eax),%edx
 8049597:	8b 45 b0             	mov    -0x50(%ebp),%eax
 804959a:	01 d0                	add    %edx,%eax
 804959c:	0f b6 00             	movzbl (%eax),%eax
 804959f:	3c 6c                	cmp    $0x6c,%al
 80495a1:	0f 94 c0             	sete   %al
 80495a4:	0f b6 c0             	movzbl %al,%eax
 80495a7:	89 45 e0             	mov    %eax,-0x20(%ebp)
 80495aa:	83 7d e0 00          	cmpl   $0x0,-0x20(%ebp)
 80495ae:	74 19                	je     80495c9 <_STR+0x105>
 80495b0:	8b 45 dc             	mov    -0x24(%ebp),%eax
 80495b3:	8d 50 fd             	lea    -0x3(%eax),%edx
 80495b6:	8b 45 b0             	mov    -0x50(%ebp),%eax
 80495b9:	01 d0                	add    %edx,%eax
 80495bb:	0f b6 00             	movzbl (%eax),%eax
 80495be:	3c 6c                	cmp    $0x6c,%al
 80495c0:	75 07                	jne    80495c9 <_STR+0x105>
 80495c2:	b8 01 00 00 00       	mov    $0x1,%eax
 80495c7:	eb 05                	jmp    80495ce <_STR+0x10a>
 80495c9:	b8 00 00 00 00       	mov    $0x0,%eax
 80495ce:	89 45 e4             	mov    %eax,-0x1c(%ebp)
 80495d1:	80 7d ba 75          	cmpb   $0x75,-0x46(%ebp)
 80495d5:	74 1c                	je     80495f3 <_STR+0x12f>
 80495d7:	80 7d bb 58          	cmpb   $0x58,-0x45(%ebp)
 80495db:	74 16                	je     80495f3 <_STR+0x12f>
 80495dd:	80 7d ba 6f          	cmpb   $0x6f,-0x46(%ebp)
 80495e1:	74 10                	je     80495f3 <_STR+0x12f>
 80495e3:	80 7d ba 64          	cmpb   $0x64,-0x46(%ebp)
 80495e7:	74 0a                	je     80495f3 <_STR+0x12f>
 80495e9:	80 7d ba 63          	cmpb   $0x63,-0x46(%ebp)
 80495ed:	0f 85 a6 00 00 00    	jne    8049699 <_STR+0x1d5>
 80495f3:	83 7d e4 00          	cmpl   $0x0,-0x1c(%ebp)
 80495f7:	74 36                	je     804962f <_STR+0x16b>
 80495f9:	8b 45 bc             	mov    -0x44(%ebp),%eax
 80495fc:	8d 50 08             	lea    0x8(%eax),%edx
 80495ff:	89 55 bc             	mov    %edx,-0x44(%ebp)
 8049602:	8b 50 04             	mov    0x4(%eax),%edx
 8049605:	8b 00                	mov    (%eax),%eax
 8049607:	8b 4d dc             	mov    -0x24(%ebp),%ecx
 804960a:	83 c1 10             	add    $0x10,%ecx
 804960d:	83 ec 04             	sub    $0x4,%esp
 8049610:	52                   	push   %edx
 8049611:	50                   	push   %eax
 8049612:	51                   	push   %ecx
 8049613:	8d 45 c0             	lea    -0x40(%ebp),%eax
 8049616:	50                   	push   %eax
 8049617:	8d 45 c4             	lea    -0x3c(%ebp),%eax
 804961a:	50                   	push   %eax
 804961b:	8d 45 c8             	lea    -0x38(%ebp),%eax
 804961e:	50                   	push   %eax
 804961f:	ff 75 b0             	pushl  -0x50(%ebp)
 8049622:	e8 9a fd ff ff       	call   80493c1 <_STR_PRINT_ARG>
 8049627:	83 c4 20             	add    $0x20,%esp
 804962a:	e9 ef 01 00 00       	jmp    804981e <_STR+0x35a>
 804962f:	83 7d e0 00          	cmpl   $0x0,-0x20(%ebp)
 8049633:	74 32                	je     8049667 <_STR+0x1a3>
 8049635:	8b 45 bc             	mov    -0x44(%ebp),%eax
 8049638:	8d 50 04             	lea    0x4(%eax),%edx
 804963b:	89 55 bc             	mov    %edx,-0x44(%ebp)
 804963e:	8b 00                	mov    (%eax),%eax
 8049640:	8b 55 dc             	mov    -0x24(%ebp),%edx
 8049643:	83 c2 0a             	add    $0xa,%edx
 8049646:	83 ec 08             	sub    $0x8,%esp
 8049649:	50                   	push   %eax
 804964a:	52                   	push   %edx
 804964b:	8d 45 c0             	lea    -0x40(%ebp),%eax
 804964e:	50                   	push   %eax
 804964f:	8d 45 c4             	lea    -0x3c(%ebp),%eax
 8049652:	50                   	push   %eax
 8049653:	8d 45 c8             	lea    -0x38(%ebp),%eax
 8049656:	50                   	push   %eax
 8049657:	ff 75 b0             	pushl  -0x50(%ebp)
 804965a:	e8 62 fd ff ff       	call   80493c1 <_STR_PRINT_ARG>
 804965f:	83 c4 20             	add    $0x20,%esp
 8049662:	e9 b7 01 00 00       	jmp    804981e <_STR+0x35a>
 8049667:	8b 45 bc             	mov    -0x44(%ebp),%eax
 804966a:	8d 50 04             	lea    0x4(%eax),%edx
 804966d:	89 55 bc             	mov    %edx,-0x44(%ebp)
 8049670:	8b 00                	mov    (%eax),%eax
 8049672:	8b 55 dc             	mov    -0x24(%ebp),%edx
 8049675:	83 c2 08             	add    $0x8,%edx
 8049678:	83 ec 08             	sub    $0x8,%esp
 804967b:	50                   	push   %eax
 804967c:	52                   	push   %edx
 804967d:	8d 45 c0             	lea    -0x40(%ebp),%eax
 8049680:	50                   	push   %eax
 8049681:	8d 45 c4             	lea    -0x3c(%ebp),%eax
 8049684:	50                   	push   %eax
 8049685:	8d 45 c8             	lea    -0x38(%ebp),%eax
 8049688:	50                   	push   %eax
 8049689:	ff 75 b0             	pushl  -0x50(%ebp)
 804968c:	e8 30 fd ff ff       	call   80493c1 <_STR_PRINT_ARG>
 8049691:	83 c4 20             	add    $0x20,%esp
 8049694:	e9 85 01 00 00       	jmp    804981e <_STR+0x35a>
 8049699:	80 7d bb 44          	cmpb   $0x44,-0x45(%ebp)
 804969d:	7e 3e                	jle    80496dd <_STR+0x219>
 804969f:	80 7d bb 47          	cmpb   $0x47,-0x45(%ebp)
 80496a3:	7f 38                	jg     80496dd <_STR+0x219>
 80496a5:	8b 45 bc             	mov    -0x44(%ebp),%eax
 80496a8:	8d 50 08             	lea    0x8(%eax),%edx
 80496ab:	89 55 bc             	mov    %edx,-0x44(%ebp)
 80496ae:	dd 00                	fldl   (%eax)
 80496b0:	8b 45 dc             	mov    -0x24(%ebp),%eax
 80496b3:	83 c0 0a             	add    $0xa,%eax
 80496b6:	83 ec 04             	sub    $0x4,%esp
 80496b9:	8d 64 24 f8          	lea    -0x8(%esp),%esp
 80496bd:	dd 1c 24             	fstpl  (%esp)
 80496c0:	50                   	push   %eax
 80496c1:	8d 45 c0             	lea    -0x40(%ebp),%eax
 80496c4:	50                   	push   %eax
 80496c5:	8d 45 c4             	lea    -0x3c(%ebp),%eax
 80496c8:	50                   	push   %eax
 80496c9:	8d 45 c8             	lea    -0x38(%ebp),%eax
 80496cc:	50                   	push   %eax
 80496cd:	ff 75 b0             	pushl  -0x50(%ebp)
 80496d0:	e8 ec fc ff ff       	call   80493c1 <_STR_PRINT_ARG>
 80496d5:	83 c4 20             	add    $0x20,%esp
 80496d8:	e9 41 01 00 00       	jmp    804981e <_STR+0x35a>
 80496dd:	80 7d ba 70          	cmpb   $0x70,-0x46(%ebp)
 80496e1:	75 32                	jne    8049715 <_STR+0x251>
 80496e3:	8b 45 bc             	mov    -0x44(%ebp),%eax
 80496e6:	8d 50 04             	lea    0x4(%eax),%edx
 80496e9:	89 55 bc             	mov    %edx,-0x44(%ebp)
 80496ec:	8b 00                	mov    (%eax),%eax
 80496ee:	8b 55 dc             	mov    -0x24(%ebp),%edx
 80496f1:	83 c2 0e             	add    $0xe,%edx
 80496f4:	83 ec 08             	sub    $0x8,%esp
 80496f7:	50                   	push   %eax
 80496f8:	52                   	push   %edx
 80496f9:	8d 45 c0             	lea    -0x40(%ebp),%eax
 80496fc:	50                   	push   %eax
 80496fd:	8d 45 c4             	lea    -0x3c(%ebp),%eax
 8049700:	50                   	push   %eax
 8049701:	8d 45 c8             	lea    -0x38(%ebp),%eax
 8049704:	50                   	push   %eax
 8049705:	ff 75 b0             	pushl  -0x50(%ebp)
 8049708:	e8 b4 fc ff ff       	call   80493c1 <_STR_PRINT_ARG>
 804970d:	83 c4 20             	add    $0x20,%esp
 8049710:	e9 09 01 00 00       	jmp    804981e <_STR+0x35a>
 8049715:	80 7d ba 73          	cmpb   $0x73,-0x46(%ebp)
 8049719:	0f 85 ff 00 00 00    	jne    804981e <_STR+0x35a>
 804971f:	8b 45 bc             	mov    -0x44(%ebp),%eax
 8049722:	8d 50 0c             	lea    0xc(%eax),%edx
 8049725:	89 55 bc             	mov    %edx,-0x44(%ebp)
 8049728:	8b 10                	mov    (%eax),%edx
 804972a:	89 55 e8             	mov    %edx,-0x18(%ebp)
 804972d:	8b 50 04             	mov    0x4(%eax),%edx
 8049730:	89 55 ec             	mov    %edx,-0x14(%ebp)
 8049733:	8b 40 08             	mov    0x8(%eax),%eax
 8049736:	89 45 f0             	mov    %eax,-0x10(%ebp)
 8049739:	8b 45 dc             	mov    -0x24(%ebp),%eax
 804973c:	8d 50 fc             	lea    -0x4(%eax),%edx
 804973f:	8b 45 b0             	mov    -0x50(%ebp),%eax
 8049742:	01 d0                	add    %edx,%eax
 8049744:	0f b6 00             	movzbl (%eax),%eax
 8049747:	3c 2a                	cmp    $0x2a,%al
 8049749:	0f 85 82 00 00 00    	jne    80497d1 <_STR+0x30d>
 804974f:	8b 45 bc             	mov    -0x44(%ebp),%eax
 8049752:	8d 50 04             	lea    0x4(%eax),%edx
 8049755:	89 55 bc             	mov    %edx,-0x44(%ebp)
 8049758:	8b 00                	mov    (%eax),%eax
 804975a:	89 45 d8             	mov    %eax,-0x28(%ebp)
 804975d:	83 7d d8 00          	cmpl   $0x0,-0x28(%ebp)
 8049761:	79 20                	jns    8049783 <_STR+0x2bf>
 8049763:	8b 5d ec             	mov    -0x14(%ebp),%ebx
 8049766:	83 ec 04             	sub    $0x4,%esp
 8049769:	ff 75 f0             	pushl  -0x10(%ebp)
 804976c:	ff 75 ec             	pushl  -0x14(%ebp)
 804976f:	ff 75 e8             	pushl  -0x18(%ebp)
 8049772:	e8 90 86 01 00       	call   8061e07 <utf8_str_visible_length>
 8049777:	83 c4 10             	add    $0x10,%esp
 804977a:	29 c3                	sub    %eax,%ebx
 804977c:	89 d8                	mov    %ebx,%eax
 804977e:	29 45 d8             	sub    %eax,-0x28(%ebp)
 8049781:	eb 1e                	jmp    80497a1 <_STR+0x2dd>
 8049783:	8b 5d ec             	mov    -0x14(%ebp),%ebx
 8049786:	83 ec 04             	sub    $0x4,%esp
 8049789:	ff 75 f0             	pushl  -0x10(%ebp)
 804978c:	ff 75 ec             	pushl  -0x14(%ebp)
 804978f:	ff 75 e8             	pushl  -0x18(%ebp)
 8049792:	e8 70 86 01 00       	call   8061e07 <utf8_str_visible_length>
 8049797:	83 c4 10             	add    $0x10,%esp
 804979a:	29 c3                	sub    %eax,%ebx
 804979c:	89 d8                	mov    %ebx,%eax
 804979e:	01 45 d8             	add    %eax,-0x28(%ebp)
 80497a1:	8b 55 e8             	mov    -0x18(%ebp),%edx
 80497a4:	8b 45 ec             	mov    -0x14(%ebp),%eax
 80497a7:	8b 5d ec             	mov    -0x14(%ebp),%ebx
 80497aa:	8b 4d dc             	mov    -0x24(%ebp),%ecx
 80497ad:	01 d9                	add    %ebx,%ecx
 80497af:	83 e9 04             	sub    $0x4,%ecx
 80497b2:	52                   	push   %edx
 80497b3:	50                   	push   %eax
 80497b4:	ff 75 d8             	pushl  -0x28(%ebp)
 80497b7:	51                   	push   %ecx
 80497b8:	8d 45 c0             	lea    -0x40(%ebp),%eax
 80497bb:	50                   	push   %eax
 80497bc:	8d 45 c4             	lea    -0x3c(%ebp),%eax
 80497bf:	50                   	push   %eax
 80497c0:	8d 45 c8             	lea    -0x38(%ebp),%eax
 80497c3:	50                   	push   %eax
 80497c4:	ff 75 b0             	pushl  -0x50(%ebp)
 80497c7:	e8 f5 fb ff ff       	call   80493c1 <_STR_PRINT_ARG>
 80497cc:	83 c4 20             	add    $0x20,%esp
 80497cf:	eb 4d                	jmp    804981e <_STR+0x35a>
 80497d1:	8b 55 e8             	mov    -0x18(%ebp),%edx
 80497d4:	8b 45 ec             	mov    -0x14(%ebp),%eax
 80497d7:	8b 5d ec             	mov    -0x14(%ebp),%ebx
 80497da:	8b 4d dc             	mov    -0x24(%ebp),%ecx
 80497dd:	01 d9                	add    %ebx,%ecx
 80497df:	83 e9 04             	sub    $0x4,%ecx
 80497e2:	83 ec 04             	sub    $0x4,%esp
 80497e5:	52                   	push   %edx
 80497e6:	50                   	push   %eax
 80497e7:	51                   	push   %ecx
 80497e8:	8d 45 c0             	lea    -0x40(%ebp),%eax
 80497eb:	50                   	push   %eax
 80497ec:	8d 45 c4             	lea    -0x3c(%ebp),%eax
 80497ef:	50                   	push   %eax
 80497f0:	8d 45 c8             	lea    -0x38(%ebp),%eax
 80497f3:	50                   	push   %eax
 80497f4:	ff 75 b0             	pushl  -0x50(%ebp)
 80497f7:	e8 c5 fb ff ff       	call   80493c1 <_STR_PRINT_ARG>
 80497fc:	83 c4 20             	add    $0x20,%esp
 80497ff:	eb 1d                	jmp    804981e <_STR+0x35a>
 8049801:	83 ec 0c             	sub    $0xc,%esp
 8049804:	ff 75 dc             	pushl  -0x24(%ebp)
 8049807:	8d 45 c0             	lea    -0x40(%ebp),%eax
 804980a:	50                   	push   %eax
 804980b:	8d 45 c4             	lea    -0x3c(%ebp),%eax
 804980e:	50                   	push   %eax
 804980f:	8d 45 c8             	lea    -0x38(%ebp),%eax
 8049812:	50                   	push   %eax
 8049813:	ff 75 b0             	pushl  -0x50(%ebp)
 8049816:	e8 a6 fb ff ff       	call   80493c1 <_STR_PRINT_ARG>
 804981b:	83 c4 20             	add    $0x20,%esp
 804981e:	8b 45 dc             	mov    -0x24(%ebp),%eax
 8049821:	83 c0 01             	add    $0x1,%eax
 8049824:	01 45 b0             	add    %eax,-0x50(%ebp)
 8049827:	83 45 cc 01          	addl   $0x1,-0x34(%ebp)
 804982b:	8b 45 cc             	mov    -0x34(%ebp),%eax
 804982e:	3b 45 10             	cmp    0x10(%ebp),%eax
 8049831:	0f 8c dd fc ff ff    	jl     8049514 <_STR+0x50>
 8049837:	8b 45 c8             	mov    -0x38(%ebp),%eax
 804983a:	8b 55 c4             	mov    -0x3c(%ebp),%edx
 804983d:	01 d0                	add    %edx,%eax
 804983f:	c6 00 00             	movb   $0x0,(%eax)
 8049842:	8b 45 c4             	mov    -0x3c(%ebp),%eax
 8049845:	83 c0 01             	add    $0x1,%eax
 8049848:	89 c2                	mov    %eax,%edx
 804984a:	8b 45 c8             	mov    -0x38(%ebp),%eax
 804984d:	83 ec 08             	sub    $0x8,%esp
 8049850:	52                   	push   %edx
 8049851:	50                   	push   %eax
 8049852:	e8 d9 ef ff ff       	call   8048830 <realloc@plt>
 8049857:	83 c4 10             	add    $0x10,%esp
 804985a:	89 45 c8             	mov    %eax,-0x38(%ebp)
 804985d:	8b 55 c8             	mov    -0x38(%ebp),%edx
 8049860:	8b 45 b4             	mov    -0x4c(%ebp),%eax
 8049863:	83 ec 08             	sub    $0x8,%esp
 8049866:	52                   	push   %edx
 8049867:	50                   	push   %eax
 8049868:	e8 4d 3b 01 00       	call   805d3ba <tos2>
 804986d:	83 c4 0c             	add    $0xc,%esp
 8049870:	8b 45 b4             	mov    -0x4c(%ebp),%eax
 8049873:	8b 5d f4             	mov    -0xc(%ebp),%ebx
 8049876:	65 33 1d 14 00 00 00 	xor    %gs:0x14,%ebx
 804987d:	74 05                	je     8049884 <_STR+0x3c0>
 804987f:	e8 9c ef ff ff       	call   8048820 <__stack_chk_fail@plt>
 8049884:	8b 5d fc             	mov    -0x4(%ebp),%ebx
 8049887:	c9                   	leave  
 8049888:	c2 04 00             	ret    $0x4

0804988b <_STR_TMP>:
 804988b:	55                   	push   %ebp
 804988c:	89 e5                	mov    %esp,%ebp
 804988e:	83 ec 38             	sub    $0x38,%esp
 8049891:	8b 45 08             	mov    0x8(%ebp),%eax
 8049894:	89 45 d4             	mov    %eax,-0x2c(%ebp)
 8049897:	8b 45 0c             	mov    0xc(%ebp),%eax
 804989a:	89 45 d0             	mov    %eax,-0x30(%ebp)
 804989d:	65 a1 14 00 00 00    	mov    %gs:0x14,%eax
 80498a3:	89 45 f4             	mov    %eax,-0xc(%ebp)
 80498a6:	31 c0                	xor    %eax,%eax
 80498a8:	8d 45 10             	lea    0x10(%ebp),%eax
 80498ab:	89 45 e0             	mov    %eax,-0x20(%ebp)
 80498ae:	8b 45 e0             	mov    -0x20(%ebp),%eax
 80498b1:	50                   	push   %eax
 80498b2:	ff 75 d0             	pushl  -0x30(%ebp)
 80498b5:	6a 00                	push   $0x0
 80498b7:	6a 00                	push   $0x0
 80498b9:	e8 32 f0 ff ff       	call   80488f0 <vsnprintf@plt>
 80498be:	83 c4 10             	add    $0x10,%esp
 80498c1:	83 c0 01             	add    $0x1,%eax
 80498c4:	89 45 e4             	mov    %eax,-0x1c(%ebp)
 80498c7:	8d 45 10             	lea    0x10(%ebp),%eax
 80498ca:	89 45 e0             	mov    %eax,-0x20(%ebp)
 80498cd:	8b 55 e0             	mov    -0x20(%ebp),%edx
 80498d0:	a1 d4 30 07 08       	mov    0x80730d4,%eax
 80498d5:	83 ec 04             	sub    $0x4,%esp
 80498d8:	52                   	push   %edx
 80498d9:	ff 75 d0             	pushl  -0x30(%ebp)
 80498dc:	50                   	push   %eax
 80498dd:	e8 ee ef ff ff       	call   80488d0 <vsprintf@plt>
 80498e2:	83 c4 10             	add    $0x10,%esp
 80498e5:	8b 4d e4             	mov    -0x1c(%ebp),%ecx
 80498e8:	8b 15 d4 30 07 08    	mov    0x80730d4,%edx
 80498ee:	8d 45 e8             	lea    -0x18(%ebp),%eax
 80498f1:	83 ec 04             	sub    $0x4,%esp
 80498f4:	51                   	push   %ecx
 80498f5:	52                   	push   %edx
 80498f6:	50                   	push   %eax
 80498f7:	e8 fe 39 01 00       	call   805d2fa <tos>
 80498fc:	83 c4 0c             	add    $0xc,%esp
 80498ff:	c7 45 f0 01 00 00 00 	movl   $0x1,-0x10(%ebp)
 8049906:	8b 45 d4             	mov    -0x2c(%ebp),%eax
 8049909:	8b 55 e8             	mov    -0x18(%ebp),%edx
 804990c:	89 10                	mov    %edx,(%eax)
 804990e:	8b 55 ec             	mov    -0x14(%ebp),%edx
 8049911:	89 50 04             	mov    %edx,0x4(%eax)
 8049914:	8b 55 f0             	mov    -0x10(%ebp),%edx
 8049917:	89 50 08             	mov    %edx,0x8(%eax)
 804991a:	8b 45 d4             	mov    -0x2c(%ebp),%eax
 804991d:	8b 4d f4             	mov    -0xc(%ebp),%ecx
 8049920:	65 33 0d 14 00 00 00 	xor    %gs:0x14,%ecx
 8049927:	74 05                	je     804992e <_STR_TMP+0xa3>
 8049929:	e8 f2 ee ff ff       	call   8048820 <__stack_chk_fail@plt>
 804992e:	c9                   	leave  
 804992f:	c2 04 00             	ret    $0x4

08049932 <strings__new_builder>:
 8049932:	55                   	push   %ebp
 8049933:	89 e5                	mov    %esp,%ebp
 8049935:	83 ec 38             	sub    $0x38,%esp
 8049938:	8b 45 08             	mov    0x8(%ebp),%eax
 804993b:	89 45 d4             	mov    %eax,-0x2c(%ebp)
 804993e:	65 a1 14 00 00 00    	mov    %gs:0x14,%eax
 8049944:	89 45 f4             	mov    %eax,-0xc(%ebp)
 8049947:	31 c0                	xor    %eax,%eax
 8049949:	8d 45 e4             	lea    -0x1c(%ebp),%eax
 804994c:	83 ec 0c             	sub    $0xc,%esp
 804994f:	6a 00                	push   $0x0
 8049951:	6a 01                	push   $0x1
 8049953:	ff 75 0c             	pushl  0xc(%ebp)
 8049956:	6a 00                	push   $0x0
 8049958:	50                   	push   %eax
 8049959:	e8 0b c1 00 00       	call   8055a69 <__new_array_with_default>
 804995e:	83 c4 1c             	add    $0x1c,%esp
 8049961:	8b 45 d4             	mov    -0x2c(%ebp),%eax
 8049964:	8b 55 e4             	mov    -0x1c(%ebp),%edx
 8049967:	89 10                	mov    %edx,(%eax)
 8049969:	8b 55 e8             	mov    -0x18(%ebp),%edx
 804996c:	89 50 04             	mov    %edx,0x4(%eax)
 804996f:	8b 55 ec             	mov    -0x14(%ebp),%edx
 8049972:	89 50 08             	mov    %edx,0x8(%eax)
 8049975:	8b 55 f0             	mov    -0x10(%ebp),%edx
 8049978:	89 50 0c             	mov    %edx,0xc(%eax)
 804997b:	8b 45 d4             	mov    -0x2c(%ebp),%eax
 804997e:	c7 40 10 00 00 00 00 	movl   $0x0,0x10(%eax)
 8049985:	8b 45 d4             	mov    -0x2c(%ebp),%eax
 8049988:	c7 40 14 00 00 00 00 	movl   $0x0,0x14(%eax)
 804998f:	8b 45 d4             	mov    -0x2c(%ebp),%eax
 8049992:	8b 55 0c             	mov    0xc(%ebp),%edx
 8049995:	89 50 18             	mov    %edx,0x18(%eax)
 8049998:	8b 45 d4             	mov    -0x2c(%ebp),%eax
 804999b:	8b 4d f4             	mov    -0xc(%ebp),%ecx
 804999e:	65 33 0d 14 00 00 00 	xor    %gs:0x14,%ecx
 80499a5:	74 05                	je     80499ac <strings__new_builder+0x7a>
 80499a7:	e8 74 ee ff ff       	call   8048820 <__stack_chk_fail@plt>
 80499ac:	c9                   	leave  
 80499ad:	c2 04 00             	ret    $0x4

080499b0 <strings__Builder_write_bytes>:
 80499b0:	55                   	push   %ebp
 80499b1:	89 e5                	mov    %esp,%ebp
 80499b3:	83 ec 08             	sub    $0x8,%esp
 80499b6:	8b 45 08             	mov    0x8(%ebp),%eax
 80499b9:	83 ec 04             	sub    $0x4,%esp
 80499bc:	ff 75 10             	pushl  0x10(%ebp)
 80499bf:	ff 75 0c             	pushl  0xc(%ebp)
 80499c2:	50                   	push   %eax
 80499c3:	e8 53 d0 00 00       	call   8056a1b <array_push_many>
 80499c8:	83 c4 10             	add    $0x10,%esp
 80499cb:	8b 45 08             	mov    0x8(%ebp),%eax
 80499ce:	8b 50 14             	mov    0x14(%eax),%edx
 80499d1:	8b 45 10             	mov    0x10(%ebp),%eax
 80499d4:	01 c2                	add    %eax,%edx
 80499d6:	8b 45 08             	mov    0x8(%ebp),%eax
 80499d9:	89 50 14             	mov    %edx,0x14(%eax)
 80499dc:	90                   	nop
 80499dd:	c9                   	leave  
 80499de:	c3                   	ret    

080499df <strings__Builder_write_b>:
 80499df:	55                   	push   %ebp
 80499e0:	89 e5                	mov    %esp,%ebp
 80499e2:	83 ec 28             	sub    $0x28,%esp
 80499e5:	8b 45 0c             	mov    0xc(%ebp),%eax
 80499e8:	8b 55 08             	mov    0x8(%ebp),%edx
 80499eb:	89 55 e4             	mov    %edx,-0x1c(%ebp)
 80499ee:	88 45 e0             	mov    %al,-0x20(%ebp)
 80499f1:	65 a1 14 00 00 00    	mov    %gs:0x14,%eax
 80499f7:	89 45 f4             	mov    %eax,-0xc(%ebp)
 80499fa:	31 c0                	xor    %eax,%eax
 80499fc:	0f b6 45 e0          	movzbl -0x20(%ebp),%eax
 8049a00:	88 45 f3             	mov    %al,-0xd(%ebp)
 8049a03:	8b 45 e4             	mov    -0x1c(%ebp),%eax
 8049a06:	83 ec 08             	sub    $0x8,%esp
 8049a09:	8d 55 f3             	lea    -0xd(%ebp),%edx
 8049a0c:	52                   	push   %edx
 8049a0d:	50                   	push   %eax
 8049a0e:	e8 a7 cf 00 00       	call   80569ba <array_push>
 8049a13:	83 c4 10             	add    $0x10,%esp
 8049a16:	8b 45 e4             	mov    -0x1c(%ebp),%eax
 8049a19:	8b 40 14             	mov    0x14(%eax),%eax
 8049a1c:	8d 50 01             	lea    0x1(%eax),%edx
 8049a1f:	8b 45 e4             	mov    -0x1c(%ebp),%eax
 8049a22:	89 50 14             	mov    %edx,0x14(%eax)
 8049a25:	90                   	nop
 8049a26:	8b 45 f4             	mov    -0xc(%ebp),%eax
 8049a29:	65 33 05 14 00 00 00 	xor    %gs:0x14,%eax
 8049a30:	74 05                	je     8049a37 <strings__Builder_write_b+0x58>
 8049a32:	e8 e9 ed ff ff       	call   8048820 <__stack_chk_fail@plt>
 8049a37:	c9                   	leave  
 8049a38:	c3                   	ret    

08049a39 <strings__Builder_write>:
 8049a39:	55                   	push   %ebp
 8049a3a:	89 e5                	mov    %esp,%ebp
 8049a3c:	83 ec 08             	sub    $0x8,%esp
 8049a3f:	8b 45 10             	mov    0x10(%ebp),%eax
 8049a42:	85 c0                	test   %eax,%eax
 8049a44:	74 2a                	je     8049a70 <strings__Builder_write+0x37>
 8049a46:	8b 4d 10             	mov    0x10(%ebp),%ecx
 8049a49:	8b 55 0c             	mov    0xc(%ebp),%edx
 8049a4c:	8b 45 08             	mov    0x8(%ebp),%eax
 8049a4f:	83 ec 04             	sub    $0x4,%esp
 8049a52:	51                   	push   %ecx
 8049a53:	52                   	push   %edx
 8049a54:	50                   	push   %eax
 8049a55:	e8 c1 cf 00 00       	call   8056a1b <array_push_many>
 8049a5a:	83 c4 10             	add    $0x10,%esp
 8049a5d:	8b 45 08             	mov    0x8(%ebp),%eax
 8049a60:	8b 50 14             	mov    0x14(%eax),%edx
 8049a63:	8b 45 10             	mov    0x10(%ebp),%eax
 8049a66:	01 c2                	add    %eax,%edx
 8049a68:	8b 45 08             	mov    0x8(%ebp),%eax
 8049a6b:	89 50 14             	mov    %edx,0x14(%eax)
 8049a6e:	eb 01                	jmp    8049a71 <strings__Builder_write+0x38>
 8049a70:	90                   	nop
 8049a71:	c9                   	leave  
 8049a72:	c3                   	ret    

08049a73 <strings__Builder_go_back>:
 8049a73:	55                   	push   %ebp
 8049a74:	89 e5                	mov    %esp,%ebp
 8049a76:	83 ec 08             	sub    $0x8,%esp
 8049a79:	8b 45 08             	mov    0x8(%ebp),%eax
 8049a7c:	8b 40 08             	mov    0x8(%eax),%eax
 8049a7f:	2b 45 0c             	sub    0xc(%ebp),%eax
 8049a82:	89 c2                	mov    %eax,%edx
 8049a84:	8b 45 08             	mov    0x8(%ebp),%eax
 8049a87:	83 ec 08             	sub    $0x8,%esp
 8049a8a:	52                   	push   %edx
 8049a8b:	50                   	push   %eax
 8049a8c:	e8 fe c7 00 00       	call   805628f <array_trim>
 8049a91:	83 c4 10             	add    $0x10,%esp
 8049a94:	8b 45 08             	mov    0x8(%ebp),%eax
 8049a97:	8b 40 14             	mov    0x14(%eax),%eax
 8049a9a:	2b 45 0c             	sub    0xc(%ebp),%eax
 8049a9d:	89 c2                	mov    %eax,%edx
 8049a9f:	8b 45 08             	mov    0x8(%ebp),%eax
 8049aa2:	89 50 14             	mov    %edx,0x14(%eax)
 8049aa5:	90                   	nop
 8049aa6:	c9                   	leave  
 8049aa7:	c3                   	ret    

08049aa8 <strings__bytes2string>:
 8049aa8:	55                   	push   %ebp
 8049aa9:	89 e5                	mov    %esp,%ebp
 8049aab:	83 ec 48             	sub    $0x48,%esp
 8049aae:	8b 45 08             	mov    0x8(%ebp),%eax
 8049ab1:	89 45 c4             	mov    %eax,-0x3c(%ebp)
 8049ab4:	65 a1 14 00 00 00    	mov    %gs:0x14,%eax
 8049aba:	89 45 f4             	mov    %eax,-0xc(%ebp)
 8049abd:	31 c0                	xor    %eax,%eax
 8049abf:	8d 45 e0             	lea    -0x20(%ebp),%eax
 8049ac2:	83 ec 08             	sub    $0x8,%esp
 8049ac5:	8d 55 0c             	lea    0xc(%ebp),%edx
 8049ac8:	52                   	push   %edx
 8049ac9:	50                   	push   %eax
 8049aca:	e8 6b cb 00 00       	call   805663a <array_clone>
 8049acf:	83 c4 0c             	add    $0xc,%esp
 8049ad2:	c6 45 f3 00          	movb   $0x0,-0xd(%ebp)
 8049ad6:	83 ec 08             	sub    $0x8,%esp
 8049ad9:	8d 45 f3             	lea    -0xd(%ebp),%eax
 8049adc:	50                   	push   %eax
 8049add:	8d 45 e0             	lea    -0x20(%ebp),%eax
 8049ae0:	50                   	push   %eax
 8049ae1:	e8 d4 ce 00 00       	call   80569ba <array_push>
 8049ae6:	83 c4 10             	add    $0x10,%esp
 8049ae9:	8b 45 e8             	mov    -0x18(%ebp),%eax
 8049aec:	8d 48 ff             	lea    -0x1(%eax),%ecx
 8049aef:	8b 55 e4             	mov    -0x1c(%ebp),%edx
 8049af2:	8d 45 d4             	lea    -0x2c(%ebp),%eax
 8049af5:	83 ec 04             	sub    $0x4,%esp
 8049af8:	51                   	push   %ecx
 8049af9:	52                   	push   %edx
 8049afa:	50                   	push   %eax
 8049afb:	e8 fa 37 01 00       	call   805d2fa <tos>
 8049b00:	83 c4 0c             	add    $0xc,%esp
 8049b03:	8b 45 c4             	mov    -0x3c(%ebp),%eax
 8049b06:	8b 55 d4             	mov    -0x2c(%ebp),%edx
 8049b09:	89 10                	mov    %edx,(%eax)
 8049b0b:	8b 55 d8             	mov    -0x28(%ebp),%edx
 8049b0e:	89 50 04             	mov    %edx,0x4(%eax)
 8049b11:	8b 55 dc             	mov    -0x24(%ebp),%edx
 8049b14:	89 50 08             	mov    %edx,0x8(%eax)
 8049b17:	8b 45 c4             	mov    -0x3c(%ebp),%eax
 8049b1a:	8b 4d f4             	mov    -0xc(%ebp),%ecx
 8049b1d:	65 33 0d 14 00 00 00 	xor    %gs:0x14,%ecx
 8049b24:	74 05                	je     8049b2b <strings__bytes2string+0x83>
 8049b26:	e8 f5 ec ff ff       	call   8048820 <__stack_chk_fail@plt>
 8049b2b:	c9                   	leave  
 8049b2c:	c2 04 00             	ret    $0x4

08049b2f <strings__Builder_cut_last>:
 8049b2f:	55                   	push   %ebp
 8049b30:	89 e5                	mov    %esp,%ebp
 8049b32:	83 ec 38             	sub    $0x38,%esp
 8049b35:	8b 45 08             	mov    0x8(%ebp),%eax
 8049b38:	89 45 d4             	mov    %eax,-0x2c(%ebp)
 8049b3b:	8b 45 0c             	mov    0xc(%ebp),%eax
 8049b3e:	89 45 d0             	mov    %eax,-0x30(%ebp)
 8049b41:	65 a1 14 00 00 00    	mov    %gs:0x14,%eax
 8049b47:	89 45 f4             	mov    %eax,-0xc(%ebp)
 8049b4a:	31 c0                	xor    %eax,%eax
 8049b4c:	8b 45 d0             	mov    -0x30(%ebp),%eax
 8049b4f:	8b 48 08             	mov    0x8(%eax),%ecx
 8049b52:	8b 45 d0             	mov    -0x30(%ebp),%eax
 8049b55:	8b 40 14             	mov    0x14(%eax),%eax
 8049b58:	2b 45 10             	sub    0x10(%ebp),%eax
 8049b5b:	8d 55 e4             	lea    -0x1c(%ebp),%edx
 8049b5e:	83 ec 04             	sub    $0x4,%esp
 8049b61:	51                   	push   %ecx
 8049b62:	50                   	push   %eax
 8049b63:	8b 45 d0             	mov    -0x30(%ebp),%eax
 8049b66:	ff 70 0c             	pushl  0xc(%eax)
 8049b69:	ff 70 08             	pushl  0x8(%eax)
 8049b6c:	ff 70 04             	pushl  0x4(%eax)
 8049b6f:	ff 30                	pushl  (%eax)
 8049b71:	52                   	push   %edx
 8049b72:	e8 f9 c8 00 00       	call   8056470 <array_slice>
 8049b77:	83 c4 1c             	add    $0x1c,%esp
 8049b7a:	8d 45 d8             	lea    -0x28(%ebp),%eax
 8049b7d:	83 ec 0c             	sub    $0xc,%esp
 8049b80:	ff 75 f0             	pushl  -0x10(%ebp)
 8049b83:	ff 75 ec             	pushl  -0x14(%ebp)
 8049b86:	ff 75 e8             	pushl  -0x18(%ebp)
 8049b89:	ff 75 e4             	pushl  -0x1c(%ebp)
 8049b8c:	50                   	push   %eax
 8049b8d:	e8 16 ff ff ff       	call   8049aa8 <strings__bytes2string>
 8049b92:	83 c4 1c             	add    $0x1c,%esp
 8049b95:	8b 45 d0             	mov    -0x30(%ebp),%eax
 8049b98:	8b 40 08             	mov    0x8(%eax),%eax
 8049b9b:	2b 45 10             	sub    0x10(%ebp),%eax
 8049b9e:	89 c2                	mov    %eax,%edx
 8049ba0:	8b 45 d0             	mov    -0x30(%ebp),%eax
 8049ba3:	83 ec 08             	sub    $0x8,%esp
 8049ba6:	52                   	push   %edx
 8049ba7:	50                   	push   %eax
 8049ba8:	e8 e2 c6 00 00       	call   805628f <array_trim>
 8049bad:	83 c4 10             	add    $0x10,%esp
 8049bb0:	8b 45 d0             	mov    -0x30(%ebp),%eax
 8049bb3:	8b 40 14             	mov    0x14(%eax),%eax
 8049bb6:	2b 45 10             	sub    0x10(%ebp),%eax
 8049bb9:	89 c2                	mov    %eax,%edx
 8049bbb:	8b 45 d0             	mov    -0x30(%ebp),%eax
 8049bbe:	89 50 14             	mov    %edx,0x14(%eax)
 8049bc1:	8b 45 d4             	mov    -0x2c(%ebp),%eax
 8049bc4:	8b 55 d8             	mov    -0x28(%ebp),%edx
 8049bc7:	89 10                	mov    %edx,(%eax)
 8049bc9:	8b 55 dc             	mov    -0x24(%ebp),%edx
 8049bcc:	89 50 04             	mov    %edx,0x4(%eax)
 8049bcf:	8b 55 e0             	mov    -0x20(%ebp),%edx
 8049bd2:	89 50 08             	mov    %edx,0x8(%eax)
 8049bd5:	8b 45 d4             	mov    -0x2c(%ebp),%eax
 8049bd8:	8b 4d f4             	mov    -0xc(%ebp),%ecx
 8049bdb:	65 33 0d 14 00 00 00 	xor    %gs:0x14,%ecx
 8049be2:	74 05                	je     8049be9 <strings__Builder_cut_last+0xba>
 8049be4:	e8 37 ec ff ff       	call   8048820 <__stack_chk_fail@plt>
 8049be9:	c9                   	leave  
 8049bea:	c2 04 00             	ret    $0x4

08049bed <strings__Builder_go_back_to>:
 8049bed:	55                   	push   %ebp
 8049bee:	89 e5                	mov    %esp,%ebp
 8049bf0:	83 ec 08             	sub    $0x8,%esp
 8049bf3:	8b 45 08             	mov    0x8(%ebp),%eax
 8049bf6:	83 ec 08             	sub    $0x8,%esp
 8049bf9:	ff 75 0c             	pushl  0xc(%ebp)
 8049bfc:	50                   	push   %eax
 8049bfd:	e8 8d c6 00 00       	call   805628f <array_trim>
 8049c02:	83 c4 10             	add    $0x10,%esp
 8049c05:	8b 45 08             	mov    0x8(%ebp),%eax
 8049c08:	8b 55 0c             	mov    0xc(%ebp),%edx
 8049c0b:	89 50 14             	mov    %edx,0x14(%eax)
 8049c0e:	90                   	nop
 8049c0f:	c9                   	leave  
 8049c10:	c3                   	ret    

08049c11 <strings__Builder_writeln>:
 8049c11:	55                   	push   %ebp
 8049c12:	89 e5                	mov    %esp,%ebp
 8049c14:	83 ec 28             	sub    $0x28,%esp
 8049c17:	8b 45 08             	mov    0x8(%ebp),%eax
 8049c1a:	89 45 e4             	mov    %eax,-0x1c(%ebp)
 8049c1d:	65 a1 14 00 00 00    	mov    %gs:0x14,%eax
 8049c23:	89 45 f4             	mov    %eax,-0xc(%ebp)
 8049c26:	31 c0                	xor    %eax,%eax
 8049c28:	8b 4d 10             	mov    0x10(%ebp),%ecx
 8049c2b:	8b 55 0c             	mov    0xc(%ebp),%edx
 8049c2e:	8b 45 e4             	mov    -0x1c(%ebp),%eax
 8049c31:	83 ec 04             	sub    $0x4,%esp
 8049c34:	51                   	push   %ecx
 8049c35:	52                   	push   %edx
 8049c36:	50                   	push   %eax
 8049c37:	e8 df cd 00 00       	call   8056a1b <array_push_many>
 8049c3c:	83 c4 10             	add    $0x10,%esp
 8049c3f:	c6 45 f3 0a          	movb   $0xa,-0xd(%ebp)
 8049c43:	8b 45 e4             	mov    -0x1c(%ebp),%eax
 8049c46:	83 ec 08             	sub    $0x8,%esp
 8049c49:	8d 55 f3             	lea    -0xd(%ebp),%edx
 8049c4c:	52                   	push   %edx
 8049c4d:	50                   	push   %eax
 8049c4e:	e8 67 cd 00 00       	call   80569ba <array_push>
 8049c53:	83 c4 10             	add    $0x10,%esp
 8049c56:	8b 45 e4             	mov    -0x1c(%ebp),%eax
 8049c59:	8b 40 14             	mov    0x14(%eax),%eax
 8049c5c:	8b 55 10             	mov    0x10(%ebp),%edx
 8049c5f:	83 c2 01             	add    $0x1,%edx
 8049c62:	01 c2                	add    %eax,%edx
 8049c64:	8b 45 e4             	mov    -0x1c(%ebp),%eax
 8049c67:	89 50 14             	mov    %edx,0x14(%eax)
 8049c6a:	90                   	nop
 8049c6b:	8b 45 f4             	mov    -0xc(%ebp),%eax
 8049c6e:	65 33 05 14 00 00 00 	xor    %gs:0x14,%eax
 8049c75:	74 05                	je     8049c7c <strings__Builder_writeln+0x6b>
 8049c77:	e8 a4 eb ff ff       	call   8048820 <__stack_chk_fail@plt>
 8049c7c:	c9                   	leave  
 8049c7d:	c3                   	ret    

08049c7e <strings__Builder_last_n>:
 8049c7e:	55                   	push   %ebp
 8049c7f:	89 e5                	mov    %esp,%ebp
 8049c81:	83 ec 38             	sub    $0x38,%esp
 8049c84:	8b 45 08             	mov    0x8(%ebp),%eax
 8049c87:	89 45 d4             	mov    %eax,-0x2c(%ebp)
 8049c8a:	8b 45 0c             	mov    0xc(%ebp),%eax
 8049c8d:	89 45 d0             	mov    %eax,-0x30(%ebp)
 8049c90:	65 a1 14 00 00 00    	mov    %gs:0x14,%eax
 8049c96:	89 45 f4             	mov    %eax,-0xc(%ebp)
 8049c99:	31 c0                	xor    %eax,%eax
 8049c9b:	8b 45 d0             	mov    -0x30(%ebp),%eax
 8049c9e:	8b 40 14             	mov    0x14(%eax),%eax
 8049ca1:	3b 45 10             	cmp    0x10(%ebp),%eax
 8049ca4:	7d 1f                	jge    8049cc5 <strings__Builder_last_n+0x47>
 8049ca6:	8b 45 d4             	mov    -0x2c(%ebp),%eax
 8049ca9:	c7 00 34 97 06 08    	movl   $0x8069734,(%eax)
 8049caf:	8b 45 d4             	mov    -0x2c(%ebp),%eax
 8049cb2:	c7 40 04 00 00 00 00 	movl   $0x0,0x4(%eax)
 8049cb9:	8b 45 d4             	mov    -0x2c(%ebp),%eax
 8049cbc:	c7 40 08 01 00 00 00 	movl   $0x1,0x8(%eax)
 8049cc3:	eb 49                	jmp    8049d0e <strings__Builder_last_n+0x90>
 8049cc5:	8b 45 d0             	mov    -0x30(%ebp),%eax
 8049cc8:	8b 48 08             	mov    0x8(%eax),%ecx
 8049ccb:	8b 45 d0             	mov    -0x30(%ebp),%eax
 8049cce:	8b 40 14             	mov    0x14(%eax),%eax
 8049cd1:	2b 45 10             	sub    0x10(%ebp),%eax
 8049cd4:	8d 55 e4             	lea    -0x1c(%ebp),%edx
 8049cd7:	83 ec 04             	sub    $0x4,%esp
 8049cda:	51                   	push   %ecx
 8049cdb:	50                   	push   %eax
 8049cdc:	8b 45 d0             	mov    -0x30(%ebp),%eax
 8049cdf:	ff 70 0c             	pushl  0xc(%eax)
 8049ce2:	ff 70 08             	pushl  0x8(%eax)
 8049ce5:	ff 70 04             	pushl  0x4(%eax)
 8049ce8:	ff 30                	pushl  (%eax)
 8049cea:	52                   	push   %edx
 8049ceb:	e8 80 c7 00 00       	call   8056470 <array_slice>
 8049cf0:	83 c4 1c             	add    $0x1c,%esp
 8049cf3:	8b 45 d4             	mov    -0x2c(%ebp),%eax
 8049cf6:	83 ec 0c             	sub    $0xc,%esp
 8049cf9:	ff 75 f0             	pushl  -0x10(%ebp)
 8049cfc:	ff 75 ec             	pushl  -0x14(%ebp)
 8049cff:	ff 75 e8             	pushl  -0x18(%ebp)
 8049d02:	ff 75 e4             	pushl  -0x1c(%ebp)
 8049d05:	50                   	push   %eax
 8049d06:	e8 9d fd ff ff       	call   8049aa8 <strings__bytes2string>
 8049d0b:	83 c4 1c             	add    $0x1c,%esp
 8049d0e:	8b 45 d4             	mov    -0x2c(%ebp),%eax
 8049d11:	8b 55 f4             	mov    -0xc(%ebp),%edx
 8049d14:	65 33 15 14 00 00 00 	xor    %gs:0x14,%edx
 8049d1b:	74 05                	je     8049d22 <strings__Builder_last_n+0xa4>
 8049d1d:	e8 fe ea ff ff       	call   8048820 <__stack_chk_fail@plt>
 8049d22:	c9                   	leave  
 8049d23:	c2 04 00             	ret    $0x4

08049d26 <strings__Builder_after>:
 8049d26:	55                   	push   %ebp
 8049d27:	89 e5                	mov    %esp,%ebp
 8049d29:	83 ec 38             	sub    $0x38,%esp
 8049d2c:	8b 45 08             	mov    0x8(%ebp),%eax
 8049d2f:	89 45 d4             	mov    %eax,-0x2c(%ebp)
 8049d32:	8b 45 0c             	mov    0xc(%ebp),%eax
 8049d35:	89 45 d0             	mov    %eax,-0x30(%ebp)
 8049d38:	65 a1 14 00 00 00    	mov    %gs:0x14,%eax
 8049d3e:	89 45 f4             	mov    %eax,-0xc(%ebp)
 8049d41:	31 c0                	xor    %eax,%eax
 8049d43:	8b 45 d0             	mov    -0x30(%ebp),%eax
 8049d46:	8b 40 14             	mov    0x14(%eax),%eax
 8049d49:	3b 45 10             	cmp    0x10(%ebp),%eax
 8049d4c:	7f 1f                	jg     8049d6d <strings__Builder_after+0x47>
 8049d4e:	8b 45 d4             	mov    -0x2c(%ebp),%eax
 8049d51:	c7 00 34 97 06 08    	movl   $0x8069734,(%eax)
 8049d57:	8b 45 d4             	mov    -0x2c(%ebp),%eax
 8049d5a:	c7 40 04 00 00 00 00 	movl   $0x0,0x4(%eax)
 8049d61:	8b 45 d4             	mov    -0x2c(%ebp),%eax
 8049d64:	c7 40 08 01 00 00 00 	movl   $0x1,0x8(%eax)
 8049d6b:	eb 42                	jmp    8049daf <strings__Builder_after+0x89>
 8049d6d:	8b 45 d0             	mov    -0x30(%ebp),%eax
 8049d70:	8b 40 08             	mov    0x8(%eax),%eax
 8049d73:	8d 55 e4             	lea    -0x1c(%ebp),%edx
 8049d76:	83 ec 04             	sub    $0x4,%esp
 8049d79:	50                   	push   %eax
 8049d7a:	ff 75 10             	pushl  0x10(%ebp)
 8049d7d:	8b 45 d0             	mov    -0x30(%ebp),%eax
 8049d80:	ff 70 0c             	pushl  0xc(%eax)
 8049d83:	ff 70 08             	pushl  0x8(%eax)
 8049d86:	ff 70 04             	pushl  0x4(%eax)
 8049d89:	ff 30                	pushl  (%eax)
 8049d8b:	52                   	push   %edx
 8049d8c:	e8 df c6 00 00       	call   8056470 <array_slice>
 8049d91:	83 c4 1c             	add    $0x1c,%esp
 8049d94:	8b 45 d4             	mov    -0x2c(%ebp),%eax
 8049d97:	83 ec 0c             	sub    $0xc,%esp
 8049d9a:	ff 75 f0             	pushl  -0x10(%ebp)
 8049d9d:	ff 75 ec             	pushl  -0x14(%ebp)
 8049da0:	ff 75 e8             	pushl  -0x18(%ebp)
 8049da3:	ff 75 e4             	pushl  -0x1c(%ebp)
 8049da6:	50                   	push   %eax
 8049da7:	e8 fc fc ff ff       	call   8049aa8 <strings__bytes2string>
 8049dac:	83 c4 1c             	add    $0x1c,%esp
 8049daf:	8b 45 d4             	mov    -0x2c(%ebp),%eax
 8049db2:	8b 4d f4             	mov    -0xc(%ebp),%ecx
 8049db5:	65 33 0d 14 00 00 00 	xor    %gs:0x14,%ecx
 8049dbc:	74 05                	je     8049dc3 <strings__Builder_after+0x9d>
 8049dbe:	e8 5d ea ff ff       	call   8048820 <__stack_chk_fail@plt>
 8049dc3:	c9                   	leave  
 8049dc4:	c2 04 00             	ret    $0x4

08049dc7 <strings__Builder_str>:
 8049dc7:	55                   	push   %ebp
 8049dc8:	89 e5                	mov    %esp,%ebp
 8049dca:	53                   	push   %ebx
 8049dcb:	83 ec 54             	sub    $0x54,%esp
 8049dce:	8b 45 08             	mov    0x8(%ebp),%eax
 8049dd1:	89 45 c4             	mov    %eax,-0x3c(%ebp)
 8049dd4:	8b 45 0c             	mov    0xc(%ebp),%eax
 8049dd7:	89 45 c0             	mov    %eax,-0x40(%ebp)
 8049dda:	65 a1 14 00 00 00    	mov    %gs:0x14,%eax
 8049de0:	89 45 f4             	mov    %eax,-0xc(%ebp)
 8049de3:	31 c0                	xor    %eax,%eax
 8049de5:	8b 45 c0             	mov    -0x40(%ebp),%eax
 8049de8:	8b 40 10             	mov    0x10(%eax),%eax
 8049deb:	8d 50 01             	lea    0x1(%eax),%edx
 8049dee:	8b 45 c0             	mov    -0x40(%ebp),%eax
 8049df1:	89 50 10             	mov    %edx,0x10(%eax)
 8049df4:	8b 45 c0             	mov    -0x40(%ebp),%eax
 8049df7:	8b 40 10             	mov    0x10(%eax),%eax
 8049dfa:	83 f8 01             	cmp    $0x1,%eax
 8049dfd:	7e 29                	jle    8049e28 <strings__Builder_str+0x61>
 8049dff:	c7 45 d8 38 97 06 08 	movl   $0x8069738,-0x28(%ebp)
 8049e06:	c7 45 dc 5e 00 00 00 	movl   $0x5e,-0x24(%ebp)
 8049e0d:	c7 45 e0 01 00 00 00 	movl   $0x1,-0x20(%ebp)
 8049e14:	83 ec 04             	sub    $0x4,%esp
 8049e17:	ff 75 e0             	pushl  -0x20(%ebp)
 8049e1a:	ff 75 dc             	pushl  -0x24(%ebp)
 8049e1d:	ff 75 d8             	pushl  -0x28(%ebp)
 8049e20:	e8 72 d9 00 00       	call   8057797 <v_panic>
 8049e25:	83 c4 10             	add    $0x10,%esp
 8049e28:	c6 45 f3 00          	movb   $0x0,-0xd(%ebp)
 8049e2c:	8b 45 c0             	mov    -0x40(%ebp),%eax
 8049e2f:	83 ec 08             	sub    $0x8,%esp
 8049e32:	8d 55 f3             	lea    -0xd(%ebp),%edx
 8049e35:	52                   	push   %edx
 8049e36:	50                   	push   %eax
 8049e37:	e8 7e cb 00 00       	call   80569ba <array_push>
 8049e3c:	83 c4 10             	add    $0x10,%esp
 8049e3f:	8b 45 c0             	mov    -0x40(%ebp),%eax
 8049e42:	8b 48 14             	mov    0x14(%eax),%ecx
 8049e45:	8b 45 c0             	mov    -0x40(%ebp),%eax
 8049e48:	8b 50 04             	mov    0x4(%eax),%edx
 8049e4b:	8d 45 e4             	lea    -0x1c(%ebp),%eax
 8049e4e:	83 ec 04             	sub    $0x4,%esp
 8049e51:	51                   	push   %ecx
 8049e52:	52                   	push   %edx
 8049e53:	50                   	push   %eax
 8049e54:	e8 a1 34 01 00       	call   805d2fa <tos>
 8049e59:	83 c4 0c             	add    $0xc,%esp
 8049e5c:	8b 45 c0             	mov    -0x40(%ebp),%eax
 8049e5f:	8b 40 18             	mov    0x18(%eax),%eax
 8049e62:	89 45 d4             	mov    %eax,-0x2c(%ebp)
 8049e65:	8b 5d c0             	mov    -0x40(%ebp),%ebx
 8049e68:	8d 45 a8             	lea    -0x58(%ebp),%eax
 8049e6b:	83 ec 0c             	sub    $0xc,%esp
 8049e6e:	6a 00                	push   $0x0
 8049e70:	6a 01                	push   $0x1
 8049e72:	ff 75 d4             	pushl  -0x2c(%ebp)
 8049e75:	6a 00                	push   $0x0
 8049e77:	50                   	push   %eax
 8049e78:	e8 ec bb 00 00       	call   8055a69 <__new_array_with_default>
 8049e7d:	83 c4 1c             	add    $0x1c,%esp
 8049e80:	8b 45 a8             	mov    -0x58(%ebp),%eax
 8049e83:	89 03                	mov    %eax,(%ebx)
 8049e85:	8b 45 ac             	mov    -0x54(%ebp),%eax
 8049e88:	89 43 04             	mov    %eax,0x4(%ebx)
 8049e8b:	8b 45 b0             	mov    -0x50(%ebp),%eax
 8049e8e:	89 43 08             	mov    %eax,0x8(%ebx)
 8049e91:	8b 45 b4             	mov    -0x4c(%ebp),%eax
 8049e94:	89 43 0c             	mov    %eax,0xc(%ebx)
 8049e97:	8b 45 c0             	mov    -0x40(%ebp),%eax
 8049e9a:	c7 40 14 00 00 00 00 	movl   $0x0,0x14(%eax)
 8049ea1:	8b 45 c4             	mov    -0x3c(%ebp),%eax
 8049ea4:	8b 55 e4             	mov    -0x1c(%ebp),%edx
 8049ea7:	89 10                	mov    %edx,(%eax)
 8049ea9:	8b 55 e8             	mov    -0x18(%ebp),%edx
 8049eac:	89 50 04             	mov    %edx,0x4(%eax)
 8049eaf:	8b 55 ec             	mov    -0x14(%ebp),%edx
 8049eb2:	89 50 08             	mov    %edx,0x8(%eax)
 8049eb5:	8b 45 c4             	mov    -0x3c(%ebp),%eax
 8049eb8:	8b 4d f4             	mov    -0xc(%ebp),%ecx
 8049ebb:	65 33 0d 14 00 00 00 	xor    %gs:0x14,%ecx
 8049ec2:	74 05                	je     8049ec9 <strings__Builder_str+0x102>
 8049ec4:	e8 57 e9 ff ff       	call   8048820 <__stack_chk_fail@plt>
 8049ec9:	8b 5d fc             	mov    -0x4(%ebp),%ebx
 8049ecc:	c9                   	leave  
 8049ecd:	c2 04 00             	ret    $0x4

08049ed0 <strings__Builder_free>:
 8049ed0:	55                   	push   %ebp
 8049ed1:	89 e5                	mov    %esp,%ebp
 8049ed3:	83 ec 08             	sub    $0x8,%esp
 8049ed6:	8b 45 08             	mov    0x8(%ebp),%eax
 8049ed9:	8b 40 04             	mov    0x4(%eax),%eax
 8049edc:	83 ec 0c             	sub    $0xc,%esp
 8049edf:	50                   	push   %eax
 8049ee0:	e8 ca db 00 00       	call   8057aaf <v_free>
 8049ee5:	83 c4 10             	add    $0x10,%esp
 8049ee8:	8b 45 08             	mov    0x8(%ebp),%eax
 8049eeb:	c7 40 14 00 00 00 00 	movl   $0x0,0x14(%eax)
 8049ef2:	8b 45 08             	mov    0x8(%ebp),%eax
 8049ef5:	c7 40 10 00 00 00 00 	movl   $0x0,0x10(%eax)
 8049efc:	90                   	nop
 8049efd:	c9                   	leave  
 8049efe:	c3                   	ret    

08049eff <strings__levenshtein_distance>:
 8049eff:	55                   	push   %ebp
 8049f00:	89 e5                	mov    %esp,%ebp
 8049f02:	53                   	push   %ebx
 8049f03:	83 ec 54             	sub    $0x54,%esp
 8049f06:	65 a1 14 00 00 00    	mov    %gs:0x14,%eax
 8049f0c:	89 45 f4             	mov    %eax,-0xc(%ebp)
 8049f0f:	31 c0                	xor    %eax,%eax
 8049f11:	8b 45 18             	mov    0x18(%ebp),%eax
 8049f14:	8d 58 01             	lea    0x1(%eax),%ebx
 8049f17:	c7 45 e8 00 00 00 00 	movl   $0x0,-0x18(%ebp)
 8049f1e:	8d 45 d8             	lea    -0x28(%ebp),%eax
 8049f21:	83 ec 0c             	sub    $0xc,%esp
 8049f24:	8d 55 e8             	lea    -0x18(%ebp),%edx
 8049f27:	52                   	push   %edx
 8049f28:	6a 04                	push   $0x4
 8049f2a:	6a 01                	push   $0x1
 8049f2c:	6a 01                	push   $0x1
 8049f2e:	50                   	push   %eax
 8049f2f:	e8 a5 bc 00 00       	call   8055bd9 <new_array_from_c_array>
 8049f34:	83 c4 1c             	add    $0x1c,%esp
 8049f37:	8d 45 c8             	lea    -0x38(%ebp),%eax
 8049f3a:	83 ec 08             	sub    $0x8,%esp
 8049f3d:	53                   	push   %ebx
 8049f3e:	ff 75 e4             	pushl  -0x1c(%ebp)
 8049f41:	ff 75 e0             	pushl  -0x20(%ebp)
 8049f44:	ff 75 dc             	pushl  -0x24(%ebp)
 8049f47:	ff 75 d8             	pushl  -0x28(%ebp)
 8049f4a:	50                   	push   %eax
 8049f4b:	e8 dc bd 00 00       	call   8055d2c <array_repeat>
 8049f50:	83 c4 1c             	add    $0x1c,%esp
 8049f53:	c7 45 b0 00 00 00 00 	movl   $0x0,-0x50(%ebp)
 8049f5a:	eb 20                	jmp    8049f7c <strings__levenshtein_distance+0x7d>
 8049f5c:	8b 45 b0             	mov    -0x50(%ebp),%eax
 8049f5f:	89 45 ec             	mov    %eax,-0x14(%ebp)
 8049f62:	83 ec 04             	sub    $0x4,%esp
 8049f65:	8d 45 ec             	lea    -0x14(%ebp),%eax
 8049f68:	50                   	push   %eax
 8049f69:	ff 75 b0             	pushl  -0x50(%ebp)
 8049f6c:	8d 45 c8             	lea    -0x38(%ebp),%eax
 8049f6f:	50                   	push   %eax
 8049f70:	e8 a7 c9 00 00       	call   805691c <array_set>
 8049f75:	83 c4 10             	add    $0x10,%esp
 8049f78:	83 45 b0 01          	addl   $0x1,-0x50(%ebp)
 8049f7c:	8b 45 d0             	mov    -0x30(%ebp),%eax
 8049f7f:	3b 45 b0             	cmp    -0x50(%ebp),%eax
 8049f82:	7f d8                	jg     8049f5c <strings__levenshtein_distance+0x5d>
 8049f84:	c7 45 b4 00 00 00 00 	movl   $0x0,-0x4c(%ebp)
 8049f8b:	e9 76 01 00 00       	jmp    804a106 <strings__levenshtein_distance+0x207>
 8049f90:	8b 55 08             	mov    0x8(%ebp),%edx
 8049f93:	8b 45 b4             	mov    -0x4c(%ebp),%eax
 8049f96:	01 d0                	add    %edx,%eax
 8049f98:	0f b6 00             	movzbl (%eax),%eax
 8049f9b:	88 45 ae             	mov    %al,-0x52(%ebp)
 8049f9e:	c7 45 b8 01 00 00 00 	movl   $0x1,-0x48(%ebp)
 8049fa5:	83 ec 0c             	sub    $0xc,%esp
 8049fa8:	6a 00                	push   $0x0
 8049faa:	ff 75 d4             	pushl  -0x2c(%ebp)
 8049fad:	ff 75 d0             	pushl  -0x30(%ebp)
 8049fb0:	ff 75 cc             	pushl  -0x34(%ebp)
 8049fb3:	ff 75 c8             	pushl  -0x38(%ebp)
 8049fb6:	e8 ff c2 00 00       	call   80562ba <array_get>
 8049fbb:	83 c4 20             	add    $0x20,%esp
 8049fbe:	8b 00                	mov    (%eax),%eax
 8049fc0:	89 45 bc             	mov    %eax,-0x44(%ebp)
 8049fc3:	83 ec 0c             	sub    $0xc,%esp
 8049fc6:	6a 00                	push   $0x0
 8049fc8:	ff 75 d4             	pushl  -0x2c(%ebp)
 8049fcb:	ff 75 d0             	pushl  -0x30(%ebp)
 8049fce:	ff 75 cc             	pushl  -0x34(%ebp)
 8049fd1:	ff 75 c8             	pushl  -0x38(%ebp)
 8049fd4:	e8 e1 c2 00 00       	call   80562ba <array_get>
 8049fd9:	83 c4 20             	add    $0x20,%esp
 8049fdc:	8b 10                	mov    (%eax),%edx
 8049fde:	83 c2 01             	add    $0x1,%edx
 8049fe1:	89 10                	mov    %edx,(%eax)
 8049fe3:	c7 45 c0 00 00 00 00 	movl   $0x0,-0x40(%ebp)
 8049fea:	e9 07 01 00 00       	jmp    804a0f6 <strings__levenshtein_distance+0x1f7>
 8049fef:	8b 55 14             	mov    0x14(%ebp),%edx
 8049ff2:	8b 45 c0             	mov    -0x40(%ebp),%eax
 8049ff5:	01 d0                	add    %edx,%eax
 8049ff7:	0f b6 00             	movzbl (%eax),%eax
 8049ffa:	88 45 af             	mov    %al,-0x51(%ebp)
 8049ffd:	83 ec 0c             	sub    $0xc,%esp
 804a000:	ff 75 b8             	pushl  -0x48(%ebp)
 804a003:	ff 75 d4             	pushl  -0x2c(%ebp)
 804a006:	ff 75 d0             	pushl  -0x30(%ebp)
 804a009:	ff 75 cc             	pushl  -0x34(%ebp)
 804a00c:	ff 75 c8             	pushl  -0x38(%ebp)
 804a00f:	e8 a6 c2 00 00       	call   80562ba <array_get>
 804a014:	83 c4 20             	add    $0x20,%esp
 804a017:	8b 00                	mov    (%eax),%eax
 804a019:	8d 58 01             	lea    0x1(%eax),%ebx
 804a01c:	8b 45 b8             	mov    -0x48(%ebp),%eax
 804a01f:	83 e8 01             	sub    $0x1,%eax
 804a022:	83 ec 0c             	sub    $0xc,%esp
 804a025:	50                   	push   %eax
 804a026:	ff 75 d4             	pushl  -0x2c(%ebp)
 804a029:	ff 75 d0             	pushl  -0x30(%ebp)
 804a02c:	ff 75 cc             	pushl  -0x34(%ebp)
 804a02f:	ff 75 c8             	pushl  -0x38(%ebp)
 804a032:	e8 83 c2 00 00       	call   80562ba <array_get>
 804a037:	83 c4 20             	add    $0x20,%esp
 804a03a:	8b 00                	mov    (%eax),%eax
 804a03c:	83 c0 01             	add    $0x1,%eax
 804a03f:	39 c3                	cmp    %eax,%ebx
 804a041:	7f 21                	jg     804a064 <strings__levenshtein_distance+0x165>
 804a043:	83 ec 0c             	sub    $0xc,%esp
 804a046:	ff 75 b8             	pushl  -0x48(%ebp)
 804a049:	ff 75 d4             	pushl  -0x2c(%ebp)
 804a04c:	ff 75 d0             	pushl  -0x30(%ebp)
 804a04f:	ff 75 cc             	pushl  -0x34(%ebp)
 804a052:	ff 75 c8             	pushl  -0x38(%ebp)
 804a055:	e8 60 c2 00 00       	call   80562ba <array_get>
 804a05a:	83 c4 20             	add    $0x20,%esp
 804a05d:	8b 00                	mov    (%eax),%eax
 804a05f:	83 c0 01             	add    $0x1,%eax
 804a062:	eb 23                	jmp    804a087 <strings__levenshtein_distance+0x188>
 804a064:	8b 45 b8             	mov    -0x48(%ebp),%eax
 804a067:	83 e8 01             	sub    $0x1,%eax
 804a06a:	83 ec 0c             	sub    $0xc,%esp
 804a06d:	50                   	push   %eax
 804a06e:	ff 75 d4             	pushl  -0x2c(%ebp)
 804a071:	ff 75 d0             	pushl  -0x30(%ebp)
 804a074:	ff 75 cc             	pushl  -0x34(%ebp)
 804a077:	ff 75 c8             	pushl  -0x38(%ebp)
 804a07a:	e8 3b c2 00 00       	call   80562ba <array_get>
 804a07f:	83 c4 20             	add    $0x20,%esp
 804a082:	8b 00                	mov    (%eax),%eax
 804a084:	83 c0 01             	add    $0x1,%eax
 804a087:	89 45 c4             	mov    %eax,-0x3c(%ebp)
 804a08a:	0f b6 45 af          	movzbl -0x51(%ebp),%eax
 804a08e:	3a 45 ae             	cmp    -0x52(%ebp),%al
 804a091:	74 13                	je     804a0a6 <strings__levenshtein_distance+0x1a7>
 804a093:	8b 45 bc             	mov    -0x44(%ebp),%eax
 804a096:	8d 50 01             	lea    0x1(%eax),%edx
 804a099:	8b 45 c4             	mov    -0x3c(%ebp),%eax
 804a09c:	39 c2                	cmp    %eax,%edx
 804a09e:	0f 4e c2             	cmovle %edx,%eax
 804a0a1:	89 45 c4             	mov    %eax,-0x3c(%ebp)
 804a0a4:	eb 0d                	jmp    804a0b3 <strings__levenshtein_distance+0x1b4>
 804a0a6:	8b 45 bc             	mov    -0x44(%ebp),%eax
 804a0a9:	39 45 c4             	cmp    %eax,-0x3c(%ebp)
 804a0ac:	0f 4e 45 c4          	cmovle -0x3c(%ebp),%eax
 804a0b0:	89 45 c4             	mov    %eax,-0x3c(%ebp)
 804a0b3:	83 ec 0c             	sub    $0xc,%esp
 804a0b6:	ff 75 b8             	pushl  -0x48(%ebp)
 804a0b9:	ff 75 d4             	pushl  -0x2c(%ebp)
 804a0bc:	ff 75 d0             	pushl  -0x30(%ebp)
 804a0bf:	ff 75 cc             	pushl  -0x34(%ebp)
 804a0c2:	ff 75 c8             	pushl  -0x38(%ebp)
 804a0c5:	e8 f0 c1 00 00       	call   80562ba <array_get>
 804a0ca:	83 c4 20             	add    $0x20,%esp
 804a0cd:	8b 00                	mov    (%eax),%eax
 804a0cf:	89 45 bc             	mov    %eax,-0x44(%ebp)
 804a0d2:	8b 45 c4             	mov    -0x3c(%ebp),%eax
 804a0d5:	89 45 f0             	mov    %eax,-0x10(%ebp)
 804a0d8:	83 ec 04             	sub    $0x4,%esp
 804a0db:	8d 45 f0             	lea    -0x10(%ebp),%eax
 804a0de:	50                   	push   %eax
 804a0df:	ff 75 b8             	pushl  -0x48(%ebp)
 804a0e2:	8d 45 c8             	lea    -0x38(%ebp),%eax
 804a0e5:	50                   	push   %eax
 804a0e6:	e8 31 c8 00 00       	call   805691c <array_set>
 804a0eb:	83 c4 10             	add    $0x10,%esp
 804a0ee:	83 45 b8 01          	addl   $0x1,-0x48(%ebp)
 804a0f2:	83 45 c0 01          	addl   $0x1,-0x40(%ebp)
 804a0f6:	8b 45 18             	mov    0x18(%ebp),%eax
 804a0f9:	3b 45 c0             	cmp    -0x40(%ebp),%eax
 804a0fc:	0f 8f ed fe ff ff    	jg     8049fef <strings__levenshtein_distance+0xf0>
 804a102:	83 45 b4 01          	addl   $0x1,-0x4c(%ebp)
 804a106:	8b 45 0c             	mov    0xc(%ebp),%eax
 804a109:	3b 45 b4             	cmp    -0x4c(%ebp),%eax
 804a10c:	0f 8f 7e fe ff ff    	jg     8049f90 <strings__levenshtein_distance+0x91>
 804a112:	8b 45 d0             	mov    -0x30(%ebp),%eax
 804a115:	83 e8 01             	sub    $0x1,%eax
 804a118:	83 ec 0c             	sub    $0xc,%esp
 804a11b:	50                   	push   %eax
 804a11c:	ff 75 d4             	pushl  -0x2c(%ebp)
 804a11f:	ff 75 d0             	pushl  -0x30(%ebp)
 804a122:	ff 75 cc             	pushl  -0x34(%ebp)
 804a125:	ff 75 c8             	pushl  -0x38(%ebp)
 804a128:	e8 8d c1 00 00       	call   80562ba <array_get>
 804a12d:	83 c4 20             	add    $0x20,%esp
 804a130:	8b 00                	mov    (%eax),%eax
 804a132:	8b 4d f4             	mov    -0xc(%ebp),%ecx
 804a135:	65 33 0d 14 00 00 00 	xor    %gs:0x14,%ecx
 804a13c:	74 05                	je     804a143 <strings__levenshtein_distance+0x244>
 804a13e:	e8 dd e6 ff ff       	call   8048820 <__stack_chk_fail@plt>
 804a143:	8b 5d fc             	mov    -0x4(%ebp),%ebx
 804a146:	c9                   	leave  
 804a147:	c3                   	ret    

0804a148 <strings__levenshtein_distance_percentage>:
 804a148:	55                   	push   %ebp
 804a149:	89 e5                	mov    %esp,%ebp
 804a14b:	83 ec 28             	sub    $0x28,%esp
 804a14e:	83 ec 08             	sub    $0x8,%esp
 804a151:	ff 75 1c             	pushl  0x1c(%ebp)
 804a154:	ff 75 18             	pushl  0x18(%ebp)
 804a157:	ff 75 14             	pushl  0x14(%ebp)
 804a15a:	ff 75 10             	pushl  0x10(%ebp)
 804a15d:	ff 75 0c             	pushl  0xc(%ebp)
 804a160:	ff 75 08             	pushl  0x8(%ebp)
 804a163:	e8 97 fd ff ff       	call   8049eff <strings__levenshtein_distance>
 804a168:	83 c4 20             	add    $0x20,%esp
 804a16b:	89 45 f0             	mov    %eax,-0x10(%ebp)
 804a16e:	8b 55 0c             	mov    0xc(%ebp),%edx
 804a171:	8b 45 18             	mov    0x18(%ebp),%eax
 804a174:	39 c2                	cmp    %eax,%edx
 804a176:	0f 4d c2             	cmovge %edx,%eax
 804a179:	89 45 f4             	mov    %eax,-0xc(%ebp)
 804a17c:	db 45 f0             	fildl  -0x10(%ebp)
 804a17f:	db 45 f4             	fildl  -0xc(%ebp)
 804a182:	de f9                	fdivrp %st,%st(1)
 804a184:	d9 e8                	fld1   
 804a186:	de e1                	fsubp  %st,%st(1)
 804a188:	dd 05 b8 bc 06 08    	fldl   0x806bcb8
 804a18e:	de c9                	fmulp  %st,%st(1)
 804a190:	d9 5d e4             	fstps  -0x1c(%ebp)
 804a193:	d9 45 e4             	flds   -0x1c(%ebp)
 804a196:	c9                   	leave  
 804a197:	c3                   	ret    

0804a198 <strings__dice_coefficient>:
 804a198:	55                   	push   %ebp
 804a199:	89 e5                	mov    %esp,%ebp
 804a19b:	57                   	push   %edi
 804a19c:	56                   	push   %esi
 804a19d:	81 ec 40 02 00 00    	sub    $0x240,%esp
 804a1a3:	65 a1 14 00 00 00    	mov    %gs:0x14,%eax
 804a1a9:	89 45 f4             	mov    %eax,-0xc(%ebp)
 804a1ac:	31 c0                	xor    %eax,%eax
 804a1ae:	8b 45 0c             	mov    0xc(%ebp),%eax
 804a1b1:	85 c0                	test   %eax,%eax
 804a1b3:	74 07                	je     804a1bc <strings__dice_coefficient+0x24>
 804a1b5:	8b 45 18             	mov    0x18(%ebp),%eax
 804a1b8:	85 c0                	test   %eax,%eax
 804a1ba:	75 07                	jne    804a1c3 <strings__dice_coefficient+0x2b>
 804a1bc:	d9 ee                	fldz   
 804a1be:	e9 61 04 00 00       	jmp    804a624 <strings__dice_coefficient+0x48c>
 804a1c3:	83 ec 08             	sub    $0x8,%esp
 804a1c6:	ff 75 1c             	pushl  0x1c(%ebp)
 804a1c9:	ff 75 18             	pushl  0x18(%ebp)
 804a1cc:	ff 75 14             	pushl  0x14(%ebp)
 804a1cf:	ff 75 10             	pushl  0x10(%ebp)
 804a1d2:	ff 75 0c             	pushl  0xc(%ebp)
 804a1d5:	ff 75 08             	pushl  0x8(%ebp)
 804a1d8:	e8 77 3e 01 00       	call   805e054 <string_eq>
 804a1dd:	83 c4 20             	add    $0x20,%esp
 804a1e0:	85 c0                	test   %eax,%eax
 804a1e2:	74 07                	je     804a1eb <strings__dice_coefficient+0x53>
 804a1e4:	d9 e8                	fld1   
 804a1e6:	e9 39 04 00 00       	jmp    804a624 <strings__dice_coefficient+0x48c>
 804a1eb:	8b 45 0c             	mov    0xc(%ebp),%eax
 804a1ee:	83 f8 01             	cmp    $0x1,%eax
 804a1f1:	7e 08                	jle    804a1fb <strings__dice_coefficient+0x63>
 804a1f3:	8b 45 18             	mov    0x18(%ebp),%eax
 804a1f6:	83 f8 01             	cmp    $0x1,%eax
 804a1f9:	7f 07                	jg     804a202 <strings__dice_coefficient+0x6a>
 804a1fb:	d9 ee                	fldz   
 804a1fd:	e9 22 04 00 00       	jmp    804a624 <strings__dice_coefficient+0x48c>
 804a202:	8b 55 0c             	mov    0xc(%ebp),%edx
 804a205:	8b 45 18             	mov    0x18(%ebp),%eax
 804a208:	39 c2                	cmp    %eax,%edx
 804a20a:	7e 1d                	jle    804a229 <strings__dice_coefficient+0x91>
 804a20c:	8b 45 08             	mov    0x8(%ebp),%eax
 804a20f:	89 85 e8 fd ff ff    	mov    %eax,-0x218(%ebp)
 804a215:	8b 45 0c             	mov    0xc(%ebp),%eax
 804a218:	89 85 ec fd ff ff    	mov    %eax,-0x214(%ebp)
 804a21e:	8b 45 10             	mov    0x10(%ebp),%eax
 804a221:	89 85 f0 fd ff ff    	mov    %eax,-0x210(%ebp)
 804a227:	eb 1b                	jmp    804a244 <strings__dice_coefficient+0xac>
 804a229:	8b 45 14             	mov    0x14(%ebp),%eax
 804a22c:	89 85 e8 fd ff ff    	mov    %eax,-0x218(%ebp)
 804a232:	8b 45 18             	mov    0x18(%ebp),%eax
 804a235:	89 85 ec fd ff ff    	mov    %eax,-0x214(%ebp)
 804a23b:	8b 45 1c             	mov    0x1c(%ebp),%eax
 804a23e:	89 85 f0 fd ff ff    	mov    %eax,-0x210(%ebp)
 804a244:	83 ec 08             	sub    $0x8,%esp
 804a247:	ff 75 10             	pushl  0x10(%ebp)
 804a24a:	ff 75 0c             	pushl  0xc(%ebp)
 804a24d:	ff 75 08             	pushl  0x8(%ebp)
 804a250:	ff b5 f0 fd ff ff    	pushl  -0x210(%ebp)
 804a256:	ff b5 ec fd ff ff    	pushl  -0x214(%ebp)
 804a25c:	ff b5 e8 fd ff ff    	pushl  -0x218(%ebp)
 804a262:	e8 ed 3d 01 00       	call   805e054 <string_eq>
 804a267:	83 c4 20             	add    $0x20,%esp
 804a26a:	85 c0                	test   %eax,%eax
 804a26c:	74 1d                	je     804a28b <strings__dice_coefficient+0xf3>
 804a26e:	8b 45 14             	mov    0x14(%ebp),%eax
 804a271:	89 85 f4 fd ff ff    	mov    %eax,-0x20c(%ebp)
 804a277:	8b 45 18             	mov    0x18(%ebp),%eax
 804a27a:	89 85 f8 fd ff ff    	mov    %eax,-0x208(%ebp)
 804a280:	8b 45 1c             	mov    0x1c(%ebp),%eax
 804a283:	89 85 fc fd ff ff    	mov    %eax,-0x204(%ebp)
 804a289:	eb 1b                	jmp    804a2a6 <strings__dice_coefficient+0x10e>
 804a28b:	8b 45 08             	mov    0x8(%ebp),%eax
 804a28e:	89 85 f4 fd ff ff    	mov    %eax,-0x20c(%ebp)
 804a294:	8b 45 0c             	mov    0xc(%ebp),%eax
 804a297:	89 85 f8 fd ff ff    	mov    %eax,-0x208(%ebp)
 804a29d:	8b 45 10             	mov    0x10(%ebp),%eax
 804a2a0:	89 85 fc fd ff ff    	mov    %eax,-0x204(%ebp)
 804a2a6:	8d 85 0c fe ff ff    	lea    -0x1f4(%ebp),%eax
 804a2ac:	83 ec 04             	sub    $0x4,%esp
 804a2af:	68 96 a3 05 08       	push   $0x805a396
 804a2b4:	68 db a2 05 08       	push   $0x805a2db
 804a2b9:	68 27 a2 05 08       	push   $0x805a227
 804a2be:	68 78 a1 05 08       	push   $0x805a178
 804a2c3:	6a 04                	push   $0x4
 804a2c5:	6a 0c                	push   $0xc
 804a2c7:	50                   	push   %eax
 804a2c8:	e8 e6 00 01 00       	call   805a3b3 <new_map_2>
 804a2cd:	83 c4 1c             	add    $0x1c,%esp
 804a2d0:	c7 85 d4 fd ff ff 00 	movl   $0x0,-0x22c(%ebp)
 804a2d7:	00 00 00 
 804a2da:	e9 5a 01 00 00       	jmp    804a439 <strings__dice_coefficient+0x2a1>
 804a2df:	8b 85 d4 fd ff ff    	mov    -0x22c(%ebp),%eax
 804a2e5:	8d 50 02             	lea    0x2(%eax),%edx
 804a2e8:	8d 85 00 fe ff ff    	lea    -0x200(%ebp),%eax
 804a2ee:	83 ec 08             	sub    $0x8,%esp
 804a2f1:	52                   	push   %edx
 804a2f2:	ff b5 d4 fd ff ff    	pushl  -0x22c(%ebp)
 804a2f8:	ff b5 f0 fd ff ff    	pushl  -0x210(%ebp)
 804a2fe:	ff b5 ec fd ff ff    	pushl  -0x214(%ebp)
 804a304:	ff b5 e8 fd ff ff    	pushl  -0x218(%ebp)
 804a30a:	50                   	push   %eax
 804a30b:	e8 b1 45 01 00       	call   805e8c1 <string_substr>
 804a310:	83 c4 1c             	add    $0x1c,%esp
 804a313:	8b 85 00 fe ff ff    	mov    -0x200(%ebp),%eax
 804a319:	89 85 6c fe ff ff    	mov    %eax,-0x194(%ebp)
 804a31f:	8b 85 04 fe ff ff    	mov    -0x1fc(%ebp),%eax
 804a325:	89 85 70 fe ff ff    	mov    %eax,-0x190(%ebp)
 804a32b:	8b 85 08 fe ff ff    	mov    -0x1f8(%ebp),%eax
 804a331:	89 85 74 fe ff ff    	mov    %eax,-0x18c(%ebp)
 804a337:	8d 85 b4 fe ff ff    	lea    -0x14c(%ebp),%eax
 804a33d:	8d 95 0c fe ff ff    	lea    -0x1f4(%ebp),%edx
 804a343:	b9 14 00 00 00       	mov    $0x14,%ecx
 804a348:	89 c7                	mov    %eax,%edi
 804a34a:	89 d6                	mov    %edx,%esi
 804a34c:	f3 a5                	rep movsl %ds:(%esi),%es:(%edi)
 804a34e:	83 ec 08             	sub    $0x8,%esp
 804a351:	8d 85 6c fe ff ff    	lea    -0x194(%ebp),%eax
 804a357:	50                   	push   %eax
 804a358:	8d 85 b4 fe ff ff    	lea    -0x14c(%ebp),%eax
 804a35e:	50                   	push   %eax
 804a35f:	e8 3e 0c 01 00       	call   805afa2 <map_exists_1>
 804a364:	83 c4 10             	add    $0x10,%esp
 804a367:	85 c0                	test   %eax,%eax
 804a369:	74 6c                	je     804a3d7 <strings__dice_coefficient+0x23f>
 804a36b:	c7 85 5c fe ff ff 00 	movl   $0x0,-0x1a4(%ebp)
 804a372:	00 00 00 
 804a375:	8b 85 00 fe ff ff    	mov    -0x200(%ebp),%eax
 804a37b:	89 85 78 fe ff ff    	mov    %eax,-0x188(%ebp)
 804a381:	8b 85 04 fe ff ff    	mov    -0x1fc(%ebp),%eax
 804a387:	89 85 7c fe ff ff    	mov    %eax,-0x184(%ebp)
 804a38d:	8b 85 08 fe ff ff    	mov    -0x1f8(%ebp),%eax
 804a393:	89 85 80 fe ff ff    	mov    %eax,-0x180(%ebp)
 804a399:	8d 85 04 ff ff ff    	lea    -0xfc(%ebp),%eax
 804a39f:	8d 95 0c fe ff ff    	lea    -0x1f4(%ebp),%edx
 804a3a5:	b9 14 00 00 00       	mov    $0x14,%ecx
 804a3aa:	89 c7                	mov    %eax,%edi
 804a3ac:	89 d6                	mov    %edx,%esi
 804a3ae:	f3 a5                	rep movsl %ds:(%esi),%es:(%edi)
 804a3b0:	83 ec 04             	sub    $0x4,%esp
 804a3b3:	8d 85 5c fe ff ff    	lea    -0x1a4(%ebp),%eax
 804a3b9:	50                   	push   %eax
 804a3ba:	8d 85 78 fe ff ff    	lea    -0x188(%ebp),%eax
 804a3c0:	50                   	push   %eax
 804a3c1:	8d 85 04 ff ff ff    	lea    -0xfc(%ebp),%eax
 804a3c7:	50                   	push   %eax
 804a3c8:	e8 ea 0a 01 00       	call   805aeb7 <map_get_1>
 804a3cd:	83 c4 10             	add    $0x10,%esp
 804a3d0:	8b 00                	mov    (%eax),%eax
 804a3d2:	83 c0 01             	add    $0x1,%eax
 804a3d5:	eb 05                	jmp    804a3dc <strings__dice_coefficient+0x244>
 804a3d7:	b8 01 00 00 00       	mov    $0x1,%eax
 804a3dc:	89 85 e0 fd ff ff    	mov    %eax,-0x220(%ebp)
 804a3e2:	8b 85 e0 fd ff ff    	mov    -0x220(%ebp),%eax
 804a3e8:	89 85 60 fe ff ff    	mov    %eax,-0x1a0(%ebp)
 804a3ee:	8b 85 00 fe ff ff    	mov    -0x200(%ebp),%eax
 804a3f4:	89 85 84 fe ff ff    	mov    %eax,-0x17c(%ebp)
 804a3fa:	8b 85 04 fe ff ff    	mov    -0x1fc(%ebp),%eax
 804a400:	89 85 88 fe ff ff    	mov    %eax,-0x178(%ebp)
 804a406:	8b 85 08 fe ff ff    	mov    -0x1f8(%ebp),%eax
 804a40c:	89 85 8c fe ff ff    	mov    %eax,-0x174(%ebp)
 804a412:	83 ec 04             	sub    $0x4,%esp
 804a415:	8d 85 60 fe ff ff    	lea    -0x1a0(%ebp),%eax
 804a41b:	50                   	push   %eax
 804a41c:	8d 85 84 fe ff ff    	lea    -0x17c(%ebp),%eax
 804a422:	50                   	push   %eax
 804a423:	8d 85 0c fe ff ff    	lea    -0x1f4(%ebp),%eax
 804a429:	50                   	push   %eax
 804a42a:	e8 61 04 01 00       	call   805a890 <map_set_1>
 804a42f:	83 c4 10             	add    $0x10,%esp
 804a432:	83 85 d4 fd ff ff 01 	addl   $0x1,-0x22c(%ebp)
 804a439:	8b 85 ec fd ff ff    	mov    -0x214(%ebp),%eax
 804a43f:	83 e8 01             	sub    $0x1,%eax
 804a442:	3b 85 d4 fd ff ff    	cmp    -0x22c(%ebp),%eax
 804a448:	0f 8f 91 fe ff ff    	jg     804a2df <strings__dice_coefficient+0x147>
 804a44e:	c7 85 d8 fd ff ff 00 	movl   $0x0,-0x228(%ebp)
 804a455:	00 00 00 
 804a458:	c7 85 dc fd ff ff 00 	movl   $0x0,-0x224(%ebp)
 804a45f:	00 00 00 
 804a462:	e9 64 01 00 00       	jmp    804a5cb <strings__dice_coefficient+0x433>
 804a467:	8b 85 dc fd ff ff    	mov    -0x224(%ebp),%eax
 804a46d:	8d 50 02             	lea    0x2(%eax),%edx
 804a470:	8d 85 00 fe ff ff    	lea    -0x200(%ebp),%eax
 804a476:	83 ec 08             	sub    $0x8,%esp
 804a479:	52                   	push   %edx
 804a47a:	ff b5 dc fd ff ff    	pushl  -0x224(%ebp)
 804a480:	ff b5 fc fd ff ff    	pushl  -0x204(%ebp)
 804a486:	ff b5 f8 fd ff ff    	pushl  -0x208(%ebp)
 804a48c:	ff b5 f4 fd ff ff    	pushl  -0x20c(%ebp)
 804a492:	50                   	push   %eax
 804a493:	e8 29 44 01 00       	call   805e8c1 <string_substr>
 804a498:	83 c4 1c             	add    $0x1c,%esp
 804a49b:	8b 85 00 fe ff ff    	mov    -0x200(%ebp),%eax
 804a4a1:	89 85 90 fe ff ff    	mov    %eax,-0x170(%ebp)
 804a4a7:	8b 85 04 fe ff ff    	mov    -0x1fc(%ebp),%eax
 804a4ad:	89 85 94 fe ff ff    	mov    %eax,-0x16c(%ebp)
 804a4b3:	8b 85 08 fe ff ff    	mov    -0x1f8(%ebp),%eax
 804a4b9:	89 85 98 fe ff ff    	mov    %eax,-0x168(%ebp)
 804a4bf:	8d 85 54 ff ff ff    	lea    -0xac(%ebp),%eax
 804a4c5:	8d 95 0c fe ff ff    	lea    -0x1f4(%ebp),%edx
 804a4cb:	b9 14 00 00 00       	mov    $0x14,%ecx
 804a4d0:	89 c7                	mov    %eax,%edi
 804a4d2:	89 d6                	mov    %edx,%esi
 804a4d4:	f3 a5                	rep movsl %ds:(%esi),%es:(%edi)
 804a4d6:	83 ec 08             	sub    $0x8,%esp
 804a4d9:	8d 85 90 fe ff ff    	lea    -0x170(%ebp),%eax
 804a4df:	50                   	push   %eax
 804a4e0:	8d 85 54 ff ff ff    	lea    -0xac(%ebp),%eax
 804a4e6:	50                   	push   %eax
 804a4e7:	e8 b6 0a 01 00       	call   805afa2 <map_exists_1>
 804a4ec:	83 c4 10             	add    $0x10,%esp
 804a4ef:	85 c0                	test   %eax,%eax
 804a4f1:	74 63                	je     804a556 <strings__dice_coefficient+0x3be>
 804a4f3:	c7 85 64 fe ff ff 00 	movl   $0x0,-0x19c(%ebp)
 804a4fa:	00 00 00 
 804a4fd:	8b 85 00 fe ff ff    	mov    -0x200(%ebp),%eax
 804a503:	89 85 9c fe ff ff    	mov    %eax,-0x164(%ebp)
 804a509:	8b 85 04 fe ff ff    	mov    -0x1fc(%ebp),%eax
 804a50f:	89 85 a0 fe ff ff    	mov    %eax,-0x160(%ebp)
 804a515:	8b 85 08 fe ff ff    	mov    -0x1f8(%ebp),%eax
 804a51b:	89 85 a4 fe ff ff    	mov    %eax,-0x15c(%ebp)
 804a521:	8d 45 a4             	lea    -0x5c(%ebp),%eax
 804a524:	8d 95 0c fe ff ff    	lea    -0x1f4(%ebp),%edx
 804a52a:	b9 14 00 00 00       	mov    $0x14,%ecx
 804a52f:	89 c7                	mov    %eax,%edi
 804a531:	89 d6                	mov    %edx,%esi
 804a533:	f3 a5                	rep movsl %ds:(%esi),%es:(%edi)
 804a535:	83 ec 04             	sub    $0x4,%esp
 804a538:	8d 85 64 fe ff ff    	lea    -0x19c(%ebp),%eax
 804a53e:	50                   	push   %eax
 804a53f:	8d 85 9c fe ff ff    	lea    -0x164(%ebp),%eax
 804a545:	50                   	push   %eax
 804a546:	8d 45 a4             	lea    -0x5c(%ebp),%eax
 804a549:	50                   	push   %eax
 804a54a:	e8 68 09 01 00       	call   805aeb7 <map_get_1>
 804a54f:	83 c4 10             	add    $0x10,%esp
 804a552:	8b 00                	mov    (%eax),%eax
 804a554:	eb 05                	jmp    804a55b <strings__dice_coefficient+0x3c3>
 804a556:	b8 00 00 00 00       	mov    $0x0,%eax
 804a55b:	89 85 e4 fd ff ff    	mov    %eax,-0x21c(%ebp)
 804a561:	83 bd e4 fd ff ff 00 	cmpl   $0x0,-0x21c(%ebp)
 804a568:	7e 5a                	jle    804a5c4 <strings__dice_coefficient+0x42c>
 804a56a:	8b 85 e4 fd ff ff    	mov    -0x21c(%ebp),%eax
 804a570:	83 e8 01             	sub    $0x1,%eax
 804a573:	89 85 68 fe ff ff    	mov    %eax,-0x198(%ebp)
 804a579:	8b 85 00 fe ff ff    	mov    -0x200(%ebp),%eax
 804a57f:	89 85 a8 fe ff ff    	mov    %eax,-0x158(%ebp)
 804a585:	8b 85 04 fe ff ff    	mov    -0x1fc(%ebp),%eax
 804a58b:	89 85 ac fe ff ff    	mov    %eax,-0x154(%ebp)
 804a591:	8b 85 08 fe ff ff    	mov    -0x1f8(%ebp),%eax
 804a597:	89 85 b0 fe ff ff    	mov    %eax,-0x150(%ebp)
 804a59d:	83 ec 04             	sub    $0x4,%esp
 804a5a0:	8d 85 68 fe ff ff    	lea    -0x198(%ebp),%eax
 804a5a6:	50                   	push   %eax
 804a5a7:	8d 85 a8 fe ff ff    	lea    -0x158(%ebp),%eax
 804a5ad:	50                   	push   %eax
 804a5ae:	8d 85 0c fe ff ff    	lea    -0x1f4(%ebp),%eax
 804a5b4:	50                   	push   %eax
 804a5b5:	e8 d6 02 01 00       	call   805a890 <map_set_1>
 804a5ba:	83 c4 10             	add    $0x10,%esp
 804a5bd:	83 85 d8 fd ff ff 01 	addl   $0x1,-0x228(%ebp)
 804a5c4:	83 85 dc fd ff ff 01 	addl   $0x1,-0x224(%ebp)
 804a5cb:	8b 85 f8 fd ff ff    	mov    -0x208(%ebp),%eax
 804a5d1:	83 e8 01             	sub    $0x1,%eax
 804a5d4:	3b 85 dc fd ff ff    	cmp    -0x224(%ebp),%eax
 804a5da:	0f 8f 87 fe ff ff    	jg     804a467 <strings__dice_coefficient+0x2cf>
 804a5e0:	db 85 d8 fd ff ff    	fildl  -0x228(%ebp)
 804a5e6:	d8 c0                	fadd   %st(0),%st
 804a5e8:	8b 85 ec fd ff ff    	mov    -0x214(%ebp),%eax
 804a5ee:	89 85 c0 fd ff ff    	mov    %eax,-0x240(%ebp)
 804a5f4:	db 85 c0 fd ff ff    	fildl  -0x240(%ebp)
 804a5fa:	8b 85 f8 fd ff ff    	mov    -0x208(%ebp),%eax
 804a600:	89 85 c0 fd ff ff    	mov    %eax,-0x240(%ebp)
 804a606:	db 85 c0 fd ff ff    	fildl  -0x240(%ebp)
 804a60c:	de c1                	faddp  %st,%st(1)
 804a60e:	d9 05 c0 bc 06 08    	flds   0x806bcc0
 804a614:	de e9                	fsubrp %st,%st(1)
 804a616:	de f9                	fdivrp %st,%st(1)
 804a618:	d9 9d c4 fd ff ff    	fstps  -0x23c(%ebp)
 804a61e:	d9 85 c4 fd ff ff    	flds   -0x23c(%ebp)
 804a624:	8b 45 f4             	mov    -0xc(%ebp),%eax
 804a627:	65 33 05 14 00 00 00 	xor    %gs:0x14,%eax
 804a62e:	74 07                	je     804a637 <strings__dice_coefficient+0x49f>
 804a630:	dd d8                	fstp   %st(0)
 804a632:	e8 e9 e1 ff ff       	call   8048820 <__stack_chk_fail@plt>
 804a637:	8d 65 f8             	lea    -0x8(%ebp),%esp
 804a63a:	5e                   	pop    %esi
 804a63b:	5f                   	pop    %edi
 804a63c:	5d                   	pop    %ebp
 804a63d:	c3                   	ret    

0804a63e <strings__repeat>:
 804a63e:	55                   	push   %ebp
 804a63f:	89 e5                	mov    %esp,%ebp
 804a641:	83 ec 28             	sub    $0x28,%esp
 804a644:	8b 45 0c             	mov    0xc(%ebp),%eax
 804a647:	8b 55 08             	mov    0x8(%ebp),%edx
 804a64a:	89 55 e4             	mov    %edx,-0x1c(%ebp)
 804a64d:	88 45 e0             	mov    %al,-0x20(%ebp)
 804a650:	65 a1 14 00 00 00    	mov    %gs:0x14,%eax
 804a656:	89 45 f4             	mov    %eax,-0xc(%ebp)
 804a659:	31 c0                	xor    %eax,%eax
 804a65b:	83 7d 10 00          	cmpl   $0x0,0x10(%ebp)
 804a65f:	7f 1f                	jg     804a680 <strings__repeat+0x42>
 804a661:	8b 45 e4             	mov    -0x1c(%ebp),%eax
 804a664:	c7 00 34 97 06 08    	movl   $0x8069734,(%eax)
 804a66a:	8b 45 e4             	mov    -0x1c(%ebp),%eax
 804a66d:	c7 40 04 00 00 00 00 	movl   $0x0,0x4(%eax)
 804a674:	8b 45 e4             	mov    -0x1c(%ebp),%eax
 804a677:	c7 40 08 01 00 00 00 	movl   $0x1,0x8(%eax)
 804a67e:	eb 4c                	jmp    804a6cc <strings__repeat+0x8e>
 804a680:	8b 45 10             	mov    0x10(%ebp),%eax
 804a683:	83 c0 01             	add    $0x1,%eax
 804a686:	83 ec 0c             	sub    $0xc,%esp
 804a689:	50                   	push   %eax
 804a68a:	e8 98 d2 00 00       	call   8057927 <v_malloc>
 804a68f:	83 c4 10             	add    $0x10,%esp
 804a692:	89 45 f0             	mov    %eax,-0x10(%ebp)
 804a695:	8b 55 10             	mov    0x10(%ebp),%edx
 804a698:	0f b6 45 e0          	movzbl -0x20(%ebp),%eax
 804a69c:	83 ec 04             	sub    $0x4,%esp
 804a69f:	52                   	push   %edx
 804a6a0:	50                   	push   %eax
 804a6a1:	ff 75 f0             	pushl  -0x10(%ebp)
 804a6a4:	e8 17 e2 ff ff       	call   80488c0 <memset@plt>
 804a6a9:	83 c4 10             	add    $0x10,%esp
 804a6ac:	8b 55 10             	mov    0x10(%ebp),%edx
 804a6af:	8b 45 f0             	mov    -0x10(%ebp),%eax
 804a6b2:	01 d0                	add    %edx,%eax
 804a6b4:	c6 00 30             	movb   $0x30,(%eax)
 804a6b7:	8b 45 e4             	mov    -0x1c(%ebp),%eax
 804a6ba:	83 ec 04             	sub    $0x4,%esp
 804a6bd:	ff 75 10             	pushl  0x10(%ebp)
 804a6c0:	ff 75 f0             	pushl  -0x10(%ebp)
 804a6c3:	50                   	push   %eax
 804a6c4:	e8 4b 2f 01 00       	call   805d614 <byteptr_vstring_with_len>
 804a6c9:	83 c4 0c             	add    $0xc,%esp
 804a6cc:	8b 45 e4             	mov    -0x1c(%ebp),%eax
 804a6cf:	8b 4d f4             	mov    -0xc(%ebp),%ecx
 804a6d2:	65 33 0d 14 00 00 00 	xor    %gs:0x14,%ecx
 804a6d9:	74 05                	je     804a6e0 <strings__repeat+0xa2>
 804a6db:	e8 40 e1 ff ff       	call   8048820 <__stack_chk_fail@plt>
 804a6e0:	c9                   	leave  
 804a6e1:	c2 04 00             	ret    $0x4

0804a6e4 <strings__repeat_string>:
 804a6e4:	55                   	push   %ebp
 804a6e5:	89 e5                	mov    %esp,%ebp
 804a6e7:	53                   	push   %ebx
 804a6e8:	83 ec 34             	sub    $0x34,%esp
 804a6eb:	8b 45 08             	mov    0x8(%ebp),%eax
 804a6ee:	89 45 d4             	mov    %eax,-0x2c(%ebp)
 804a6f1:	65 a1 14 00 00 00    	mov    %gs:0x14,%eax
 804a6f7:	89 45 f4             	mov    %eax,-0xc(%ebp)
 804a6fa:	31 c0                	xor    %eax,%eax
 804a6fc:	83 7d 18 00          	cmpl   $0x0,0x18(%ebp)
 804a700:	7e 07                	jle    804a709 <strings__repeat_string+0x25>
 804a702:	8b 45 10             	mov    0x10(%ebp),%eax
 804a705:	85 c0                	test   %eax,%eax
 804a707:	75 22                	jne    804a72b <strings__repeat_string+0x47>
 804a709:	8b 45 d4             	mov    -0x2c(%ebp),%eax
 804a70c:	c7 00 34 97 06 08    	movl   $0x8069734,(%eax)
 804a712:	8b 45 d4             	mov    -0x2c(%ebp),%eax
 804a715:	c7 40 04 00 00 00 00 	movl   $0x0,0x4(%eax)
 804a71c:	8b 45 d4             	mov    -0x2c(%ebp),%eax
 804a71f:	c7 40 08 01 00 00 00 	movl   $0x1,0x8(%eax)
 804a726:	e9 9f 00 00 00       	jmp    804a7ca <strings__repeat_string+0xe6>
 804a72b:	8b 45 10             	mov    0x10(%ebp),%eax
 804a72e:	89 45 e4             	mov    %eax,-0x1c(%ebp)
 804a731:	8b 45 e4             	mov    -0x1c(%ebp),%eax
 804a734:	0f af 45 18          	imul   0x18(%ebp),%eax
 804a738:	89 45 e8             	mov    %eax,-0x18(%ebp)
 804a73b:	8b 45 e8             	mov    -0x18(%ebp),%eax
 804a73e:	83 c0 01             	add    $0x1,%eax
 804a741:	83 ec 0c             	sub    $0xc,%esp
 804a744:	50                   	push   %eax
 804a745:	e8 dd d1 00 00       	call   8057927 <v_malloc>
 804a74a:	83 c4 10             	add    $0x10,%esp
 804a74d:	89 45 ec             	mov    %eax,-0x14(%ebp)
 804a750:	c7 45 dc 00 00 00 00 	movl   $0x0,-0x24(%ebp)
 804a757:	eb 49                	jmp    804a7a2 <strings__repeat_string+0xbe>
 804a759:	8b 45 dc             	mov    -0x24(%ebp),%eax
 804a75c:	0f af 45 e4          	imul   -0x1c(%ebp),%eax
 804a760:	89 45 f0             	mov    %eax,-0x10(%ebp)
 804a763:	c7 45 e0 00 00 00 00 	movl   $0x0,-0x20(%ebp)
 804a76a:	eb 2a                	jmp    804a796 <strings__repeat_string+0xb2>
 804a76c:	8b 55 f0             	mov    -0x10(%ebp),%edx
 804a76f:	8b 45 e0             	mov    -0x20(%ebp),%eax
 804a772:	01 d0                	add    %edx,%eax
 804a774:	89 c2                	mov    %eax,%edx
 804a776:	8b 45 ec             	mov    -0x14(%ebp),%eax
 804a779:	8d 1c 02             	lea    (%edx,%eax,1),%ebx
 804a77c:	ff 75 e0             	pushl  -0x20(%ebp)
 804a77f:	ff 75 14             	pushl  0x14(%ebp)
 804a782:	ff 75 10             	pushl  0x10(%ebp)
 804a785:	ff 75 0c             	pushl  0xc(%ebp)
 804a788:	e8 ad 61 01 00       	call   806093a <string_at>
 804a78d:	83 c4 10             	add    $0x10,%esp
 804a790:	88 03                	mov    %al,(%ebx)
 804a792:	83 45 e0 01          	addl   $0x1,-0x20(%ebp)
 804a796:	8b 45 e0             	mov    -0x20(%ebp),%eax
 804a799:	3b 45 e4             	cmp    -0x1c(%ebp),%eax
 804a79c:	7c ce                	jl     804a76c <strings__repeat_string+0x88>
 804a79e:	83 45 dc 01          	addl   $0x1,-0x24(%ebp)
 804a7a2:	8b 45 dc             	mov    -0x24(%ebp),%eax
 804a7a5:	3b 45 18             	cmp    0x18(%ebp),%eax
 804a7a8:	7c af                	jl     804a759 <strings__repeat_string+0x75>
 804a7aa:	8b 55 e8             	mov    -0x18(%ebp),%edx
 804a7ad:	8b 45 ec             	mov    -0x14(%ebp),%eax
 804a7b0:	01 d0                	add    %edx,%eax
 804a7b2:	c6 00 30             	movb   $0x30,(%eax)
 804a7b5:	8b 45 d4             	mov    -0x2c(%ebp),%eax
 804a7b8:	83 ec 04             	sub    $0x4,%esp
 804a7bb:	ff 75 e8             	pushl  -0x18(%ebp)
 804a7be:	ff 75 ec             	pushl  -0x14(%ebp)
 804a7c1:	50                   	push   %eax
 804a7c2:	e8 4d 2e 01 00       	call   805d614 <byteptr_vstring_with_len>
 804a7c7:	83 c4 0c             	add    $0xc,%esp
 804a7ca:	8b 45 d4             	mov    -0x2c(%ebp),%eax
 804a7cd:	8b 4d f4             	mov    -0xc(%ebp),%ecx
 804a7d0:	65 33 0d 14 00 00 00 	xor    %gs:0x14,%ecx
 804a7d7:	74 05                	je     804a7de <strings__repeat_string+0xfa>
 804a7d9:	e8 42 e0 ff ff       	call   8048820 <__stack_chk_fail@plt>
 804a7de:	8b 5d fc             	mov    -0x4(%ebp),%ebx
 804a7e1:	c9                   	leave  
 804a7e2:	c2 04 00             	ret    $0x4

0804a7e5 <hash__wyhash_c>:
 804a7e5:	55                   	push   %ebp
 804a7e6:	89 e5                	mov    %esp,%ebp
 804a7e8:	83 ec 18             	sub    $0x18,%esp
 804a7eb:	8b 45 0c             	mov    0xc(%ebp),%eax
 804a7ee:	89 45 f0             	mov    %eax,-0x10(%ebp)
 804a7f1:	8b 45 10             	mov    0x10(%ebp),%eax
 804a7f4:	89 45 f4             	mov    %eax,-0xc(%ebp)
 804a7f7:	8b 45 14             	mov    0x14(%ebp),%eax
 804a7fa:	89 45 e8             	mov    %eax,-0x18(%ebp)
 804a7fd:	8b 45 18             	mov    0x18(%ebp),%eax
 804a800:	89 45 ec             	mov    %eax,-0x14(%ebp)
 804a803:	83 ec 0c             	sub    $0xc,%esp
 804a806:	ff 75 ec             	pushl  -0x14(%ebp)
 804a809:	ff 75 e8             	pushl  -0x18(%ebp)
 804a80c:	ff 75 f4             	pushl  -0xc(%ebp)
 804a80f:	ff 75 f0             	pushl  -0x10(%ebp)
 804a812:	ff 75 08             	pushl  0x8(%ebp)
 804a815:	e8 82 e5 ff ff       	call   8048d9c <wyhash>
 804a81a:	83 c4 20             	add    $0x20,%esp
 804a81d:	c9                   	leave  
 804a81e:	c3                   	ret    

0804a81f <hash__wyhash64_c>:
 804a81f:	55                   	push   %ebp
 804a820:	89 e5                	mov    %esp,%ebp
 804a822:	83 ec 10             	sub    $0x10,%esp
 804a825:	8b 45 08             	mov    0x8(%ebp),%eax
 804a828:	89 45 f8             	mov    %eax,-0x8(%ebp)
 804a82b:	8b 45 0c             	mov    0xc(%ebp),%eax
 804a82e:	89 45 fc             	mov    %eax,-0x4(%ebp)
 804a831:	8b 45 10             	mov    0x10(%ebp),%eax
 804a834:	89 45 f0             	mov    %eax,-0x10(%ebp)
 804a837:	8b 45 14             	mov    0x14(%ebp),%eax
 804a83a:	89 45 f4             	mov    %eax,-0xc(%ebp)
 804a83d:	ff 75 f4             	pushl  -0xc(%ebp)
 804a840:	ff 75 f0             	pushl  -0x10(%ebp)
 804a843:	ff 75 fc             	pushl  -0x4(%ebp)
 804a846:	ff 75 f8             	pushl  -0x8(%ebp)
 804a849:	e8 3d e8 ff ff       	call   804908b <wyhash64>
 804a84e:	83 c4 10             	add    $0x10,%esp
 804a851:	c9                   	leave  
 804a852:	c3                   	ret    

0804a853 <hash__sum64_string>:
 804a853:	55                   	push   %ebp
 804a854:	89 e5                	mov    %esp,%ebp
 804a856:	83 ec 18             	sub    $0x18,%esp
 804a859:	8b 45 14             	mov    0x14(%ebp),%eax
 804a85c:	89 45 f0             	mov    %eax,-0x10(%ebp)
 804a85f:	8b 45 18             	mov    0x18(%ebp),%eax
 804a862:	89 45 f4             	mov    %eax,-0xc(%ebp)
 804a865:	8b 45 0c             	mov    0xc(%ebp),%eax
 804a868:	99                   	cltd   
 804a869:	8b 4d 08             	mov    0x8(%ebp),%ecx
 804a86c:	83 ec 0c             	sub    $0xc,%esp
 804a86f:	ff 75 f4             	pushl  -0xc(%ebp)
 804a872:	ff 75 f0             	pushl  -0x10(%ebp)
 804a875:	52                   	push   %edx
 804a876:	50                   	push   %eax
 804a877:	51                   	push   %ecx
 804a878:	e8 34 00 00 00       	call   804a8b1 <hash__wyhash64>
 804a87d:	83 c4 20             	add    $0x20,%esp
 804a880:	c9                   	leave  
 804a881:	c3                   	ret    

0804a882 <hash__sum64>:
 804a882:	55                   	push   %ebp
 804a883:	89 e5                	mov    %esp,%ebp
 804a885:	83 ec 18             	sub    $0x18,%esp
 804a888:	8b 45 18             	mov    0x18(%ebp),%eax
 804a88b:	89 45 f0             	mov    %eax,-0x10(%ebp)
 804a88e:	8b 45 1c             	mov    0x1c(%ebp),%eax
 804a891:	89 45 f4             	mov    %eax,-0xc(%ebp)
 804a894:	8b 45 10             	mov    0x10(%ebp),%eax
 804a897:	99                   	cltd   
 804a898:	8b 4d 0c             	mov    0xc(%ebp),%ecx
 804a89b:	83 ec 0c             	sub    $0xc,%esp
 804a89e:	ff 75 f4             	pushl  -0xc(%ebp)
 804a8a1:	ff 75 f0             	pushl  -0x10(%ebp)
 804a8a4:	52                   	push   %edx
 804a8a5:	50                   	push   %eax
 804a8a6:	51                   	push   %ecx
 804a8a7:	e8 05 00 00 00       	call   804a8b1 <hash__wyhash64>
 804a8ac:	83 c4 20             	add    $0x20,%esp
 804a8af:	c9                   	leave  
 804a8b0:	c3                   	ret    

0804a8b1 <hash__wyhash64>:
 804a8b1:	55                   	push   %ebp
 804a8b2:	89 e5                	mov    %esp,%ebp
 804a8b4:	56                   	push   %esi
 804a8b5:	53                   	push   %ebx
 804a8b6:	81 ec 60 02 00 00    	sub    $0x260,%esp
 804a8bc:	8b 45 0c             	mov    0xc(%ebp),%eax
 804a8bf:	89 45 b0             	mov    %eax,-0x50(%ebp)
 804a8c2:	8b 45 10             	mov    0x10(%ebp),%eax
 804a8c5:	89 45 b4             	mov    %eax,-0x4c(%ebp)
 804a8c8:	8b 45 14             	mov    0x14(%ebp),%eax
 804a8cb:	89 45 a8             	mov    %eax,-0x58(%ebp)
 804a8ce:	8b 45 18             	mov    0x18(%ebp),%eax
 804a8d1:	89 45 ac             	mov    %eax,-0x54(%ebp)
 804a8d4:	8b 45 b4             	mov    -0x4c(%ebp),%eax
 804a8d7:	0b 45 b0             	or     -0x50(%ebp),%eax
 804a8da:	85 c0                	test   %eax,%eax
 804a8dc:	75 0f                	jne    804a8ed <hash__wyhash64+0x3c>
 804a8de:	b8 00 00 00 00       	mov    $0x0,%eax
 804a8e3:	ba 00 00 00 00       	mov    $0x0,%edx
 804a8e8:	e9 1f 0e 00 00       	jmp    804b70c <hash__wyhash64+0xe5b>
 804a8ed:	8b 45 08             	mov    0x8(%ebp),%eax
 804a8f0:	89 45 c4             	mov    %eax,-0x3c(%ebp)
 804a8f3:	8b 45 a8             	mov    -0x58(%ebp),%eax
 804a8f6:	8b 55 ac             	mov    -0x54(%ebp),%edx
 804a8f9:	89 45 c8             	mov    %eax,-0x38(%ebp)
 804a8fc:	89 55 cc             	mov    %edx,-0x34(%ebp)
 804a8ff:	8b 45 b0             	mov    -0x50(%ebp),%eax
 804a902:	83 e0 3f             	and    $0x3f,%eax
 804a905:	89 45 d0             	mov    %eax,-0x30(%ebp)
 804a908:	8b 45 b4             	mov    -0x4c(%ebp),%eax
 804a90b:	83 e0 00             	and    $0x0,%eax
 804a90e:	89 45 d4             	mov    %eax,-0x2c(%ebp)
 804a911:	8b 45 d0             	mov    -0x30(%ebp),%eax
 804a914:	8b 55 d4             	mov    -0x2c(%ebp),%edx
 804a917:	89 45 f0             	mov    %eax,-0x10(%ebp)
 804a91a:	89 55 f4             	mov    %edx,-0xc(%ebp)
 804a91d:	83 7d f4 00          	cmpl   $0x0,-0xc(%ebp)
 804a921:	0f 87 9b 00 00 00    	ja     804a9c2 <hash__wyhash64+0x111>
 804a927:	83 7d f4 00          	cmpl   $0x0,-0xc(%ebp)
 804a92b:	72 0a                	jb     804a937 <hash__wyhash64+0x86>
 804a92d:	83 7d f0 03          	cmpl   $0x3,-0x10(%ebp)
 804a931:	0f 87 8b 00 00 00    	ja     804a9c2 <hash__wyhash64+0x111>
 804a937:	a1 80 32 07 08       	mov    0x8073280,%eax
 804a93c:	8b 15 84 32 07 08    	mov    0x8073284,%edx
 804a942:	89 c1                	mov    %eax,%ecx
 804a944:	33 4d c8             	xor    -0x38(%ebp),%ecx
 804a947:	89 8d 70 ff ff ff    	mov    %ecx,-0x90(%ebp)
 804a94d:	89 d0                	mov    %edx,%eax
 804a94f:	33 45 cc             	xor    -0x34(%ebp),%eax
 804a952:	89 85 74 ff ff ff    	mov    %eax,-0x8c(%ebp)
 804a958:	83 ec 04             	sub    $0x4,%esp
 804a95b:	ff 75 d4             	pushl  -0x2c(%ebp)
 804a95e:	ff 75 d0             	pushl  -0x30(%ebp)
 804a961:	ff 75 c4             	pushl  -0x3c(%ebp)
 804a964:	e8 b9 0f 00 00       	call   804b922 <hash__wyr3>
 804a969:	83 c4 10             	add    $0x10,%esp
 804a96c:	89 c1                	mov    %eax,%ecx
 804a96e:	33 4d c8             	xor    -0x38(%ebp),%ecx
 804a971:	89 cb                	mov    %ecx,%ebx
 804a973:	89 d0                	mov    %edx,%eax
 804a975:	33 45 cc             	xor    -0x34(%ebp),%eax
 804a978:	89 c6                	mov    %eax,%esi
 804a97a:	a1 78 31 07 08       	mov    0x8073178,%eax
 804a97f:	8b 15 7c 31 07 08    	mov    0x807317c,%edx
 804a985:	89 d9                	mov    %ebx,%ecx
 804a987:	31 c1                	xor    %eax,%ecx
 804a989:	89 8d 68 ff ff ff    	mov    %ecx,-0x98(%ebp)
 804a98f:	31 d6                	xor    %edx,%esi
 804a991:	89 b5 6c ff ff ff    	mov    %esi,-0x94(%ebp)
 804a997:	ff b5 74 ff ff ff    	pushl  -0x8c(%ebp)
 804a99d:	ff b5 70 ff ff ff    	pushl  -0x90(%ebp)
 804a9a3:	ff b5 6c ff ff ff    	pushl  -0x94(%ebp)
 804a9a9:	ff b5 68 ff ff ff    	pushl  -0x98(%ebp)
 804a9af:	e8 d1 0d 00 00       	call   804b785 <hash__wymum>
 804a9b4:	83 c4 10             	add    $0x10,%esp
 804a9b7:	89 45 a0             	mov    %eax,-0x60(%ebp)
 804a9ba:	89 55 a4             	mov    %edx,-0x5c(%ebp)
 804a9bd:	e9 ba 08 00 00       	jmp    804b27c <hash__wyhash64+0x9cb>
 804a9c2:	83 7d f4 00          	cmpl   $0x0,-0xc(%ebp)
 804a9c6:	0f 82 fc 00 00 00    	jb     804aac8 <hash__wyhash64+0x217>
 804a9cc:	83 7d f4 00          	cmpl   $0x0,-0xc(%ebp)
 804a9d0:	77 0a                	ja     804a9dc <hash__wyhash64+0x12b>
 804a9d2:	83 7d f0 03          	cmpl   $0x3,-0x10(%ebp)
 804a9d6:	0f 86 ec 00 00 00    	jbe    804aac8 <hash__wyhash64+0x217>
 804a9dc:	83 7d f4 00          	cmpl   $0x0,-0xc(%ebp)
 804a9e0:	0f 87 e2 00 00 00    	ja     804aac8 <hash__wyhash64+0x217>
 804a9e6:	83 7d f4 00          	cmpl   $0x0,-0xc(%ebp)
 804a9ea:	72 0a                	jb     804a9f6 <hash__wyhash64+0x145>
 804a9ec:	83 7d f0 08          	cmpl   $0x8,-0x10(%ebp)
 804a9f0:	0f 87 d2 00 00 00    	ja     804aac8 <hash__wyhash64+0x217>
 804a9f6:	8b 45 d0             	mov    -0x30(%ebp),%eax
 804a9f9:	8d 50 fc             	lea    -0x4(%eax),%edx
 804a9fc:	8b 45 c4             	mov    -0x3c(%ebp),%eax
 804a9ff:	01 d0                	add    %edx,%eax
 804aa01:	83 ec 0c             	sub    $0xc,%esp
 804aa04:	50                   	push   %eax
 804aa05:	e8 a9 0f 00 00       	call   804b9b3 <hash__wyr4>
 804aa0a:	83 c4 10             	add    $0x10,%esp
 804aa0d:	89 c6                	mov    %eax,%esi
 804aa0f:	33 75 c8             	xor    -0x38(%ebp),%esi
 804aa12:	89 b5 60 ff ff ff    	mov    %esi,-0xa0(%ebp)
 804aa18:	89 d0                	mov    %edx,%eax
 804aa1a:	33 45 cc             	xor    -0x34(%ebp),%eax
 804aa1d:	89 85 64 ff ff ff    	mov    %eax,-0x9c(%ebp)
 804aa23:	a1 80 32 07 08       	mov    0x8073280,%eax
 804aa28:	8b 15 84 32 07 08    	mov    0x8073284,%edx
 804aa2e:	8b 8d 60 ff ff ff    	mov    -0xa0(%ebp),%ecx
 804aa34:	8b 9d 64 ff ff ff    	mov    -0x9c(%ebp),%ebx
 804aa3a:	89 ce                	mov    %ecx,%esi
 804aa3c:	31 c6                	xor    %eax,%esi
 804aa3e:	89 b5 58 ff ff ff    	mov    %esi,-0xa8(%ebp)
 804aa44:	89 d0                	mov    %edx,%eax
 804aa46:	31 d8                	xor    %ebx,%eax
 804aa48:	89 85 5c ff ff ff    	mov    %eax,-0xa4(%ebp)
 804aa4e:	83 ec 0c             	sub    $0xc,%esp
 804aa51:	ff 75 c4             	pushl  -0x3c(%ebp)
 804aa54:	e8 5a 0f 00 00       	call   804b9b3 <hash__wyr4>
 804aa59:	83 c4 10             	add    $0x10,%esp
 804aa5c:	89 c6                	mov    %eax,%esi
 804aa5e:	33 75 c8             	xor    -0x38(%ebp),%esi
 804aa61:	89 b5 50 ff ff ff    	mov    %esi,-0xb0(%ebp)
 804aa67:	89 d0                	mov    %edx,%eax
 804aa69:	33 45 cc             	xor    -0x34(%ebp),%eax
 804aa6c:	89 85 54 ff ff ff    	mov    %eax,-0xac(%ebp)
 804aa72:	a1 78 31 07 08       	mov    0x8073178,%eax
 804aa77:	8b 15 7c 31 07 08    	mov    0x807317c,%edx
 804aa7d:	8b 8d 50 ff ff ff    	mov    -0xb0(%ebp),%ecx
 804aa83:	8b 9d 54 ff ff ff    	mov    -0xac(%ebp),%ebx
 804aa89:	89 ce                	mov    %ecx,%esi
 804aa8b:	31 c6                	xor    %eax,%esi
 804aa8d:	89 b5 48 ff ff ff    	mov    %esi,-0xb8(%ebp)
 804aa93:	89 d0                	mov    %edx,%eax
 804aa95:	31 d8                	xor    %ebx,%eax
 804aa97:	89 85 4c ff ff ff    	mov    %eax,-0xb4(%ebp)
 804aa9d:	ff b5 5c ff ff ff    	pushl  -0xa4(%ebp)
 804aaa3:	ff b5 58 ff ff ff    	pushl  -0xa8(%ebp)
 804aaa9:	ff b5 4c ff ff ff    	pushl  -0xb4(%ebp)
 804aaaf:	ff b5 48 ff ff ff    	pushl  -0xb8(%ebp)
 804aab5:	e8 cb 0c 00 00       	call   804b785 <hash__wymum>
 804aaba:	83 c4 10             	add    $0x10,%esp
 804aabd:	89 45 a0             	mov    %eax,-0x60(%ebp)
 804aac0:	89 55 a4             	mov    %edx,-0x5c(%ebp)
 804aac3:	e9 b4 07 00 00       	jmp    804b27c <hash__wyhash64+0x9cb>
 804aac8:	83 7d f4 00          	cmpl   $0x0,-0xc(%ebp)
 804aacc:	0f 82 fc 00 00 00    	jb     804abce <hash__wyhash64+0x31d>
 804aad2:	83 7d f4 00          	cmpl   $0x0,-0xc(%ebp)
 804aad6:	77 0a                	ja     804aae2 <hash__wyhash64+0x231>
 804aad8:	83 7d f0 08          	cmpl   $0x8,-0x10(%ebp)
 804aadc:	0f 86 ec 00 00 00    	jbe    804abce <hash__wyhash64+0x31d>
 804aae2:	83 7d f4 00          	cmpl   $0x0,-0xc(%ebp)
 804aae6:	0f 87 e2 00 00 00    	ja     804abce <hash__wyhash64+0x31d>
 804aaec:	83 7d f4 00          	cmpl   $0x0,-0xc(%ebp)
 804aaf0:	72 0a                	jb     804aafc <hash__wyhash64+0x24b>
 804aaf2:	83 7d f0 10          	cmpl   $0x10,-0x10(%ebp)
 804aaf6:	0f 87 d2 00 00 00    	ja     804abce <hash__wyhash64+0x31d>
 804aafc:	8b 45 d0             	mov    -0x30(%ebp),%eax
 804aaff:	8d 50 f8             	lea    -0x8(%eax),%edx
 804ab02:	8b 45 c4             	mov    -0x3c(%ebp),%eax
 804ab05:	01 d0                	add    %edx,%eax
 804ab07:	83 ec 0c             	sub    $0xc,%esp
 804ab0a:	50                   	push   %eax
 804ab0b:	e8 e9 0e 00 00       	call   804b9f9 <hash__wyr8>
 804ab10:	83 c4 10             	add    $0x10,%esp
 804ab13:	89 c6                	mov    %eax,%esi
 804ab15:	33 75 c8             	xor    -0x38(%ebp),%esi
 804ab18:	89 b5 40 ff ff ff    	mov    %esi,-0xc0(%ebp)
 804ab1e:	89 d0                	mov    %edx,%eax
 804ab20:	33 45 cc             	xor    -0x34(%ebp),%eax
 804ab23:	89 85 44 ff ff ff    	mov    %eax,-0xbc(%ebp)
 804ab29:	a1 80 32 07 08       	mov    0x8073280,%eax
 804ab2e:	8b 15 84 32 07 08    	mov    0x8073284,%edx
 804ab34:	8b 8d 40 ff ff ff    	mov    -0xc0(%ebp),%ecx
 804ab3a:	8b 9d 44 ff ff ff    	mov    -0xbc(%ebp),%ebx
 804ab40:	89 ce                	mov    %ecx,%esi
 804ab42:	31 c6                	xor    %eax,%esi
 804ab44:	89 b5 38 ff ff ff    	mov    %esi,-0xc8(%ebp)
 804ab4a:	89 d0                	mov    %edx,%eax
 804ab4c:	31 d8                	xor    %ebx,%eax
 804ab4e:	89 85 3c ff ff ff    	mov    %eax,-0xc4(%ebp)
 804ab54:	83 ec 0c             	sub    $0xc,%esp
 804ab57:	ff 75 c4             	pushl  -0x3c(%ebp)
 804ab5a:	e8 9a 0e 00 00       	call   804b9f9 <hash__wyr8>
 804ab5f:	83 c4 10             	add    $0x10,%esp
 804ab62:	89 c6                	mov    %eax,%esi
 804ab64:	33 75 c8             	xor    -0x38(%ebp),%esi
 804ab67:	89 b5 30 ff ff ff    	mov    %esi,-0xd0(%ebp)
 804ab6d:	89 d0                	mov    %edx,%eax
 804ab6f:	33 45 cc             	xor    -0x34(%ebp),%eax
 804ab72:	89 85 34 ff ff ff    	mov    %eax,-0xcc(%ebp)
 804ab78:	a1 78 31 07 08       	mov    0x8073178,%eax
 804ab7d:	8b 15 7c 31 07 08    	mov    0x807317c,%edx
 804ab83:	8b 8d 30 ff ff ff    	mov    -0xd0(%ebp),%ecx
 804ab89:	8b 9d 34 ff ff ff    	mov    -0xcc(%ebp),%ebx
 804ab8f:	89 ce                	mov    %ecx,%esi
 804ab91:	31 c6                	xor    %eax,%esi
 804ab93:	89 b5 28 ff ff ff    	mov    %esi,-0xd8(%ebp)
 804ab99:	89 d0                	mov    %edx,%eax
 804ab9b:	31 d8                	xor    %ebx,%eax
 804ab9d:	89 85 2c ff ff ff    	mov    %eax,-0xd4(%ebp)
 804aba3:	ff b5 3c ff ff ff    	pushl  -0xc4(%ebp)
 804aba9:	ff b5 38 ff ff ff    	pushl  -0xc8(%ebp)
 804abaf:	ff b5 2c ff ff ff    	pushl  -0xd4(%ebp)
 804abb5:	ff b5 28 ff ff ff    	pushl  -0xd8(%ebp)
 804abbb:	e8 c5 0b 00 00       	call   804b785 <hash__wymum>
 804abc0:	83 c4 10             	add    $0x10,%esp
 804abc3:	89 45 a0             	mov    %eax,-0x60(%ebp)
 804abc6:	89 55 a4             	mov    %edx,-0x5c(%ebp)
 804abc9:	e9 ae 06 00 00       	jmp    804b27c <hash__wyhash64+0x9cb>
 804abce:	83 7d f4 00          	cmpl   $0x0,-0xc(%ebp)
 804abd2:	0f 82 8a 01 00 00    	jb     804ad62 <hash__wyhash64+0x4b1>
 804abd8:	83 7d f4 00          	cmpl   $0x0,-0xc(%ebp)
 804abdc:	77 0a                	ja     804abe8 <hash__wyhash64+0x337>
 804abde:	83 7d f0 10          	cmpl   $0x10,-0x10(%ebp)
 804abe2:	0f 86 7a 01 00 00    	jbe    804ad62 <hash__wyhash64+0x4b1>
 804abe8:	83 7d f4 00          	cmpl   $0x0,-0xc(%ebp)
 804abec:	0f 87 70 01 00 00    	ja     804ad62 <hash__wyhash64+0x4b1>
 804abf2:	83 7d f4 00          	cmpl   $0x0,-0xc(%ebp)
 804abf6:	72 0a                	jb     804ac02 <hash__wyhash64+0x351>
 804abf8:	83 7d f0 18          	cmpl   $0x18,-0x10(%ebp)
 804abfc:	0f 87 60 01 00 00    	ja     804ad62 <hash__wyhash64+0x4b1>
 804ac02:	8b 45 c4             	mov    -0x3c(%ebp),%eax
 804ac05:	83 c0 08             	add    $0x8,%eax
 804ac08:	83 ec 0c             	sub    $0xc,%esp
 804ac0b:	50                   	push   %eax
 804ac0c:	e8 e8 0d 00 00       	call   804b9f9 <hash__wyr8>
 804ac11:	83 c4 10             	add    $0x10,%esp
 804ac14:	89 c6                	mov    %eax,%esi
 804ac16:	33 75 c8             	xor    -0x38(%ebp),%esi
 804ac19:	89 b5 20 ff ff ff    	mov    %esi,-0xe0(%ebp)
 804ac1f:	89 d0                	mov    %edx,%eax
 804ac21:	33 45 cc             	xor    -0x34(%ebp),%eax
 804ac24:	89 85 24 ff ff ff    	mov    %eax,-0xdc(%ebp)
 804ac2a:	a1 80 32 07 08       	mov    0x8073280,%eax
 804ac2f:	8b 15 84 32 07 08    	mov    0x8073284,%edx
 804ac35:	8b 8d 20 ff ff ff    	mov    -0xe0(%ebp),%ecx
 804ac3b:	8b 9d 24 ff ff ff    	mov    -0xdc(%ebp),%ebx
 804ac41:	89 ce                	mov    %ecx,%esi
 804ac43:	31 c6                	xor    %eax,%esi
 804ac45:	89 b5 18 ff ff ff    	mov    %esi,-0xe8(%ebp)
 804ac4b:	89 d0                	mov    %edx,%eax
 804ac4d:	31 d8                	xor    %ebx,%eax
 804ac4f:	89 85 1c ff ff ff    	mov    %eax,-0xe4(%ebp)
 804ac55:	83 ec 0c             	sub    $0xc,%esp
 804ac58:	ff 75 c4             	pushl  -0x3c(%ebp)
 804ac5b:	e8 99 0d 00 00       	call   804b9f9 <hash__wyr8>
 804ac60:	83 c4 10             	add    $0x10,%esp
 804ac63:	89 c6                	mov    %eax,%esi
 804ac65:	33 75 c8             	xor    -0x38(%ebp),%esi
 804ac68:	89 b5 10 ff ff ff    	mov    %esi,-0xf0(%ebp)
 804ac6e:	89 d0                	mov    %edx,%eax
 804ac70:	33 45 cc             	xor    -0x34(%ebp),%eax
 804ac73:	89 85 14 ff ff ff    	mov    %eax,-0xec(%ebp)
 804ac79:	a1 78 31 07 08       	mov    0x8073178,%eax
 804ac7e:	8b 15 7c 31 07 08    	mov    0x807317c,%edx
 804ac84:	8b 8d 10 ff ff ff    	mov    -0xf0(%ebp),%ecx
 804ac8a:	8b 9d 14 ff ff ff    	mov    -0xec(%ebp),%ebx
 804ac90:	89 ce                	mov    %ecx,%esi
 804ac92:	31 c6                	xor    %eax,%esi
 804ac94:	89 b5 08 ff ff ff    	mov    %esi,-0xf8(%ebp)
 804ac9a:	89 d0                	mov    %edx,%eax
 804ac9c:	31 d8                	xor    %ebx,%eax
 804ac9e:	89 85 0c ff ff ff    	mov    %eax,-0xf4(%ebp)
 804aca4:	ff b5 1c ff ff ff    	pushl  -0xe4(%ebp)
 804acaa:	ff b5 18 ff ff ff    	pushl  -0xe8(%ebp)
 804acb0:	ff b5 0c ff ff ff    	pushl  -0xf4(%ebp)
 804acb6:	ff b5 08 ff ff ff    	pushl  -0xf8(%ebp)
 804acbc:	e8 c4 0a 00 00       	call   804b785 <hash__wymum>
 804acc1:	83 c4 10             	add    $0x10,%esp
 804acc4:	89 c3                	mov    %eax,%ebx
 804acc6:	89 d6                	mov    %edx,%esi
 804acc8:	a1 88 32 07 08       	mov    0x8073288,%eax
 804accd:	8b 15 8c 32 07 08    	mov    0x807328c,%edx
 804acd3:	89 c1                	mov    %eax,%ecx
 804acd5:	33 4d c8             	xor    -0x38(%ebp),%ecx
 804acd8:	89 8d 00 ff ff ff    	mov    %ecx,-0x100(%ebp)
 804acde:	89 d0                	mov    %edx,%eax
 804ace0:	33 45 cc             	xor    -0x34(%ebp),%eax
 804ace3:	89 85 04 ff ff ff    	mov    %eax,-0xfc(%ebp)
 804ace9:	8b 45 d0             	mov    -0x30(%ebp),%eax
 804acec:	8d 50 f8             	lea    -0x8(%eax),%edx
 804acef:	8b 45 c4             	mov    -0x3c(%ebp),%eax
 804acf2:	01 d0                	add    %edx,%eax
 804acf4:	83 ec 0c             	sub    $0xc,%esp
 804acf7:	50                   	push   %eax
 804acf8:	e8 fc 0c 00 00       	call   804b9f9 <hash__wyr8>
 804acfd:	83 c4 10             	add    $0x10,%esp
 804ad00:	89 c1                	mov    %eax,%ecx
 804ad02:	33 4d c8             	xor    -0x38(%ebp),%ecx
 804ad05:	89 4d 98             	mov    %ecx,-0x68(%ebp)
 804ad08:	89 d0                	mov    %edx,%eax
 804ad0a:	33 45 cc             	xor    -0x34(%ebp),%eax
 804ad0d:	89 45 9c             	mov    %eax,-0x64(%ebp)
 804ad10:	a1 70 31 07 08       	mov    0x8073170,%eax
 804ad15:	8b 15 74 31 07 08    	mov    0x8073174,%edx
 804ad1b:	8b 4d 98             	mov    -0x68(%ebp),%ecx
 804ad1e:	31 c1                	xor    %eax,%ecx
 804ad20:	89 8d f8 fe ff ff    	mov    %ecx,-0x108(%ebp)
 804ad26:	89 d0                	mov    %edx,%eax
 804ad28:	33 45 9c             	xor    -0x64(%ebp),%eax
 804ad2b:	89 85 fc fe ff ff    	mov    %eax,-0x104(%ebp)
 804ad31:	ff b5 04 ff ff ff    	pushl  -0xfc(%ebp)
 804ad37:	ff b5 00 ff ff ff    	pushl  -0x100(%ebp)
 804ad3d:	ff b5 fc fe ff ff    	pushl  -0x104(%ebp)
 804ad43:	ff b5 f8 fe ff ff    	pushl  -0x108(%ebp)
 804ad49:	e8 37 0a 00 00       	call   804b785 <hash__wymum>
 804ad4e:	83 c4 10             	add    $0x10,%esp
 804ad51:	89 d9                	mov    %ebx,%ecx
 804ad53:	31 c1                	xor    %eax,%ecx
 804ad55:	89 4d a0             	mov    %ecx,-0x60(%ebp)
 804ad58:	31 d6                	xor    %edx,%esi
 804ad5a:	89 75 a4             	mov    %esi,-0x5c(%ebp)
 804ad5d:	e9 1a 05 00 00       	jmp    804b27c <hash__wyhash64+0x9cb>
 804ad62:	83 7d f4 00          	cmpl   $0x0,-0xc(%ebp)
 804ad66:	0f 82 ac 01 00 00    	jb     804af18 <hash__wyhash64+0x667>
 804ad6c:	83 7d f4 00          	cmpl   $0x0,-0xc(%ebp)
 804ad70:	77 0a                	ja     804ad7c <hash__wyhash64+0x4cb>
 804ad72:	83 7d f0 18          	cmpl   $0x18,-0x10(%ebp)
 804ad76:	0f 86 9c 01 00 00    	jbe    804af18 <hash__wyhash64+0x667>
 804ad7c:	83 7d f4 00          	cmpl   $0x0,-0xc(%ebp)
 804ad80:	0f 87 92 01 00 00    	ja     804af18 <hash__wyhash64+0x667>
 804ad86:	83 7d f4 00          	cmpl   $0x0,-0xc(%ebp)
 804ad8a:	72 0a                	jb     804ad96 <hash__wyhash64+0x4e5>
 804ad8c:	83 7d f0 20          	cmpl   $0x20,-0x10(%ebp)
 804ad90:	0f 87 82 01 00 00    	ja     804af18 <hash__wyhash64+0x667>
 804ad96:	8b 45 c4             	mov    -0x3c(%ebp),%eax
 804ad99:	83 c0 08             	add    $0x8,%eax
 804ad9c:	83 ec 0c             	sub    $0xc,%esp
 804ad9f:	50                   	push   %eax
 804ada0:	e8 54 0c 00 00       	call   804b9f9 <hash__wyr8>
 804ada5:	83 c4 10             	add    $0x10,%esp
 804ada8:	89 c6                	mov    %eax,%esi
 804adaa:	33 75 c8             	xor    -0x38(%ebp),%esi
 804adad:	89 b5 f0 fe ff ff    	mov    %esi,-0x110(%ebp)
 804adb3:	89 d0                	mov    %edx,%eax
 804adb5:	33 45 cc             	xor    -0x34(%ebp),%eax
 804adb8:	89 85 f4 fe ff ff    	mov    %eax,-0x10c(%ebp)
 804adbe:	a1 80 32 07 08       	mov    0x8073280,%eax
 804adc3:	8b 15 84 32 07 08    	mov    0x8073284,%edx
 804adc9:	8b 8d f0 fe ff ff    	mov    -0x110(%ebp),%ecx
 804adcf:	8b 9d f4 fe ff ff    	mov    -0x10c(%ebp),%ebx
 804add5:	89 ce                	mov    %ecx,%esi
 804add7:	31 c6                	xor    %eax,%esi
 804add9:	89 b5 e8 fe ff ff    	mov    %esi,-0x118(%ebp)
 804addf:	89 d0                	mov    %edx,%eax
 804ade1:	31 d8                	xor    %ebx,%eax
 804ade3:	89 85 ec fe ff ff    	mov    %eax,-0x114(%ebp)
 804ade9:	83 ec 0c             	sub    $0xc,%esp
 804adec:	ff 75 c4             	pushl  -0x3c(%ebp)
 804adef:	e8 05 0c 00 00       	call   804b9f9 <hash__wyr8>
 804adf4:	83 c4 10             	add    $0x10,%esp
 804adf7:	89 c6                	mov    %eax,%esi
 804adf9:	33 75 c8             	xor    -0x38(%ebp),%esi
 804adfc:	89 b5 e0 fe ff ff    	mov    %esi,-0x120(%ebp)
 804ae02:	89 d0                	mov    %edx,%eax
 804ae04:	33 45 cc             	xor    -0x34(%ebp),%eax
 804ae07:	89 85 e4 fe ff ff    	mov    %eax,-0x11c(%ebp)
 804ae0d:	a1 78 31 07 08       	mov    0x8073178,%eax
 804ae12:	8b 15 7c 31 07 08    	mov    0x807317c,%edx
 804ae18:	8b 8d e0 fe ff ff    	mov    -0x120(%ebp),%ecx
 804ae1e:	8b 9d e4 fe ff ff    	mov    -0x11c(%ebp),%ebx
 804ae24:	89 ce                	mov    %ecx,%esi
 804ae26:	31 c6                	xor    %eax,%esi
 804ae28:	89 b5 d8 fe ff ff    	mov    %esi,-0x128(%ebp)
 804ae2e:	89 d0                	mov    %edx,%eax
 804ae30:	31 d8                	xor    %ebx,%eax
 804ae32:	89 85 dc fe ff ff    	mov    %eax,-0x124(%ebp)
 804ae38:	ff b5 ec fe ff ff    	pushl  -0x114(%ebp)
 804ae3e:	ff b5 e8 fe ff ff    	pushl  -0x118(%ebp)
 804ae44:	ff b5 dc fe ff ff    	pushl  -0x124(%ebp)
 804ae4a:	ff b5 d8 fe ff ff    	pushl  -0x128(%ebp)
 804ae50:	e8 30 09 00 00       	call   804b785 <hash__wymum>
 804ae55:	83 c4 10             	add    $0x10,%esp
 804ae58:	89 c3                	mov    %eax,%ebx
 804ae5a:	89 d6                	mov    %edx,%esi
 804ae5c:	8b 45 d0             	mov    -0x30(%ebp),%eax
 804ae5f:	8d 50 f8             	lea    -0x8(%eax),%edx
 804ae62:	8b 45 c4             	mov    -0x3c(%ebp),%eax
 804ae65:	01 d0                	add    %edx,%eax
 804ae67:	83 ec 0c             	sub    $0xc,%esp
 804ae6a:	50                   	push   %eax
 804ae6b:	e8 89 0b 00 00       	call   804b9f9 <hash__wyr8>
 804ae70:	83 c4 10             	add    $0x10,%esp
 804ae73:	89 c1                	mov    %eax,%ecx
 804ae75:	33 4d c8             	xor    -0x38(%ebp),%ecx
 804ae78:	89 4d 90             	mov    %ecx,-0x70(%ebp)
 804ae7b:	89 d0                	mov    %edx,%eax
 804ae7d:	33 45 cc             	xor    -0x34(%ebp),%eax
 804ae80:	89 45 94             	mov    %eax,-0x6c(%ebp)
 804ae83:	a1 88 32 07 08       	mov    0x8073288,%eax
 804ae88:	8b 15 8c 32 07 08    	mov    0x807328c,%edx
 804ae8e:	8b 4d 90             	mov    -0x70(%ebp),%ecx
 804ae91:	31 c1                	xor    %eax,%ecx
 804ae93:	89 8d d0 fe ff ff    	mov    %ecx,-0x130(%ebp)
 804ae99:	89 d0                	mov    %edx,%eax
 804ae9b:	33 45 94             	xor    -0x6c(%ebp),%eax
 804ae9e:	89 85 d4 fe ff ff    	mov    %eax,-0x12c(%ebp)
 804aea4:	8b 45 c4             	mov    -0x3c(%ebp),%eax
 804aea7:	83 c0 10             	add    $0x10,%eax
 804aeaa:	83 ec 0c             	sub    $0xc,%esp
 804aead:	50                   	push   %eax
 804aeae:	e8 46 0b 00 00       	call   804b9f9 <hash__wyr8>
 804aeb3:	83 c4 10             	add    $0x10,%esp
 804aeb6:	89 c1                	mov    %eax,%ecx
 804aeb8:	33 4d c8             	xor    -0x38(%ebp),%ecx
 804aebb:	89 4d 88             	mov    %ecx,-0x78(%ebp)
 804aebe:	89 d0                	mov    %edx,%eax
 804aec0:	33 45 cc             	xor    -0x34(%ebp),%eax
 804aec3:	89 45 8c             	mov    %eax,-0x74(%ebp)
 804aec6:	a1 70 31 07 08       	mov    0x8073170,%eax
 804aecb:	8b 15 74 31 07 08    	mov    0x8073174,%edx
 804aed1:	8b 4d 88             	mov    -0x78(%ebp),%ecx
 804aed4:	31 c1                	xor    %eax,%ecx
 804aed6:	89 8d c8 fe ff ff    	mov    %ecx,-0x138(%ebp)
 804aedc:	89 d0                	mov    %edx,%eax
 804aede:	33 45 8c             	xor    -0x74(%ebp),%eax
 804aee1:	89 85 cc fe ff ff    	mov    %eax,-0x134(%ebp)
 804aee7:	ff b5 d4 fe ff ff    	pushl  -0x12c(%ebp)
 804aeed:	ff b5 d0 fe ff ff    	pushl  -0x130(%ebp)
 804aef3:	ff b5 cc fe ff ff    	pushl  -0x134(%ebp)
 804aef9:	ff b5 c8 fe ff ff    	pushl  -0x138(%ebp)
 804aeff:	e8 81 08 00 00       	call   804b785 <hash__wymum>
 804af04:	83 c4 10             	add    $0x10,%esp
 804af07:	89 d9                	mov    %ebx,%ecx
 804af09:	31 c1                	xor    %eax,%ecx
 804af0b:	89 4d a0             	mov    %ecx,-0x60(%ebp)
 804af0e:	31 d6                	xor    %edx,%esi
 804af10:	89 75 a4             	mov    %esi,-0x5c(%ebp)
 804af13:	e9 64 03 00 00       	jmp    804b27c <hash__wyhash64+0x9cb>
 804af18:	8b 45 c4             	mov    -0x3c(%ebp),%eax
 804af1b:	83 c0 08             	add    $0x8,%eax
 804af1e:	83 ec 0c             	sub    $0xc,%esp
 804af21:	50                   	push   %eax
 804af22:	e8 d2 0a 00 00       	call   804b9f9 <hash__wyr8>
 804af27:	83 c4 10             	add    $0x10,%esp
 804af2a:	89 c6                	mov    %eax,%esi
 804af2c:	33 75 c8             	xor    -0x38(%ebp),%esi
 804af2f:	89 b5 c0 fe ff ff    	mov    %esi,-0x140(%ebp)
 804af35:	89 d0                	mov    %edx,%eax
 804af37:	33 45 cc             	xor    -0x34(%ebp),%eax
 804af3a:	89 85 c4 fe ff ff    	mov    %eax,-0x13c(%ebp)
 804af40:	a1 80 32 07 08       	mov    0x8073280,%eax
 804af45:	8b 15 84 32 07 08    	mov    0x8073284,%edx
 804af4b:	8b 8d c0 fe ff ff    	mov    -0x140(%ebp),%ecx
 804af51:	8b 9d c4 fe ff ff    	mov    -0x13c(%ebp),%ebx
 804af57:	89 ce                	mov    %ecx,%esi
 804af59:	31 c6                	xor    %eax,%esi
 804af5b:	89 b5 b8 fe ff ff    	mov    %esi,-0x148(%ebp)
 804af61:	89 d0                	mov    %edx,%eax
 804af63:	31 d8                	xor    %ebx,%eax
 804af65:	89 85 bc fe ff ff    	mov    %eax,-0x144(%ebp)
 804af6b:	83 ec 0c             	sub    $0xc,%esp
 804af6e:	ff 75 c4             	pushl  -0x3c(%ebp)
 804af71:	e8 83 0a 00 00       	call   804b9f9 <hash__wyr8>
 804af76:	83 c4 10             	add    $0x10,%esp
 804af79:	89 c6                	mov    %eax,%esi
 804af7b:	33 75 c8             	xor    -0x38(%ebp),%esi
 804af7e:	89 b5 b0 fe ff ff    	mov    %esi,-0x150(%ebp)
 804af84:	89 d0                	mov    %edx,%eax
 804af86:	33 45 cc             	xor    -0x34(%ebp),%eax
 804af89:	89 85 b4 fe ff ff    	mov    %eax,-0x14c(%ebp)
 804af8f:	a1 78 31 07 08       	mov    0x8073178,%eax
 804af94:	8b 15 7c 31 07 08    	mov    0x807317c,%edx
 804af9a:	8b 8d b0 fe ff ff    	mov    -0x150(%ebp),%ecx
 804afa0:	8b 9d b4 fe ff ff    	mov    -0x14c(%ebp),%ebx
 804afa6:	89 ce                	mov    %ecx,%esi
 804afa8:	31 c6                	xor    %eax,%esi
 804afaa:	89 b5 a8 fe ff ff    	mov    %esi,-0x158(%ebp)
 804afb0:	89 d0                	mov    %edx,%eax
 804afb2:	31 d8                	xor    %ebx,%eax
 804afb4:	89 85 ac fe ff ff    	mov    %eax,-0x154(%ebp)
 804afba:	ff b5 bc fe ff ff    	pushl  -0x144(%ebp)
 804afc0:	ff b5 b8 fe ff ff    	pushl  -0x148(%ebp)
 804afc6:	ff b5 ac fe ff ff    	pushl  -0x154(%ebp)
 804afcc:	ff b5 a8 fe ff ff    	pushl  -0x158(%ebp)
 804afd2:	e8 ae 07 00 00       	call   804b785 <hash__wymum>
 804afd7:	83 c4 10             	add    $0x10,%esp
 804afda:	89 c3                	mov    %eax,%ebx
 804afdc:	89 d6                	mov    %edx,%esi
 804afde:	8b 45 c4             	mov    -0x3c(%ebp),%eax
 804afe1:	83 c0 18             	add    $0x18,%eax
 804afe4:	83 ec 0c             	sub    $0xc,%esp
 804afe7:	50                   	push   %eax
 804afe8:	e8 0c 0a 00 00       	call   804b9f9 <hash__wyr8>
 804afed:	83 c4 10             	add    $0x10,%esp
 804aff0:	89 c1                	mov    %eax,%ecx
 804aff2:	33 4d c8             	xor    -0x38(%ebp),%ecx
 804aff5:	89 4d 80             	mov    %ecx,-0x80(%ebp)
 804aff8:	89 d0                	mov    %edx,%eax
 804affa:	33 45 cc             	xor    -0x34(%ebp),%eax
 804affd:	89 45 84             	mov    %eax,-0x7c(%ebp)
 804b000:	a1 88 32 07 08       	mov    0x8073288,%eax
 804b005:	8b 15 8c 32 07 08    	mov    0x807328c,%edx
 804b00b:	8b 4d 80             	mov    -0x80(%ebp),%ecx
 804b00e:	31 c1                	xor    %eax,%ecx
 804b010:	89 8d a0 fe ff ff    	mov    %ecx,-0x160(%ebp)
 804b016:	89 d0                	mov    %edx,%eax
 804b018:	33 45 84             	xor    -0x7c(%ebp),%eax
 804b01b:	89 85 a4 fe ff ff    	mov    %eax,-0x15c(%ebp)
 804b021:	8b 45 c4             	mov    -0x3c(%ebp),%eax
 804b024:	83 c0 10             	add    $0x10,%eax
 804b027:	83 ec 0c             	sub    $0xc,%esp
 804b02a:	50                   	push   %eax
 804b02b:	e8 c9 09 00 00       	call   804b9f9 <hash__wyr8>
 804b030:	83 c4 10             	add    $0x10,%esp
 804b033:	89 c1                	mov    %eax,%ecx
 804b035:	33 4d c8             	xor    -0x38(%ebp),%ecx
 804b038:	89 8d 78 ff ff ff    	mov    %ecx,-0x88(%ebp)
 804b03e:	89 d0                	mov    %edx,%eax
 804b040:	33 45 cc             	xor    -0x34(%ebp),%eax
 804b043:	89 85 7c ff ff ff    	mov    %eax,-0x84(%ebp)
 804b049:	a1 70 31 07 08       	mov    0x8073170,%eax
 804b04e:	8b 15 74 31 07 08    	mov    0x8073174,%edx
 804b054:	8b 8d 78 ff ff ff    	mov    -0x88(%ebp),%ecx
 804b05a:	31 c1                	xor    %eax,%ecx
 804b05c:	89 8d 98 fe ff ff    	mov    %ecx,-0x168(%ebp)
 804b062:	89 d0                	mov    %edx,%eax
 804b064:	33 85 7c ff ff ff    	xor    -0x84(%ebp),%eax
 804b06a:	89 85 9c fe ff ff    	mov    %eax,-0x164(%ebp)
 804b070:	ff b5 a4 fe ff ff    	pushl  -0x15c(%ebp)
 804b076:	ff b5 a0 fe ff ff    	pushl  -0x160(%ebp)
 804b07c:	ff b5 9c fe ff ff    	pushl  -0x164(%ebp)
 804b082:	ff b5 98 fe ff ff    	pushl  -0x168(%ebp)
 804b088:	e8 f8 06 00 00       	call   804b785 <hash__wymum>
 804b08d:	83 c4 10             	add    $0x10,%esp
 804b090:	89 d9                	mov    %ebx,%ecx
 804b092:	31 c1                	xor    %eax,%ecx
 804b094:	89 8d 90 fe ff ff    	mov    %ecx,-0x170(%ebp)
 804b09a:	31 d6                	xor    %edx,%esi
 804b09c:	89 b5 94 fe ff ff    	mov    %esi,-0x16c(%ebp)
 804b0a2:	8b 45 d0             	mov    -0x30(%ebp),%eax
 804b0a5:	8d 50 e8             	lea    -0x18(%eax),%edx
 804b0a8:	8b 45 c4             	mov    -0x3c(%ebp),%eax
 804b0ab:	01 d0                	add    %edx,%eax
 804b0ad:	83 ec 0c             	sub    $0xc,%esp
 804b0b0:	50                   	push   %eax
 804b0b1:	e8 43 09 00 00       	call   804b9f9 <hash__wyr8>
 804b0b6:	83 c4 10             	add    $0x10,%esp
 804b0b9:	89 c6                	mov    %eax,%esi
 804b0bb:	33 75 c8             	xor    -0x38(%ebp),%esi
 804b0be:	89 b5 88 fe ff ff    	mov    %esi,-0x178(%ebp)
 804b0c4:	89 d0                	mov    %edx,%eax
 804b0c6:	33 45 cc             	xor    -0x34(%ebp),%eax
 804b0c9:	89 85 8c fe ff ff    	mov    %eax,-0x174(%ebp)
 804b0cf:	a1 70 31 07 08       	mov    0x8073170,%eax
 804b0d4:	8b 15 74 31 07 08    	mov    0x8073174,%edx
 804b0da:	8b 8d 88 fe ff ff    	mov    -0x178(%ebp),%ecx
 804b0e0:	8b 9d 8c fe ff ff    	mov    -0x174(%ebp),%ebx
 804b0e6:	89 ce                	mov    %ecx,%esi
 804b0e8:	31 c6                	xor    %eax,%esi
 804b0ea:	89 b5 80 fe ff ff    	mov    %esi,-0x180(%ebp)
 804b0f0:	89 d0                	mov    %edx,%eax
 804b0f2:	31 d8                	xor    %ebx,%eax
 804b0f4:	89 85 84 fe ff ff    	mov    %eax,-0x17c(%ebp)
 804b0fa:	8b 45 d0             	mov    -0x30(%ebp),%eax
 804b0fd:	8d 50 e0             	lea    -0x20(%eax),%edx
 804b100:	8b 45 c4             	mov    -0x3c(%ebp),%eax
 804b103:	01 d0                	add    %edx,%eax
 804b105:	83 ec 0c             	sub    $0xc,%esp
 804b108:	50                   	push   %eax
 804b109:	e8 eb 08 00 00       	call   804b9f9 <hash__wyr8>
 804b10e:	83 c4 10             	add    $0x10,%esp
 804b111:	89 c6                	mov    %eax,%esi
 804b113:	33 75 c8             	xor    -0x38(%ebp),%esi
 804b116:	89 b5 78 fe ff ff    	mov    %esi,-0x188(%ebp)
 804b11c:	89 d0                	mov    %edx,%eax
 804b11e:	33 45 cc             	xor    -0x34(%ebp),%eax
 804b121:	89 85 7c fe ff ff    	mov    %eax,-0x184(%ebp)
 804b127:	a1 80 32 07 08       	mov    0x8073280,%eax
 804b12c:	8b 15 84 32 07 08    	mov    0x8073284,%edx
 804b132:	8b 8d 78 fe ff ff    	mov    -0x188(%ebp),%ecx
 804b138:	8b 9d 7c fe ff ff    	mov    -0x184(%ebp),%ebx
 804b13e:	89 ce                	mov    %ecx,%esi
 804b140:	31 c6                	xor    %eax,%esi
 804b142:	89 b5 70 fe ff ff    	mov    %esi,-0x190(%ebp)
 804b148:	89 d0                	mov    %edx,%eax
 804b14a:	31 d8                	xor    %ebx,%eax
 804b14c:	89 85 74 fe ff ff    	mov    %eax,-0x18c(%ebp)
 804b152:	ff b5 84 fe ff ff    	pushl  -0x17c(%ebp)
 804b158:	ff b5 80 fe ff ff    	pushl  -0x180(%ebp)
 804b15e:	ff b5 74 fe ff ff    	pushl  -0x18c(%ebp)
 804b164:	ff b5 70 fe ff ff    	pushl  -0x190(%ebp)
 804b16a:	e8 16 06 00 00       	call   804b785 <hash__wymum>
 804b16f:	83 c4 10             	add    $0x10,%esp
 804b172:	8b 8d 90 fe ff ff    	mov    -0x170(%ebp),%ecx
 804b178:	8b 9d 94 fe ff ff    	mov    -0x16c(%ebp),%ebx
 804b17e:	89 ce                	mov    %ecx,%esi
 804b180:	31 c6                	xor    %eax,%esi
 804b182:	89 b5 68 fe ff ff    	mov    %esi,-0x198(%ebp)
 804b188:	89 d0                	mov    %edx,%eax
 804b18a:	31 d8                	xor    %ebx,%eax
 804b18c:	89 85 6c fe ff ff    	mov    %eax,-0x194(%ebp)
 804b192:	8b 45 d0             	mov    -0x30(%ebp),%eax
 804b195:	8d 50 f8             	lea    -0x8(%eax),%edx
 804b198:	8b 45 c4             	mov    -0x3c(%ebp),%eax
 804b19b:	01 d0                	add    %edx,%eax
 804b19d:	83 ec 0c             	sub    $0xc,%esp
 804b1a0:	50                   	push   %eax
 804b1a1:	e8 53 08 00 00       	call   804b9f9 <hash__wyr8>
 804b1a6:	83 c4 10             	add    $0x10,%esp
 804b1a9:	89 c6                	mov    %eax,%esi
 804b1ab:	33 75 c8             	xor    -0x38(%ebp),%esi
 804b1ae:	89 b5 60 fe ff ff    	mov    %esi,-0x1a0(%ebp)
 804b1b4:	89 d0                	mov    %edx,%eax
 804b1b6:	33 45 cc             	xor    -0x34(%ebp),%eax
 804b1b9:	89 85 64 fe ff ff    	mov    %eax,-0x19c(%ebp)
 804b1bf:	a1 78 31 07 08       	mov    0x8073178,%eax
 804b1c4:	8b 15 7c 31 07 08    	mov    0x807317c,%edx
 804b1ca:	8b 8d 60 fe ff ff    	mov    -0x1a0(%ebp),%ecx
 804b1d0:	8b 9d 64 fe ff ff    	mov    -0x19c(%ebp),%ebx
 804b1d6:	89 ce                	mov    %ecx,%esi
 804b1d8:	31 c6                	xor    %eax,%esi
 804b1da:	89 b5 58 fe ff ff    	mov    %esi,-0x1a8(%ebp)
 804b1e0:	89 d0                	mov    %edx,%eax
 804b1e2:	31 d8                	xor    %ebx,%eax
 804b1e4:	89 85 5c fe ff ff    	mov    %eax,-0x1a4(%ebp)
 804b1ea:	8b 45 d0             	mov    -0x30(%ebp),%eax
 804b1ed:	8d 50 f0             	lea    -0x10(%eax),%edx
 804b1f0:	8b 45 c4             	mov    -0x3c(%ebp),%eax
 804b1f3:	01 d0                	add    %edx,%eax
 804b1f5:	83 ec 0c             	sub    $0xc,%esp
 804b1f8:	50                   	push   %eax
 804b1f9:	e8 fb 07 00 00       	call   804b9f9 <hash__wyr8>
 804b1fe:	83 c4 10             	add    $0x10,%esp
 804b201:	89 c3                	mov    %eax,%ebx
 804b203:	33 5d c8             	xor    -0x38(%ebp),%ebx
 804b206:	89 9d 50 fe ff ff    	mov    %ebx,-0x1b0(%ebp)
 804b20c:	89 d0                	mov    %edx,%eax
 804b20e:	33 45 cc             	xor    -0x34(%ebp),%eax
 804b211:	89 85 54 fe ff ff    	mov    %eax,-0x1ac(%ebp)
 804b217:	a1 88 32 07 08       	mov    0x8073288,%eax
 804b21c:	8b 15 8c 32 07 08    	mov    0x807328c,%edx
 804b222:	8b 8d 50 fe ff ff    	mov    -0x1b0(%ebp),%ecx
 804b228:	8b 9d 54 fe ff ff    	mov    -0x1ac(%ebp),%ebx
 804b22e:	89 ce                	mov    %ecx,%esi
 804b230:	31 c6                	xor    %eax,%esi
 804b232:	89 b5 48 fe ff ff    	mov    %esi,-0x1b8(%ebp)
 804b238:	89 d0                	mov    %edx,%eax
 804b23a:	31 d8                	xor    %ebx,%eax
 804b23c:	89 85 4c fe ff ff    	mov    %eax,-0x1b4(%ebp)
 804b242:	ff b5 5c fe ff ff    	pushl  -0x1a4(%ebp)
 804b248:	ff b5 58 fe ff ff    	pushl  -0x1a8(%ebp)
 804b24e:	ff b5 4c fe ff ff    	pushl  -0x1b4(%ebp)
 804b254:	ff b5 48 fe ff ff    	pushl  -0x1b8(%ebp)
 804b25a:	e8 26 05 00 00       	call   804b785 <hash__wymum>
 804b25f:	83 c4 10             	add    $0x10,%esp
 804b262:	8b 8d 68 fe ff ff    	mov    -0x198(%ebp),%ecx
 804b268:	8b 9d 6c fe ff ff    	mov    -0x194(%ebp),%ebx
 804b26e:	89 ce                	mov    %ecx,%esi
 804b270:	31 c6                	xor    %eax,%esi
 804b272:	89 75 a0             	mov    %esi,-0x60(%ebp)
 804b275:	89 d0                	mov    %edx,%eax
 804b277:	31 d8                	xor    %ebx,%eax
 804b279:	89 45 a4             	mov    %eax,-0x5c(%ebp)
 804b27c:	8b 45 a0             	mov    -0x60(%ebp),%eax
 804b27f:	8b 55 a4             	mov    -0x5c(%ebp),%edx
 804b282:	89 45 c8             	mov    %eax,-0x38(%ebp)
 804b285:	89 55 cc             	mov    %edx,-0x34(%ebp)
 804b288:	8b 45 d0             	mov    -0x30(%ebp),%eax
 804b28b:	8b 55 d4             	mov    -0x2c(%ebp),%edx
 804b28e:	89 d1                	mov    %edx,%ecx
 804b290:	33 4d b4             	xor    -0x4c(%ebp),%ecx
 804b293:	33 45 b0             	xor    -0x50(%ebp),%eax
 804b296:	09 c8                	or     %ecx,%eax
 804b298:	85 c0                	test   %eax,%eax
 804b29a:	75 40                	jne    804b2dc <hash__wyhash64+0xa2b>
 804b29c:	a1 80 31 07 08       	mov    0x8073180,%eax
 804b2a1:	8b 15 84 31 07 08    	mov    0x8073184,%edx
 804b2a7:	89 c3                	mov    %eax,%ebx
 804b2a9:	33 5d b0             	xor    -0x50(%ebp),%ebx
 804b2ac:	89 9d 40 fe ff ff    	mov    %ebx,-0x1c0(%ebp)
 804b2b2:	89 d0                	mov    %edx,%eax
 804b2b4:	33 45 b4             	xor    -0x4c(%ebp),%eax
 804b2b7:	89 85 44 fe ff ff    	mov    %eax,-0x1bc(%ebp)
 804b2bd:	ff b5 44 fe ff ff    	pushl  -0x1bc(%ebp)
 804b2c3:	ff b5 40 fe ff ff    	pushl  -0x1c0(%ebp)
 804b2c9:	ff 75 cc             	pushl  -0x34(%ebp)
 804b2cc:	ff 75 c8             	pushl  -0x38(%ebp)
 804b2cf:	e8 b1 04 00 00       	call   804b785 <hash__wymum>
 804b2d4:	83 c4 10             	add    $0x10,%esp
 804b2d7:	e9 30 04 00 00       	jmp    804b70c <hash__wyhash64+0xe5b>
 804b2dc:	8b 45 c8             	mov    -0x38(%ebp),%eax
 804b2df:	8b 55 cc             	mov    -0x34(%ebp),%edx
 804b2e2:	89 45 d8             	mov    %eax,-0x28(%ebp)
 804b2e5:	89 55 dc             	mov    %edx,-0x24(%ebp)
 804b2e8:	8b 45 c8             	mov    -0x38(%ebp),%eax
 804b2eb:	8b 55 cc             	mov    -0x34(%ebp),%edx
 804b2ee:	89 45 e0             	mov    %eax,-0x20(%ebp)
 804b2f1:	89 55 e4             	mov    %edx,-0x1c(%ebp)
 804b2f4:	8b 45 c8             	mov    -0x38(%ebp),%eax
 804b2f7:	8b 55 cc             	mov    -0x34(%ebp),%edx
 804b2fa:	89 45 e8             	mov    %eax,-0x18(%ebp)
 804b2fd:	89 55 ec             	mov    %edx,-0x14(%ebp)
 804b300:	8b 45 d0             	mov    -0x30(%ebp),%eax
 804b303:	01 45 c4             	add    %eax,-0x3c(%ebp)
 804b306:	8b 45 b0             	mov    -0x50(%ebp),%eax
 804b309:	8b 55 b4             	mov    -0x4c(%ebp),%edx
 804b30c:	2b 45 d0             	sub    -0x30(%ebp),%eax
 804b30f:	1b 55 d4             	sbb    -0x2c(%ebp),%edx
 804b312:	89 45 d0             	mov    %eax,-0x30(%ebp)
 804b315:	89 55 d4             	mov    %edx,-0x2c(%ebp)
 804b318:	e9 38 03 00 00       	jmp    804b655 <hash__wyhash64+0xda4>
 804b31d:	8b 45 c4             	mov    -0x3c(%ebp),%eax
 804b320:	83 c0 08             	add    $0x8,%eax
 804b323:	83 ec 0c             	sub    $0xc,%esp
 804b326:	50                   	push   %eax
 804b327:	e8 cd 06 00 00       	call   804b9f9 <hash__wyr8>
 804b32c:	83 c4 10             	add    $0x10,%esp
 804b32f:	89 c3                	mov    %eax,%ebx
 804b331:	33 5d c8             	xor    -0x38(%ebp),%ebx
 804b334:	89 9d 38 fe ff ff    	mov    %ebx,-0x1c8(%ebp)
 804b33a:	89 d0                	mov    %edx,%eax
 804b33c:	33 45 cc             	xor    -0x34(%ebp),%eax
 804b33f:	89 85 3c fe ff ff    	mov    %eax,-0x1c4(%ebp)
 804b345:	a1 80 32 07 08       	mov    0x8073280,%eax
 804b34a:	8b 15 84 32 07 08    	mov    0x8073284,%edx
 804b350:	8b 8d 38 fe ff ff    	mov    -0x1c8(%ebp),%ecx
 804b356:	8b 9d 3c fe ff ff    	mov    -0x1c4(%ebp),%ebx
 804b35c:	89 ce                	mov    %ecx,%esi
 804b35e:	31 c6                	xor    %eax,%esi
 804b360:	89 b5 30 fe ff ff    	mov    %esi,-0x1d0(%ebp)
 804b366:	89 d0                	mov    %edx,%eax
 804b368:	31 d8                	xor    %ebx,%eax
 804b36a:	89 85 34 fe ff ff    	mov    %eax,-0x1cc(%ebp)
 804b370:	83 ec 0c             	sub    $0xc,%esp
 804b373:	ff 75 c4             	pushl  -0x3c(%ebp)
 804b376:	e8 7e 06 00 00       	call   804b9f9 <hash__wyr8>
 804b37b:	83 c4 10             	add    $0x10,%esp
 804b37e:	89 c3                	mov    %eax,%ebx
 804b380:	33 5d c8             	xor    -0x38(%ebp),%ebx
 804b383:	89 9d 28 fe ff ff    	mov    %ebx,-0x1d8(%ebp)
 804b389:	89 d0                	mov    %edx,%eax
 804b38b:	33 45 cc             	xor    -0x34(%ebp),%eax
 804b38e:	89 85 2c fe ff ff    	mov    %eax,-0x1d4(%ebp)
 804b394:	a1 78 31 07 08       	mov    0x8073178,%eax
 804b399:	8b 15 7c 31 07 08    	mov    0x807317c,%edx
 804b39f:	8b 8d 28 fe ff ff    	mov    -0x1d8(%ebp),%ecx
 804b3a5:	8b 9d 2c fe ff ff    	mov    -0x1d4(%ebp),%ebx
 804b3ab:	89 ce                	mov    %ecx,%esi
 804b3ad:	31 c6                	xor    %eax,%esi
 804b3af:	89 b5 20 fe ff ff    	mov    %esi,-0x1e0(%ebp)
 804b3b5:	89 d0                	mov    %edx,%eax
 804b3b7:	31 d8                	xor    %ebx,%eax
 804b3b9:	89 85 24 fe ff ff    	mov    %eax,-0x1dc(%ebp)
 804b3bf:	ff b5 34 fe ff ff    	pushl  -0x1cc(%ebp)
 804b3c5:	ff b5 30 fe ff ff    	pushl  -0x1d0(%ebp)
 804b3cb:	ff b5 24 fe ff ff    	pushl  -0x1dc(%ebp)
 804b3d1:	ff b5 20 fe ff ff    	pushl  -0x1e0(%ebp)
 804b3d7:	e8 a9 03 00 00       	call   804b785 <hash__wymum>
 804b3dc:	83 c4 10             	add    $0x10,%esp
 804b3df:	89 45 c8             	mov    %eax,-0x38(%ebp)
 804b3e2:	89 55 cc             	mov    %edx,-0x34(%ebp)
 804b3e5:	8b 45 c4             	mov    -0x3c(%ebp),%eax
 804b3e8:	83 c0 18             	add    $0x18,%eax
 804b3eb:	83 ec 0c             	sub    $0xc,%esp
 804b3ee:	50                   	push   %eax
 804b3ef:	e8 05 06 00 00       	call   804b9f9 <hash__wyr8>
 804b3f4:	83 c4 10             	add    $0x10,%esp
 804b3f7:	89 c3                	mov    %eax,%ebx
 804b3f9:	33 5d d8             	xor    -0x28(%ebp),%ebx
 804b3fc:	89 9d 18 fe ff ff    	mov    %ebx,-0x1e8(%ebp)
 804b402:	89 d0                	mov    %edx,%eax
 804b404:	33 45 dc             	xor    -0x24(%ebp),%eax
 804b407:	89 85 1c fe ff ff    	mov    %eax,-0x1e4(%ebp)
 804b40d:	a1 88 32 07 08       	mov    0x8073288,%eax
 804b412:	8b 15 8c 32 07 08    	mov    0x807328c,%edx
 804b418:	8b 8d 18 fe ff ff    	mov    -0x1e8(%ebp),%ecx
 804b41e:	8b 9d 1c fe ff ff    	mov    -0x1e4(%ebp),%ebx
 804b424:	89 ce                	mov    %ecx,%esi
 804b426:	31 c6                	xor    %eax,%esi
 804b428:	89 b5 10 fe ff ff    	mov    %esi,-0x1f0(%ebp)
 804b42e:	89 d0                	mov    %edx,%eax
 804b430:	31 d8                	xor    %ebx,%eax
 804b432:	89 85 14 fe ff ff    	mov    %eax,-0x1ec(%ebp)
 804b438:	8b 45 c4             	mov    -0x3c(%ebp),%eax
 804b43b:	83 c0 10             	add    $0x10,%eax
 804b43e:	83 ec 0c             	sub    $0xc,%esp
 804b441:	50                   	push   %eax
 804b442:	e8 b2 05 00 00       	call   804b9f9 <hash__wyr8>
 804b447:	83 c4 10             	add    $0x10,%esp
 804b44a:	89 c3                	mov    %eax,%ebx
 804b44c:	33 5d d8             	xor    -0x28(%ebp),%ebx
 804b44f:	89 9d 08 fe ff ff    	mov    %ebx,-0x1f8(%ebp)
 804b455:	89 d0                	mov    %edx,%eax
 804b457:	33 45 dc             	xor    -0x24(%ebp),%eax
 804b45a:	89 85 0c fe ff ff    	mov    %eax,-0x1f4(%ebp)
 804b460:	a1 70 31 07 08       	mov    0x8073170,%eax
 804b465:	8b 15 74 31 07 08    	mov    0x8073174,%edx
 804b46b:	8b 8d 08 fe ff ff    	mov    -0x1f8(%ebp),%ecx
 804b471:	8b 9d 0c fe ff ff    	mov    -0x1f4(%ebp),%ebx
 804b477:	89 ce                	mov    %ecx,%esi
 804b479:	31 c6                	xor    %eax,%esi
 804b47b:	89 b5 00 fe ff ff    	mov    %esi,-0x200(%ebp)
 804b481:	89 d0                	mov    %edx,%eax
 804b483:	31 d8                	xor    %ebx,%eax
 804b485:	89 85 04 fe ff ff    	mov    %eax,-0x1fc(%ebp)
 804b48b:	ff b5 14 fe ff ff    	pushl  -0x1ec(%ebp)
 804b491:	ff b5 10 fe ff ff    	pushl  -0x1f0(%ebp)
 804b497:	ff b5 04 fe ff ff    	pushl  -0x1fc(%ebp)
 804b49d:	ff b5 00 fe ff ff    	pushl  -0x200(%ebp)
 804b4a3:	e8 dd 02 00 00       	call   804b785 <hash__wymum>
 804b4a8:	83 c4 10             	add    $0x10,%esp
 804b4ab:	89 45 d8             	mov    %eax,-0x28(%ebp)
 804b4ae:	89 55 dc             	mov    %edx,-0x24(%ebp)
 804b4b1:	8b 45 c4             	mov    -0x3c(%ebp),%eax
 804b4b4:	83 c0 28             	add    $0x28,%eax
 804b4b7:	83 ec 0c             	sub    $0xc,%esp
 804b4ba:	50                   	push   %eax
 804b4bb:	e8 39 05 00 00       	call   804b9f9 <hash__wyr8>
 804b4c0:	83 c4 10             	add    $0x10,%esp
 804b4c3:	89 c3                	mov    %eax,%ebx
 804b4c5:	33 5d e0             	xor    -0x20(%ebp),%ebx
 804b4c8:	89 9d f8 fd ff ff    	mov    %ebx,-0x208(%ebp)
 804b4ce:	89 d0                	mov    %edx,%eax
 804b4d0:	33 45 e4             	xor    -0x1c(%ebp),%eax
 804b4d3:	89 85 fc fd ff ff    	mov    %eax,-0x204(%ebp)
 804b4d9:	a1 70 31 07 08       	mov    0x8073170,%eax
 804b4de:	8b 15 74 31 07 08    	mov    0x8073174,%edx
 804b4e4:	8b 8d f8 fd ff ff    	mov    -0x208(%ebp),%ecx
 804b4ea:	8b 9d fc fd ff ff    	mov    -0x204(%ebp),%ebx
 804b4f0:	89 ce                	mov    %ecx,%esi
 804b4f2:	31 c6                	xor    %eax,%esi
 804b4f4:	89 b5 f0 fd ff ff    	mov    %esi,-0x210(%ebp)
 804b4fa:	89 d0                	mov    %edx,%eax
 804b4fc:	31 d8                	xor    %ebx,%eax
 804b4fe:	89 85 f4 fd ff ff    	mov    %eax,-0x20c(%ebp)
 804b504:	8b 45 c4             	mov    -0x3c(%ebp),%eax
 804b507:	83 c0 20             	add    $0x20,%eax
 804b50a:	83 ec 0c             	sub    $0xc,%esp
 804b50d:	50                   	push   %eax
 804b50e:	e8 e6 04 00 00       	call   804b9f9 <hash__wyr8>
 804b513:	83 c4 10             	add    $0x10,%esp
 804b516:	89 c3                	mov    %eax,%ebx
 804b518:	33 5d e0             	xor    -0x20(%ebp),%ebx
 804b51b:	89 9d e8 fd ff ff    	mov    %ebx,-0x218(%ebp)
 804b521:	89 d0                	mov    %edx,%eax
 804b523:	33 45 e4             	xor    -0x1c(%ebp),%eax
 804b526:	89 85 ec fd ff ff    	mov    %eax,-0x214(%ebp)
 804b52c:	a1 80 32 07 08       	mov    0x8073280,%eax
 804b531:	8b 15 84 32 07 08    	mov    0x8073284,%edx
 804b537:	8b 8d e8 fd ff ff    	mov    -0x218(%ebp),%ecx
 804b53d:	8b 9d ec fd ff ff    	mov    -0x214(%ebp),%ebx
 804b543:	89 ce                	mov    %ecx,%esi
 804b545:	31 c6                	xor    %eax,%esi
 804b547:	89 b5 e0 fd ff ff    	mov    %esi,-0x220(%ebp)
 804b54d:	89 d0                	mov    %edx,%eax
 804b54f:	31 d8                	xor    %ebx,%eax
 804b551:	89 85 e4 fd ff ff    	mov    %eax,-0x21c(%ebp)
 804b557:	ff b5 f4 fd ff ff    	pushl  -0x20c(%ebp)
 804b55d:	ff b5 f0 fd ff ff    	pushl  -0x210(%ebp)
 804b563:	ff b5 e4 fd ff ff    	pushl  -0x21c(%ebp)
 804b569:	ff b5 e0 fd ff ff    	pushl  -0x220(%ebp)
 804b56f:	e8 11 02 00 00       	call   804b785 <hash__wymum>
 804b574:	83 c4 10             	add    $0x10,%esp
 804b577:	89 45 e0             	mov    %eax,-0x20(%ebp)
 804b57a:	89 55 e4             	mov    %edx,-0x1c(%ebp)
 804b57d:	8b 45 c4             	mov    -0x3c(%ebp),%eax
 804b580:	83 c0 38             	add    $0x38,%eax
 804b583:	83 ec 0c             	sub    $0xc,%esp
 804b586:	50                   	push   %eax
 804b587:	e8 6d 04 00 00       	call   804b9f9 <hash__wyr8>
 804b58c:	83 c4 10             	add    $0x10,%esp
 804b58f:	89 c3                	mov    %eax,%ebx
 804b591:	33 5d e8             	xor    -0x18(%ebp),%ebx
 804b594:	89 9d d8 fd ff ff    	mov    %ebx,-0x228(%ebp)
 804b59a:	89 d0                	mov    %edx,%eax
 804b59c:	33 45 ec             	xor    -0x14(%ebp),%eax
 804b59f:	89 85 dc fd ff ff    	mov    %eax,-0x224(%ebp)
 804b5a5:	a1 78 31 07 08       	mov    0x8073178,%eax
 804b5aa:	8b 15 7c 31 07 08    	mov    0x807317c,%edx
 804b5b0:	8b 8d d8 fd ff ff    	mov    -0x228(%ebp),%ecx
 804b5b6:	8b 9d dc fd ff ff    	mov    -0x224(%ebp),%ebx
 804b5bc:	89 ce                	mov    %ecx,%esi
 804b5be:	31 c6                	xor    %eax,%esi
 804b5c0:	89 b5 d0 fd ff ff    	mov    %esi,-0x230(%ebp)
 804b5c6:	89 d0                	mov    %edx,%eax
 804b5c8:	31 d8                	xor    %ebx,%eax
 804b5ca:	89 85 d4 fd ff ff    	mov    %eax,-0x22c(%ebp)
 804b5d0:	8b 45 c4             	mov    -0x3c(%ebp),%eax
 804b5d3:	83 c0 30             	add    $0x30,%eax
 804b5d6:	83 ec 0c             	sub    $0xc,%esp
 804b5d9:	50                   	push   %eax
 804b5da:	e8 1a 04 00 00       	call   804b9f9 <hash__wyr8>
 804b5df:	83 c4 10             	add    $0x10,%esp
 804b5e2:	89 c3                	mov    %eax,%ebx
 804b5e4:	33 5d e8             	xor    -0x18(%ebp),%ebx
 804b5e7:	89 9d c8 fd ff ff    	mov    %ebx,-0x238(%ebp)
 804b5ed:	89 d0                	mov    %edx,%eax
 804b5ef:	33 45 ec             	xor    -0x14(%ebp),%eax
 804b5f2:	89 85 cc fd ff ff    	mov    %eax,-0x234(%ebp)
 804b5f8:	a1 88 32 07 08       	mov    0x8073288,%eax
 804b5fd:	8b 15 8c 32 07 08    	mov    0x807328c,%edx
 804b603:	8b 8d c8 fd ff ff    	mov    -0x238(%ebp),%ecx
 804b609:	8b 9d cc fd ff ff    	mov    -0x234(%ebp),%ebx
 804b60f:	89 ce                	mov    %ecx,%esi
 804b611:	31 c6                	xor    %eax,%esi
 804b613:	89 b5 c0 fd ff ff    	mov    %esi,-0x240(%ebp)
 804b619:	89 d0                	mov    %edx,%eax
 804b61b:	31 d8                	xor    %ebx,%eax
 804b61d:	89 85 c4 fd ff ff    	mov    %eax,-0x23c(%ebp)
 804b623:	ff b5 d4 fd ff ff    	pushl  -0x22c(%ebp)
 804b629:	ff b5 d0 fd ff ff    	pushl  -0x230(%ebp)
 804b62f:	ff b5 c4 fd ff ff    	pushl  -0x23c(%ebp)
 804b635:	ff b5 c0 fd ff ff    	pushl  -0x240(%ebp)
 804b63b:	e8 45 01 00 00       	call   804b785 <hash__wymum>
 804b640:	83 c4 10             	add    $0x10,%esp
 804b643:	89 45 e8             	mov    %eax,-0x18(%ebp)
 804b646:	89 55 ec             	mov    %edx,-0x14(%ebp)
 804b649:	83 45 c4 40          	addl   $0x40,-0x3c(%ebp)
 804b64d:	83 45 d0 c0          	addl   $0xffffffc0,-0x30(%ebp)
 804b651:	83 55 d4 ff          	adcl   $0xffffffff,-0x2c(%ebp)
 804b655:	83 7d d4 00          	cmpl   $0x0,-0x2c(%ebp)
 804b659:	0f 87 be fc ff ff    	ja     804b31d <hash__wyhash64+0xa6c>
 804b65f:	83 7d d4 00          	cmpl   $0x0,-0x2c(%ebp)
 804b663:	72 0a                	jb     804b66f <hash__wyhash64+0xdbe>
 804b665:	83 7d d0 3f          	cmpl   $0x3f,-0x30(%ebp)
 804b669:	0f 87 ae fc ff ff    	ja     804b31d <hash__wyhash64+0xa6c>
 804b66f:	8b 45 e8             	mov    -0x18(%ebp),%eax
 804b672:	33 45 b0             	xor    -0x50(%ebp),%eax
 804b675:	89 85 b8 fd ff ff    	mov    %eax,-0x248(%ebp)
 804b67b:	8b 45 ec             	mov    -0x14(%ebp),%eax
 804b67e:	33 45 b4             	xor    -0x4c(%ebp),%eax
 804b681:	89 85 bc fd ff ff    	mov    %eax,-0x244(%ebp)
 804b687:	a1 80 31 07 08       	mov    0x8073180,%eax
 804b68c:	8b 15 84 31 07 08    	mov    0x8073184,%edx
 804b692:	8b 8d b8 fd ff ff    	mov    -0x248(%ebp),%ecx
 804b698:	8b 9d bc fd ff ff    	mov    -0x244(%ebp),%ebx
 804b69e:	89 ce                	mov    %ecx,%esi
 804b6a0:	31 c6                	xor    %eax,%esi
 804b6a2:	89 b5 b0 fd ff ff    	mov    %esi,-0x250(%ebp)
 804b6a8:	89 d0                	mov    %edx,%eax
 804b6aa:	31 d8                	xor    %ebx,%eax
 804b6ac:	89 85 b4 fd ff ff    	mov    %eax,-0x24c(%ebp)
 804b6b2:	8b 45 c8             	mov    -0x38(%ebp),%eax
 804b6b5:	33 45 d8             	xor    -0x28(%ebp),%eax
 804b6b8:	89 85 a8 fd ff ff    	mov    %eax,-0x258(%ebp)
 804b6be:	8b 45 cc             	mov    -0x34(%ebp),%eax
 804b6c1:	33 45 dc             	xor    -0x24(%ebp),%eax
 804b6c4:	89 85 ac fd ff ff    	mov    %eax,-0x254(%ebp)
 804b6ca:	8b 85 a8 fd ff ff    	mov    -0x258(%ebp),%eax
 804b6d0:	8b 95 ac fd ff ff    	mov    -0x254(%ebp),%edx
 804b6d6:	89 c3                	mov    %eax,%ebx
 804b6d8:	33 5d e0             	xor    -0x20(%ebp),%ebx
 804b6db:	89 9d a0 fd ff ff    	mov    %ebx,-0x260(%ebp)
 804b6e1:	89 d0                	mov    %edx,%eax
 804b6e3:	33 45 e4             	xor    -0x1c(%ebp),%eax
 804b6e6:	89 85 a4 fd ff ff    	mov    %eax,-0x25c(%ebp)
 804b6ec:	ff b5 b4 fd ff ff    	pushl  -0x24c(%ebp)
 804b6f2:	ff b5 b0 fd ff ff    	pushl  -0x250(%ebp)
 804b6f8:	ff b5 a4 fd ff ff    	pushl  -0x25c(%ebp)
 804b6fe:	ff b5 a0 fd ff ff    	pushl  -0x260(%ebp)
 804b704:	e8 7c 00 00 00       	call   804b785 <hash__wymum>
 804b709:	83 c4 10             	add    $0x10,%esp
 804b70c:	8d 65 f8             	lea    -0x8(%ebp),%esp
 804b70f:	5b                   	pop    %ebx
 804b710:	5e                   	pop    %esi
 804b711:	5d                   	pop    %ebp
 804b712:	c3                   	ret    

0804b713 <hash__wyrotr>:
 804b713:	55                   	push   %ebp
 804b714:	89 e5                	mov    %esp,%ebp
 804b716:	56                   	push   %esi
 804b717:	53                   	push   %ebx
 804b718:	83 ec 18             	sub    $0x18,%esp
 804b71b:	8b 45 08             	mov    0x8(%ebp),%eax
 804b71e:	89 45 f0             	mov    %eax,-0x10(%ebp)
 804b721:	8b 45 0c             	mov    0xc(%ebp),%eax
 804b724:	89 45 f4             	mov    %eax,-0xc(%ebp)
 804b727:	8b 5d f0             	mov    -0x10(%ebp),%ebx
 804b72a:	8b 75 f4             	mov    -0xc(%ebp),%esi
 804b72d:	8b 4d 10             	mov    0x10(%ebp),%ecx
 804b730:	89 d8                	mov    %ebx,%eax
 804b732:	89 f2                	mov    %esi,%edx
 804b734:	0f ad d0             	shrd   %cl,%edx,%eax
 804b737:	d3 ea                	shr    %cl,%edx
 804b739:	f6 c1 20             	test   $0x20,%cl
 804b73c:	74 04                	je     804b742 <hash__wyrotr+0x2f>
 804b73e:	89 d0                	mov    %edx,%eax
 804b740:	31 d2                	xor    %edx,%edx
 804b742:	89 45 e0             	mov    %eax,-0x20(%ebp)
 804b745:	89 55 e4             	mov    %edx,-0x1c(%ebp)
 804b748:	8b 45 10             	mov    0x10(%ebp),%eax
 804b74b:	f7 d8                	neg    %eax
 804b74d:	83 e0 3f             	and    $0x3f,%eax
 804b750:	89 c1                	mov    %eax,%ecx
 804b752:	89 d8                	mov    %ebx,%eax
 804b754:	89 f2                	mov    %esi,%edx
 804b756:	0f a5 c2             	shld   %cl,%eax,%edx
 804b759:	d3 e0                	shl    %cl,%eax
 804b75b:	f6 c1 20             	test   $0x20,%cl
 804b75e:	74 04                	je     804b764 <hash__wyrotr+0x51>
 804b760:	89 c2                	mov    %eax,%edx
 804b762:	31 c0                	xor    %eax,%eax
 804b764:	8b 5d e0             	mov    -0x20(%ebp),%ebx
 804b767:	8b 75 e4             	mov    -0x1c(%ebp),%esi
 804b76a:	89 d9                	mov    %ebx,%ecx
 804b76c:	09 c1                	or     %eax,%ecx
 804b76e:	89 4d e8             	mov    %ecx,-0x18(%ebp)
 804b771:	89 d0                	mov    %edx,%eax
 804b773:	09 f0                	or     %esi,%eax
 804b775:	89 45 ec             	mov    %eax,-0x14(%ebp)
 804b778:	8b 45 e8             	mov    -0x18(%ebp),%eax
 804b77b:	8b 55 ec             	mov    -0x14(%ebp),%edx
 804b77e:	83 c4 18             	add    $0x18,%esp
 804b781:	5b                   	pop    %ebx
 804b782:	5e                   	pop    %esi
 804b783:	5d                   	pop    %ebp
 804b784:	c3                   	ret    

0804b785 <hash__wymum>:
 804b785:	55                   	push   %ebp
 804b786:	89 e5                	mov    %esp,%ebp
 804b788:	57                   	push   %edi
 804b789:	56                   	push   %esi
 804b78a:	53                   	push   %ebx
 804b78b:	83 ec 74             	sub    $0x74,%esp
 804b78e:	8b 45 08             	mov    0x8(%ebp),%eax
 804b791:	89 45 88             	mov    %eax,-0x78(%ebp)
 804b794:	8b 45 0c             	mov    0xc(%ebp),%eax
 804b797:	89 45 8c             	mov    %eax,-0x74(%ebp)
 804b79a:	8b 45 10             	mov    0x10(%ebp),%eax
 804b79d:	89 45 80             	mov    %eax,-0x80(%ebp)
 804b7a0:	8b 45 14             	mov    0x14(%ebp),%eax
 804b7a3:	89 45 84             	mov    %eax,-0x7c(%ebp)
 804b7a6:	c7 45 9c ff ff ff ff 	movl   $0xffffffff,-0x64(%ebp)
 804b7ad:	8b 45 9c             	mov    -0x64(%ebp),%eax
 804b7b0:	ba 00 00 00 00       	mov    $0x0,%edx
 804b7b5:	89 c1                	mov    %eax,%ecx
 804b7b7:	23 4d 88             	and    -0x78(%ebp),%ecx
 804b7ba:	89 4d a0             	mov    %ecx,-0x60(%ebp)
 804b7bd:	89 d0                	mov    %edx,%eax
 804b7bf:	23 45 8c             	and    -0x74(%ebp),%eax
 804b7c2:	89 45 a4             	mov    %eax,-0x5c(%ebp)
 804b7c5:	8b 45 88             	mov    -0x78(%ebp),%eax
 804b7c8:	8b 55 8c             	mov    -0x74(%ebp),%edx
 804b7cb:	89 d0                	mov    %edx,%eax
 804b7cd:	31 d2                	xor    %edx,%edx
 804b7cf:	89 45 a8             	mov    %eax,-0x58(%ebp)
 804b7d2:	89 55 ac             	mov    %edx,-0x54(%ebp)
 804b7d5:	8b 45 9c             	mov    -0x64(%ebp),%eax
 804b7d8:	ba 00 00 00 00       	mov    $0x0,%edx
 804b7dd:	89 c1                	mov    %eax,%ecx
 804b7df:	23 4d 80             	and    -0x80(%ebp),%ecx
 804b7e2:	89 4d b0             	mov    %ecx,-0x50(%ebp)
 804b7e5:	89 d0                	mov    %edx,%eax
 804b7e7:	23 45 84             	and    -0x7c(%ebp),%eax
 804b7ea:	89 45 b4             	mov    %eax,-0x4c(%ebp)
 804b7ed:	8b 45 80             	mov    -0x80(%ebp),%eax
 804b7f0:	8b 55 84             	mov    -0x7c(%ebp),%edx
 804b7f3:	89 d0                	mov    %edx,%eax
 804b7f5:	31 d2                	xor    %edx,%edx
 804b7f7:	89 45 b8             	mov    %eax,-0x48(%ebp)
 804b7fa:	89 55 bc             	mov    %edx,-0x44(%ebp)
 804b7fd:	8b 45 a4             	mov    -0x5c(%ebp),%eax
 804b800:	0f af 45 b0          	imul   -0x50(%ebp),%eax
 804b804:	89 c2                	mov    %eax,%edx
 804b806:	8b 45 b4             	mov    -0x4c(%ebp),%eax
 804b809:	0f af 45 a0          	imul   -0x60(%ebp),%eax
 804b80d:	8d 0c 02             	lea    (%edx,%eax,1),%ecx
 804b810:	8b 45 b0             	mov    -0x50(%ebp),%eax
 804b813:	f7 65 a0             	mull   -0x60(%ebp)
 804b816:	01 d1                	add    %edx,%ecx
 804b818:	89 ca                	mov    %ecx,%edx
 804b81a:	89 45 c0             	mov    %eax,-0x40(%ebp)
 804b81d:	89 55 c4             	mov    %edx,-0x3c(%ebp)
 804b820:	89 45 c0             	mov    %eax,-0x40(%ebp)
 804b823:	89 55 c4             	mov    %edx,-0x3c(%ebp)
 804b826:	8b 45 ac             	mov    -0x54(%ebp),%eax
 804b829:	0f af 45 b0          	imul   -0x50(%ebp),%eax
 804b82d:	89 c2                	mov    %eax,%edx
 804b82f:	8b 45 b4             	mov    -0x4c(%ebp),%eax
 804b832:	0f af 45 a8          	imul   -0x58(%ebp),%eax
 804b836:	8d 0c 02             	lea    (%edx,%eax,1),%ecx
 804b839:	8b 45 b0             	mov    -0x50(%ebp),%eax
 804b83c:	f7 65 a8             	mull   -0x58(%ebp)
 804b83f:	01 d1                	add    %edx,%ecx
 804b841:	89 ca                	mov    %ecx,%edx
 804b843:	8b 4d c0             	mov    -0x40(%ebp),%ecx
 804b846:	8b 5d c4             	mov    -0x3c(%ebp),%ebx
 804b849:	89 d9                	mov    %ebx,%ecx
 804b84b:	31 db                	xor    %ebx,%ebx
 804b84d:	01 c8                	add    %ecx,%eax
 804b84f:	11 da                	adc    %ebx,%edx
 804b851:	89 45 c8             	mov    %eax,-0x38(%ebp)
 804b854:	89 55 cc             	mov    %edx,-0x34(%ebp)
 804b857:	8b 45 9c             	mov    -0x64(%ebp),%eax
 804b85a:	ba 00 00 00 00       	mov    $0x0,%edx
 804b85f:	89 c1                	mov    %eax,%ecx
 804b861:	23 4d c8             	and    -0x38(%ebp),%ecx
 804b864:	89 4d d0             	mov    %ecx,-0x30(%ebp)
 804b867:	89 d0                	mov    %edx,%eax
 804b869:	23 45 cc             	and    -0x34(%ebp),%eax
 804b86c:	89 45 d4             	mov    %eax,-0x2c(%ebp)
 804b86f:	8b 45 c8             	mov    -0x38(%ebp),%eax
 804b872:	8b 55 cc             	mov    -0x34(%ebp),%edx
 804b875:	89 d0                	mov    %edx,%eax
 804b877:	31 d2                	xor    %edx,%edx
 804b879:	89 45 d8             	mov    %eax,-0x28(%ebp)
 804b87c:	89 55 dc             	mov    %edx,-0x24(%ebp)
 804b87f:	8b 45 a4             	mov    -0x5c(%ebp),%eax
 804b882:	0f af 45 b8          	imul   -0x48(%ebp),%eax
 804b886:	89 c2                	mov    %eax,%edx
 804b888:	8b 45 bc             	mov    -0x44(%ebp),%eax
 804b88b:	0f af 45 a0          	imul   -0x60(%ebp),%eax
 804b88f:	8d 0c 02             	lea    (%edx,%eax,1),%ecx
 804b892:	8b 45 b8             	mov    -0x48(%ebp),%eax
 804b895:	f7 65 a0             	mull   -0x60(%ebp)
 804b898:	01 d1                	add    %edx,%ecx
 804b89a:	89 ca                	mov    %ecx,%edx
 804b89c:	01 45 d0             	add    %eax,-0x30(%ebp)
 804b89f:	11 55 d4             	adc    %edx,-0x2c(%ebp)
 804b8a2:	8b 45 ac             	mov    -0x54(%ebp),%eax
 804b8a5:	0f af 45 b8          	imul   -0x48(%ebp),%eax
 804b8a9:	89 c2                	mov    %eax,%edx
 804b8ab:	8b 45 bc             	mov    -0x44(%ebp),%eax
 804b8ae:	0f af 45 a8          	imul   -0x58(%ebp),%eax
 804b8b2:	8d 0c 02             	lea    (%edx,%eax,1),%ecx
 804b8b5:	8b 45 b8             	mov    -0x48(%ebp),%eax
 804b8b8:	f7 65 a8             	mull   -0x58(%ebp)
 804b8bb:	01 d1                	add    %edx,%ecx
 804b8bd:	89 ca                	mov    %ecx,%edx
 804b8bf:	8b 4d d8             	mov    -0x28(%ebp),%ecx
 804b8c2:	8b 5d dc             	mov    -0x24(%ebp),%ebx
 804b8c5:	01 c1                	add    %eax,%ecx
 804b8c7:	11 d3                	adc    %edx,%ebx
 804b8c9:	8b 45 d0             	mov    -0x30(%ebp),%eax
 804b8cc:	8b 55 d4             	mov    -0x2c(%ebp),%edx
 804b8cf:	89 d0                	mov    %edx,%eax
 804b8d1:	31 d2                	xor    %edx,%edx
 804b8d3:	01 c8                	add    %ecx,%eax
 804b8d5:	11 da                	adc    %ebx,%edx
 804b8d7:	89 45 e0             	mov    %eax,-0x20(%ebp)
 804b8da:	89 55 e4             	mov    %edx,-0x1c(%ebp)
 804b8dd:	8b 45 8c             	mov    -0x74(%ebp),%eax
 804b8e0:	0f af 45 80          	imul   -0x80(%ebp),%eax
 804b8e4:	89 c2                	mov    %eax,%edx
 804b8e6:	8b 45 84             	mov    -0x7c(%ebp),%eax
 804b8e9:	0f af 45 88          	imul   -0x78(%ebp),%eax
 804b8ed:	8d 0c 02             	lea    (%edx,%eax,1),%ecx
 804b8f0:	8b 45 80             	mov    -0x80(%ebp),%eax
 804b8f3:	f7 65 88             	mull   -0x78(%ebp)
 804b8f6:	01 d1                	add    %edx,%ecx
 804b8f8:	89 ca                	mov    %ecx,%edx
 804b8fa:	89 45 e8             	mov    %eax,-0x18(%ebp)
 804b8fd:	89 55 ec             	mov    %edx,-0x14(%ebp)
 804b900:	89 45 e8             	mov    %eax,-0x18(%ebp)
 804b903:	89 55 ec             	mov    %edx,-0x14(%ebp)
 804b906:	8b 45 e0             	mov    -0x20(%ebp),%eax
 804b909:	33 45 e8             	xor    -0x18(%ebp),%eax
 804b90c:	89 c6                	mov    %eax,%esi
 804b90e:	8b 45 e4             	mov    -0x1c(%ebp),%eax
 804b911:	33 45 ec             	xor    -0x14(%ebp),%eax
 804b914:	89 c7                	mov    %eax,%edi
 804b916:	89 f0                	mov    %esi,%eax
 804b918:	89 fa                	mov    %edi,%edx
 804b91a:	83 c4 74             	add    $0x74,%esp
 804b91d:	5b                   	pop    %ebx
 804b91e:	5e                   	pop    %esi
 804b91f:	5f                   	pop    %edi
 804b920:	5d                   	pop    %ebp
 804b921:	c3                   	ret    

0804b922 <hash__wyr3>:
 804b922:	55                   	push   %ebp
 804b923:	89 e5                	mov    %esp,%ebp
 804b925:	56                   	push   %esi
 804b926:	53                   	push   %ebx
 804b927:	83 ec 18             	sub    $0x18,%esp
 804b92a:	8b 45 0c             	mov    0xc(%ebp),%eax
 804b92d:	89 45 f0             	mov    %eax,-0x10(%ebp)
 804b930:	8b 45 10             	mov    0x10(%ebp),%eax
 804b933:	89 45 f4             	mov    %eax,-0xc(%ebp)
 804b936:	8b 45 08             	mov    0x8(%ebp),%eax
 804b939:	0f b6 08             	movzbl (%eax),%ecx
 804b93c:	0f b6 c1             	movzbl %cl,%eax
 804b93f:	ba 00 00 00 00       	mov    $0x0,%edx
 804b944:	0f a4 c2 10          	shld   $0x10,%eax,%edx
 804b948:	c1 e0 10             	shl    $0x10,%eax
 804b94b:	89 45 e8             	mov    %eax,-0x18(%ebp)
 804b94e:	89 55 ec             	mov    %edx,-0x14(%ebp)
 804b951:	8b 45 f0             	mov    -0x10(%ebp),%eax
 804b954:	8b 55 f4             	mov    -0xc(%ebp),%edx
 804b957:	0f ac d0 01          	shrd   $0x1,%edx,%eax
 804b95b:	d1 ea                	shr    %edx
 804b95d:	89 c2                	mov    %eax,%edx
 804b95f:	8b 45 08             	mov    0x8(%ebp),%eax
 804b962:	01 d0                	add    %edx,%eax
 804b964:	0f b6 08             	movzbl (%eax),%ecx
 804b967:	0f b6 c1             	movzbl %cl,%eax
 804b96a:	ba 00 00 00 00       	mov    $0x0,%edx
 804b96f:	0f a4 c2 08          	shld   $0x8,%eax,%edx
 804b973:	c1 e0 08             	shl    $0x8,%eax
 804b976:	8b 4d e8             	mov    -0x18(%ebp),%ecx
 804b979:	09 c1                	or     %eax,%ecx
 804b97b:	89 cb                	mov    %ecx,%ebx
 804b97d:	8b 4d ec             	mov    -0x14(%ebp),%ecx
 804b980:	09 d1                	or     %edx,%ecx
 804b982:	89 ce                	mov    %ecx,%esi
 804b984:	8b 45 f0             	mov    -0x10(%ebp),%eax
 804b987:	8d 50 ff             	lea    -0x1(%eax),%edx
 804b98a:	8b 45 08             	mov    0x8(%ebp),%eax
 804b98d:	01 d0                	add    %edx,%eax
 804b98f:	0f b6 08             	movzbl (%eax),%ecx
 804b992:	0f b6 c1             	movzbl %cl,%eax
 804b995:	ba 00 00 00 00       	mov    $0x0,%edx
 804b99a:	89 d9                	mov    %ebx,%ecx
 804b99c:	09 c1                	or     %eax,%ecx
 804b99e:	89 4d e0             	mov    %ecx,-0x20(%ebp)
 804b9a1:	09 d6                	or     %edx,%esi
 804b9a3:	89 75 e4             	mov    %esi,-0x1c(%ebp)
 804b9a6:	8b 45 e0             	mov    -0x20(%ebp),%eax
 804b9a9:	8b 55 e4             	mov    -0x1c(%ebp),%edx
 804b9ac:	83 c4 18             	add    $0x18,%esp
 804b9af:	5b                   	pop    %ebx
 804b9b0:	5e                   	pop    %esi
 804b9b1:	5d                   	pop    %ebp
 804b9b2:	c3                   	ret    

0804b9b3 <hash__wyr4>:
 804b9b3:	55                   	push   %ebp
 804b9b4:	89 e5                	mov    %esp,%ebp
 804b9b6:	8b 45 08             	mov    0x8(%ebp),%eax
 804b9b9:	0f b6 00             	movzbl (%eax),%eax
 804b9bc:	0f b6 c0             	movzbl %al,%eax
 804b9bf:	8b 55 08             	mov    0x8(%ebp),%edx
 804b9c2:	83 c2 01             	add    $0x1,%edx
 804b9c5:	0f b6 12             	movzbl (%edx),%edx
 804b9c8:	0f b6 d2             	movzbl %dl,%edx
 804b9cb:	c1 e2 08             	shl    $0x8,%edx
 804b9ce:	09 c2                	or     %eax,%edx
 804b9d0:	8b 45 08             	mov    0x8(%ebp),%eax
 804b9d3:	83 c0 02             	add    $0x2,%eax
 804b9d6:	0f b6 00             	movzbl (%eax),%eax
 804b9d9:	0f b6 c0             	movzbl %al,%eax
 804b9dc:	c1 e0 10             	shl    $0x10,%eax
 804b9df:	09 c2                	or     %eax,%edx
 804b9e1:	8b 45 08             	mov    0x8(%ebp),%eax
 804b9e4:	83 c0 03             	add    $0x3,%eax
 804b9e7:	0f b6 00             	movzbl (%eax),%eax
 804b9ea:	0f b6 c0             	movzbl %al,%eax
 804b9ed:	c1 e0 18             	shl    $0x18,%eax
 804b9f0:	09 d0                	or     %edx,%eax
 804b9f2:	ba 00 00 00 00       	mov    $0x0,%edx
 804b9f7:	5d                   	pop    %ebp
 804b9f8:	c3                   	ret    

0804b9f9 <hash__wyr8>:
 804b9f9:	55                   	push   %ebp
 804b9fa:	89 e5                	mov    %esp,%ebp
 804b9fc:	56                   	push   %esi
 804b9fd:	53                   	push   %ebx
 804b9fe:	83 ec 38             	sub    $0x38,%esp
 804ba01:	8b 45 08             	mov    0x8(%ebp),%eax
 804ba04:	0f b6 00             	movzbl (%eax),%eax
 804ba07:	0f b6 c0             	movzbl %al,%eax
 804ba0a:	89 c3                	mov    %eax,%ebx
 804ba0c:	be 00 00 00 00       	mov    $0x0,%esi
 804ba11:	8b 45 08             	mov    0x8(%ebp),%eax
 804ba14:	83 c0 01             	add    $0x1,%eax
 804ba17:	0f b6 08             	movzbl (%eax),%ecx
 804ba1a:	0f b6 c1             	movzbl %cl,%eax
 804ba1d:	ba 00 00 00 00       	mov    $0x0,%edx
 804ba22:	0f a4 c2 08          	shld   $0x8,%eax,%edx
 804ba26:	c1 e0 08             	shl    $0x8,%eax
 804ba29:	89 d9                	mov    %ebx,%ecx
 804ba2b:	09 c1                	or     %eax,%ecx
 804ba2d:	89 4d f0             	mov    %ecx,-0x10(%ebp)
 804ba30:	09 d6                	or     %edx,%esi
 804ba32:	89 75 f4             	mov    %esi,-0xc(%ebp)
 804ba35:	8b 45 08             	mov    0x8(%ebp),%eax
 804ba38:	83 c0 02             	add    $0x2,%eax
 804ba3b:	0f b6 08             	movzbl (%eax),%ecx
 804ba3e:	0f b6 c1             	movzbl %cl,%eax
 804ba41:	ba 00 00 00 00       	mov    $0x0,%edx
 804ba46:	0f a4 c2 10          	shld   $0x10,%eax,%edx
 804ba4a:	c1 e0 10             	shl    $0x10,%eax
 804ba4d:	8b 4d f0             	mov    -0x10(%ebp),%ecx
 804ba50:	8b 5d f4             	mov    -0xc(%ebp),%ebx
 804ba53:	89 ce                	mov    %ecx,%esi
 804ba55:	09 c6                	or     %eax,%esi
 804ba57:	89 75 e8             	mov    %esi,-0x18(%ebp)
 804ba5a:	89 d0                	mov    %edx,%eax
 804ba5c:	09 d8                	or     %ebx,%eax
 804ba5e:	89 45 ec             	mov    %eax,-0x14(%ebp)
 804ba61:	8b 45 08             	mov    0x8(%ebp),%eax
 804ba64:	83 c0 03             	add    $0x3,%eax
 804ba67:	0f b6 08             	movzbl (%eax),%ecx
 804ba6a:	0f b6 c1             	movzbl %cl,%eax
 804ba6d:	ba 00 00 00 00       	mov    $0x0,%edx
 804ba72:	0f a4 c2 18          	shld   $0x18,%eax,%edx
 804ba76:	c1 e0 18             	shl    $0x18,%eax
 804ba79:	8b 4d e8             	mov    -0x18(%ebp),%ecx
 804ba7c:	8b 5d ec             	mov    -0x14(%ebp),%ebx
 804ba7f:	89 ce                	mov    %ecx,%esi
 804ba81:	09 c6                	or     %eax,%esi
 804ba83:	89 75 e0             	mov    %esi,-0x20(%ebp)
 804ba86:	89 d0                	mov    %edx,%eax
 804ba88:	09 d8                	or     %ebx,%eax
 804ba8a:	89 45 e4             	mov    %eax,-0x1c(%ebp)
 804ba8d:	8b 45 08             	mov    0x8(%ebp),%eax
 804ba90:	83 c0 04             	add    $0x4,%eax
 804ba93:	0f b6 08             	movzbl (%eax),%ecx
 804ba96:	0f b6 c1             	movzbl %cl,%eax
 804ba99:	ba 00 00 00 00       	mov    $0x0,%edx
 804ba9e:	89 c2                	mov    %eax,%edx
 804baa0:	b8 00 00 00 00       	mov    $0x0,%eax
 804baa5:	8b 5d e0             	mov    -0x20(%ebp),%ebx
 804baa8:	8b 75 e4             	mov    -0x1c(%ebp),%esi
 804baab:	89 d9                	mov    %ebx,%ecx
 804baad:	09 c1                	or     %eax,%ecx
 804baaf:	89 4d d8             	mov    %ecx,-0x28(%ebp)
 804bab2:	89 d0                	mov    %edx,%eax
 804bab4:	09 f0                	or     %esi,%eax
 804bab6:	89 45 dc             	mov    %eax,-0x24(%ebp)
 804bab9:	8b 45 08             	mov    0x8(%ebp),%eax
 804babc:	83 c0 05             	add    $0x5,%eax
 804babf:	0f b6 08             	movzbl (%eax),%ecx
 804bac2:	0f b6 c1             	movzbl %cl,%eax
 804bac5:	ba 00 00 00 00       	mov    $0x0,%edx
 804baca:	89 c2                	mov    %eax,%edx
 804bacc:	b8 00 00 00 00       	mov    $0x0,%eax
 804bad1:	c1 e2 08             	shl    $0x8,%edx
 804bad4:	8b 5d d8             	mov    -0x28(%ebp),%ebx
 804bad7:	8b 75 dc             	mov    -0x24(%ebp),%esi
 804bada:	89 d9                	mov    %ebx,%ecx
 804badc:	09 c1                	or     %eax,%ecx
 804bade:	89 4d d0             	mov    %ecx,-0x30(%ebp)
 804bae1:	89 d0                	mov    %edx,%eax
 804bae3:	09 f0                	or     %esi,%eax
 804bae5:	89 45 d4             	mov    %eax,-0x2c(%ebp)
 804bae8:	8b 45 08             	mov    0x8(%ebp),%eax
 804baeb:	83 c0 06             	add    $0x6,%eax
 804baee:	0f b6 08             	movzbl (%eax),%ecx
 804baf1:	0f b6 c1             	movzbl %cl,%eax
 804baf4:	ba 00 00 00 00       	mov    $0x0,%edx
 804baf9:	89 c2                	mov    %eax,%edx
 804bafb:	b8 00 00 00 00       	mov    $0x0,%eax
 804bb00:	c1 e2 10             	shl    $0x10,%edx
 804bb03:	8b 5d d0             	mov    -0x30(%ebp),%ebx
 804bb06:	8b 75 d4             	mov    -0x2c(%ebp),%esi
 804bb09:	89 d9                	mov    %ebx,%ecx
 804bb0b:	09 c1                	or     %eax,%ecx
 804bb0d:	89 4d c8             	mov    %ecx,-0x38(%ebp)
 804bb10:	89 d0                	mov    %edx,%eax
 804bb12:	09 f0                	or     %esi,%eax
 804bb14:	89 45 cc             	mov    %eax,-0x34(%ebp)
 804bb17:	8b 45 08             	mov    0x8(%ebp),%eax
 804bb1a:	83 c0 07             	add    $0x7,%eax
 804bb1d:	0f b6 08             	movzbl (%eax),%ecx
 804bb20:	0f b6 c1             	movzbl %cl,%eax
 804bb23:	ba 00 00 00 00       	mov    $0x0,%edx
 804bb28:	89 c2                	mov    %eax,%edx
 804bb2a:	b8 00 00 00 00       	mov    $0x0,%eax
 804bb2f:	c1 e2 18             	shl    $0x18,%edx
 804bb32:	8b 5d c8             	mov    -0x38(%ebp),%ebx
 804bb35:	8b 75 cc             	mov    -0x34(%ebp),%esi
 804bb38:	89 d9                	mov    %ebx,%ecx
 804bb3a:	09 c1                	or     %eax,%ecx
 804bb3c:	89 4d c0             	mov    %ecx,-0x40(%ebp)
 804bb3f:	89 d0                	mov    %edx,%eax
 804bb41:	09 f0                	or     %esi,%eax
 804bb43:	89 45 c4             	mov    %eax,-0x3c(%ebp)
 804bb46:	8b 45 c0             	mov    -0x40(%ebp),%eax
 804bb49:	8b 55 c4             	mov    -0x3c(%ebp),%edx
 804bb4c:	83 c4 38             	add    $0x38,%esp
 804bb4f:	5b                   	pop    %ebx
 804bb50:	5e                   	pop    %esi
 804bb51:	5d                   	pop    %ebp
 804bb52:	c3                   	ret    

0804bb53 <math__bits__leading_zeros_8>:
 804bb53:	55                   	push   %ebp
 804bb54:	89 e5                	mov    %esp,%ebp
 804bb56:	83 ec 18             	sub    $0x18,%esp
 804bb59:	8b 45 08             	mov    0x8(%ebp),%eax
 804bb5c:	88 45 f4             	mov    %al,-0xc(%ebp)
 804bb5f:	0f b6 45 f4          	movzbl -0xc(%ebp),%eax
 804bb63:	83 ec 0c             	sub    $0xc,%esp
 804bb66:	50                   	push   %eax
 804bb67:	e8 e1 0e 00 00       	call   804ca4d <math__bits__len_8>
 804bb6c:	83 c4 10             	add    $0x10,%esp
 804bb6f:	ba 08 00 00 00       	mov    $0x8,%edx
 804bb74:	29 c2                	sub    %eax,%edx
 804bb76:	89 d0                	mov    %edx,%eax
 804bb78:	c9                   	leave  
 804bb79:	c3                   	ret    

0804bb7a <math__bits__leading_zeros_16>:
 804bb7a:	55                   	push   %ebp
 804bb7b:	89 e5                	mov    %esp,%ebp
 804bb7d:	83 ec 18             	sub    $0x18,%esp
 804bb80:	8b 45 08             	mov    0x8(%ebp),%eax
 804bb83:	66 89 45 f4          	mov    %ax,-0xc(%ebp)
 804bb87:	0f b7 45 f4          	movzwl -0xc(%ebp),%eax
 804bb8b:	83 ec 0c             	sub    $0xc,%esp
 804bb8e:	50                   	push   %eax
 804bb8f:	e8 f5 0e 00 00       	call   804ca89 <math__bits__len_16>
 804bb94:	83 c4 10             	add    $0x10,%esp
 804bb97:	ba 10 00 00 00       	mov    $0x10,%edx
 804bb9c:	29 c2                	sub    %eax,%edx
 804bb9e:	89 d0                	mov    %edx,%eax
 804bba0:	c9                   	leave  
 804bba1:	c3                   	ret    

0804bba2 <math__bits__leading_zeros_32>:
 804bba2:	55                   	push   %ebp
 804bba3:	89 e5                	mov    %esp,%ebp
 804bba5:	83 ec 08             	sub    $0x8,%esp
 804bba8:	83 ec 0c             	sub    $0xc,%esp
 804bbab:	ff 75 08             	pushl  0x8(%ebp)
 804bbae:	e8 3b 0f 00 00       	call   804caee <math__bits__len_32>
 804bbb3:	83 c4 10             	add    $0x10,%esp
 804bbb6:	ba 20 00 00 00       	mov    $0x20,%edx
 804bbbb:	29 c2                	sub    %eax,%edx
 804bbbd:	89 d0                	mov    %edx,%eax
 804bbbf:	c9                   	leave  
 804bbc0:	c3                   	ret    

0804bbc1 <math__bits__leading_zeros_64>:
 804bbc1:	55                   	push   %ebp
 804bbc2:	89 e5                	mov    %esp,%ebp
 804bbc4:	83 ec 18             	sub    $0x18,%esp
 804bbc7:	8b 45 08             	mov    0x8(%ebp),%eax
 804bbca:	89 45 f0             	mov    %eax,-0x10(%ebp)
 804bbcd:	8b 45 0c             	mov    0xc(%ebp),%eax
 804bbd0:	89 45 f4             	mov    %eax,-0xc(%ebp)
 804bbd3:	83 ec 08             	sub    $0x8,%esp
 804bbd6:	ff 75 f4             	pushl  -0xc(%ebp)
 804bbd9:	ff 75 f0             	pushl  -0x10(%ebp)
 804bbdc:	e8 79 0f 00 00       	call   804cb5a <math__bits__len_64>
 804bbe1:	83 c4 10             	add    $0x10,%esp
 804bbe4:	ba 40 00 00 00       	mov    $0x40,%edx
 804bbe9:	29 c2                	sub    %eax,%edx
 804bbeb:	89 d0                	mov    %edx,%eax
 804bbed:	c9                   	leave  
 804bbee:	c3                   	ret    

0804bbef <math__bits__trailing_zeros_8>:
 804bbef:	55                   	push   %ebp
 804bbf0:	89 e5                	mov    %esp,%ebp
 804bbf2:	83 ec 18             	sub    $0x18,%esp
 804bbf5:	8b 45 08             	mov    0x8(%ebp),%eax
 804bbf8:	88 45 f4             	mov    %al,-0xc(%ebp)
 804bbfb:	0f b6 45 f4          	movzbl -0xc(%ebp),%eax
 804bbff:	83 ec 0c             	sub    $0xc,%esp
 804bc02:	50                   	push   %eax
 804bc03:	ff 35 e4 32 07 08    	pushl  0x80732e4
 804bc09:	ff 35 e0 32 07 08    	pushl  0x80732e0
 804bc0f:	ff 35 dc 32 07 08    	pushl  0x80732dc
 804bc15:	ff 35 d8 32 07 08    	pushl  0x80732d8
 804bc1b:	e8 9a a6 00 00       	call   80562ba <array_get>
 804bc20:	83 c4 20             	add    $0x20,%esp
 804bc23:	0f b6 00             	movzbl (%eax),%eax
 804bc26:	0f b6 c0             	movzbl %al,%eax
 804bc29:	c9                   	leave  
 804bc2a:	c3                   	ret    

0804bc2b <math__bits__trailing_zeros_16>:
 804bc2b:	55                   	push   %ebp
 804bc2c:	89 e5                	mov    %esp,%ebp
 804bc2e:	83 ec 18             	sub    $0x18,%esp
 804bc31:	8b 45 08             	mov    0x8(%ebp),%eax
 804bc34:	66 89 45 f4          	mov    %ax,-0xc(%ebp)
 804bc38:	66 83 7d f4 00       	cmpw   $0x0,-0xc(%ebp)
 804bc3d:	75 07                	jne    804bc46 <math__bits__trailing_zeros_16+0x1b>
 804bc3f:	b8 10 00 00 00       	mov    $0x10,%eax
 804bc44:	eb 43                	jmp    804bc89 <math__bits__trailing_zeros_16+0x5e>
 804bc46:	0f b7 45 f4          	movzwl -0xc(%ebp),%eax
 804bc4a:	0f b7 55 f4          	movzwl -0xc(%ebp),%edx
 804bc4e:	f7 da                	neg    %edx
 804bc50:	21 d0                	and    %edx,%eax
 804bc52:	89 c2                	mov    %eax,%edx
 804bc54:	a1 64 31 07 08       	mov    0x8073164,%eax
 804bc59:	0f af c2             	imul   %edx,%eax
 804bc5c:	c1 e8 1b             	shr    $0x1b,%eax
 804bc5f:	83 ec 0c             	sub    $0xc,%esp
 804bc62:	50                   	push   %eax
 804bc63:	ff 35 74 32 07 08    	pushl  0x8073274
 804bc69:	ff 35 70 32 07 08    	pushl  0x8073270
 804bc6f:	ff 35 6c 32 07 08    	pushl  0x807326c
 804bc75:	ff 35 68 32 07 08    	pushl  0x8073268
 804bc7b:	e8 3a a6 00 00       	call   80562ba <array_get>
 804bc80:	83 c4 20             	add    $0x20,%esp
 804bc83:	0f b6 00             	movzbl (%eax),%eax
 804bc86:	0f b6 c0             	movzbl %al,%eax
 804bc89:	c9                   	leave  
 804bc8a:	c3                   	ret    

0804bc8b <math__bits__trailing_zeros_32>:
 804bc8b:	55                   	push   %ebp
 804bc8c:	89 e5                	mov    %esp,%ebp
 804bc8e:	83 ec 08             	sub    $0x8,%esp
 804bc91:	83 7d 08 00          	cmpl   $0x0,0x8(%ebp)
 804bc95:	75 07                	jne    804bc9e <math__bits__trailing_zeros_32+0x13>
 804bc97:	b8 20 00 00 00       	mov    $0x20,%eax
 804bc9c:	eb 3f                	jmp    804bcdd <math__bits__trailing_zeros_32+0x52>
 804bc9e:	8b 45 08             	mov    0x8(%ebp),%eax
 804bca1:	f7 d8                	neg    %eax
 804bca3:	23 45 08             	and    0x8(%ebp),%eax
 804bca6:	89 c2                	mov    %eax,%edx
 804bca8:	a1 64 31 07 08       	mov    0x8073164,%eax
 804bcad:	0f af c2             	imul   %edx,%eax
 804bcb0:	c1 e8 1b             	shr    $0x1b,%eax
 804bcb3:	83 ec 0c             	sub    $0xc,%esp
 804bcb6:	50                   	push   %eax
 804bcb7:	ff 35 74 32 07 08    	pushl  0x8073274
 804bcbd:	ff 35 70 32 07 08    	pushl  0x8073270
 804bcc3:	ff 35 6c 32 07 08    	pushl  0x807326c
 804bcc9:	ff 35 68 32 07 08    	pushl  0x8073268
 804bccf:	e8 e6 a5 00 00       	call   80562ba <array_get>
 804bcd4:	83 c4 20             	add    $0x20,%esp
 804bcd7:	0f b6 00             	movzbl (%eax),%eax
 804bcda:	0f b6 c0             	movzbl %al,%eax
 804bcdd:	c9                   	leave  
 804bcde:	c3                   	ret    

0804bcdf <math__bits__trailing_zeros_64>:
 804bcdf:	55                   	push   %ebp
 804bce0:	89 e5                	mov    %esp,%ebp
 804bce2:	57                   	push   %edi
 804bce3:	56                   	push   %esi
 804bce4:	53                   	push   %ebx
 804bce5:	83 ec 1c             	sub    $0x1c,%esp
 804bce8:	8b 45 08             	mov    0x8(%ebp),%eax
 804bceb:	89 45 e0             	mov    %eax,-0x20(%ebp)
 804bcee:	8b 45 0c             	mov    0xc(%ebp),%eax
 804bcf1:	89 45 e4             	mov    %eax,-0x1c(%ebp)
 804bcf4:	8b 45 e4             	mov    -0x1c(%ebp),%eax
 804bcf7:	0b 45 e0             	or     -0x20(%ebp),%eax
 804bcfa:	85 c0                	test   %eax,%eax
 804bcfc:	75 07                	jne    804bd05 <math__bits__trailing_zeros_64+0x26>
 804bcfe:	b8 40 00 00 00       	mov    $0x40,%eax
 804bd03:	eb 6a                	jmp    804bd6f <math__bits__trailing_zeros_64+0x90>
 804bd05:	8b 45 e0             	mov    -0x20(%ebp),%eax
 804bd08:	8b 55 e4             	mov    -0x1c(%ebp),%edx
 804bd0b:	f7 d8                	neg    %eax
 804bd0d:	83 d2 00             	adc    $0x0,%edx
 804bd10:	f7 da                	neg    %edx
 804bd12:	89 c7                	mov    %eax,%edi
 804bd14:	23 7d e0             	and    -0x20(%ebp),%edi
 804bd17:	89 f9                	mov    %edi,%ecx
 804bd19:	89 d0                	mov    %edx,%eax
 804bd1b:	23 45 e4             	and    -0x1c(%ebp),%eax
 804bd1e:	89 c3                	mov    %eax,%ebx
 804bd20:	a1 88 31 07 08       	mov    0x8073188,%eax
 804bd25:	8b 15 8c 31 07 08    	mov    0x807318c,%edx
 804bd2b:	89 df                	mov    %ebx,%edi
 804bd2d:	0f af f8             	imul   %eax,%edi
 804bd30:	89 d6                	mov    %edx,%esi
 804bd32:	0f af f1             	imul   %ecx,%esi
 804bd35:	01 fe                	add    %edi,%esi
 804bd37:	f7 e1                	mul    %ecx
 804bd39:	8d 0c 16             	lea    (%esi,%edx,1),%ecx
 804bd3c:	89 ca                	mov    %ecx,%edx
 804bd3e:	89 d0                	mov    %edx,%eax
 804bd40:	31 d2                	xor    %edx,%edx
 804bd42:	c1 e8 1a             	shr    $0x1a,%eax
 804bd45:	83 ec 0c             	sub    $0xc,%esp
 804bd48:	50                   	push   %eax
 804bd49:	ff 35 e8 31 07 08    	pushl  0x80731e8
 804bd4f:	ff 35 e4 31 07 08    	pushl  0x80731e4
 804bd55:	ff 35 e0 31 07 08    	pushl  0x80731e0
 804bd5b:	ff 35 dc 31 07 08    	pushl  0x80731dc
 804bd61:	e8 54 a5 00 00       	call   80562ba <array_get>
 804bd66:	83 c4 20             	add    $0x20,%esp
 804bd69:	0f b6 00             	movzbl (%eax),%eax
 804bd6c:	0f b6 c0             	movzbl %al,%eax
 804bd6f:	8d 65 f4             	lea    -0xc(%ebp),%esp
 804bd72:	5b                   	pop    %ebx
 804bd73:	5e                   	pop    %esi
 804bd74:	5f                   	pop    %edi
 804bd75:	5d                   	pop    %ebp
 804bd76:	c3                   	ret    

0804bd77 <math__bits__ones_count_8>:
 804bd77:	55                   	push   %ebp
 804bd78:	89 e5                	mov    %esp,%ebp
 804bd7a:	83 ec 18             	sub    $0x18,%esp
 804bd7d:	8b 45 08             	mov    0x8(%ebp),%eax
 804bd80:	88 45 f4             	mov    %al,-0xc(%ebp)
 804bd83:	0f b6 45 f4          	movzbl -0xc(%ebp),%eax
 804bd87:	83 ec 0c             	sub    $0xc,%esp
 804bd8a:	50                   	push   %eax
 804bd8b:	ff 35 58 32 07 08    	pushl  0x8073258
 804bd91:	ff 35 54 32 07 08    	pushl  0x8073254
 804bd97:	ff 35 50 32 07 08    	pushl  0x8073250
 804bd9d:	ff 35 4c 32 07 08    	pushl  0x807324c
 804bda3:	e8 12 a5 00 00       	call   80562ba <array_get>
 804bda8:	83 c4 20             	add    $0x20,%esp
 804bdab:	0f b6 00             	movzbl (%eax),%eax
 804bdae:	0f b6 c0             	movzbl %al,%eax
 804bdb1:	c9                   	leave  
 804bdb2:	c3                   	ret    

0804bdb3 <math__bits__ones_count_16>:
 804bdb3:	55                   	push   %ebp
 804bdb4:	89 e5                	mov    %esp,%ebp
 804bdb6:	53                   	push   %ebx
 804bdb7:	83 ec 14             	sub    $0x14,%esp
 804bdba:	8b 45 08             	mov    0x8(%ebp),%eax
 804bdbd:	66 89 45 f4          	mov    %ax,-0xc(%ebp)
 804bdc1:	0f b7 45 f4          	movzwl -0xc(%ebp),%eax
 804bdc5:	66 c1 e8 08          	shr    $0x8,%ax
 804bdc9:	0f b7 c0             	movzwl %ax,%eax
 804bdcc:	83 ec 0c             	sub    $0xc,%esp
 804bdcf:	50                   	push   %eax
 804bdd0:	ff 35 58 32 07 08    	pushl  0x8073258
 804bdd6:	ff 35 54 32 07 08    	pushl  0x8073254
 804bddc:	ff 35 50 32 07 08    	pushl  0x8073250
 804bde2:	ff 35 4c 32 07 08    	pushl  0x807324c
 804bde8:	e8 cd a4 00 00       	call   80562ba <array_get>
 804bded:	83 c4 20             	add    $0x20,%esp
 804bdf0:	0f b6 00             	movzbl (%eax),%eax
 804bdf3:	0f b6 d8             	movzbl %al,%ebx
 804bdf6:	0f b7 45 f4          	movzwl -0xc(%ebp),%eax
 804bdfa:	0f b6 c0             	movzbl %al,%eax
 804bdfd:	83 ec 0c             	sub    $0xc,%esp
 804be00:	50                   	push   %eax
 804be01:	ff 35 58 32 07 08    	pushl  0x8073258
 804be07:	ff 35 54 32 07 08    	pushl  0x8073254
 804be0d:	ff 35 50 32 07 08    	pushl  0x8073250
 804be13:	ff 35 4c 32 07 08    	pushl  0x807324c
 804be19:	e8 9c a4 00 00       	call   80562ba <array_get>
 804be1e:	83 c4 20             	add    $0x20,%esp
 804be21:	0f b6 00             	movzbl (%eax),%eax
 804be24:	0f b6 c0             	movzbl %al,%eax
 804be27:	01 d8                	add    %ebx,%eax
 804be29:	8b 5d fc             	mov    -0x4(%ebp),%ebx
 804be2c:	c9                   	leave  
 804be2d:	c3                   	ret    

0804be2e <math__bits__ones_count_32>:
 804be2e:	55                   	push   %ebp
 804be2f:	89 e5                	mov    %esp,%ebp
 804be31:	53                   	push   %ebx
 804be32:	83 ec 04             	sub    $0x4,%esp
 804be35:	8b 45 08             	mov    0x8(%ebp),%eax
 804be38:	c1 e8 18             	shr    $0x18,%eax
 804be3b:	83 ec 0c             	sub    $0xc,%esp
 804be3e:	50                   	push   %eax
 804be3f:	ff 35 58 32 07 08    	pushl  0x8073258
 804be45:	ff 35 54 32 07 08    	pushl  0x8073254
 804be4b:	ff 35 50 32 07 08    	pushl  0x8073250
 804be51:	ff 35 4c 32 07 08    	pushl  0x807324c
 804be57:	e8 5e a4 00 00       	call   80562ba <array_get>
 804be5c:	83 c4 20             	add    $0x20,%esp
 804be5f:	0f b6 00             	movzbl (%eax),%eax
 804be62:	0f b6 d8             	movzbl %al,%ebx
 804be65:	8b 45 08             	mov    0x8(%ebp),%eax
 804be68:	c1 e8 10             	shr    $0x10,%eax
 804be6b:	0f b6 c0             	movzbl %al,%eax
 804be6e:	83 ec 0c             	sub    $0xc,%esp
 804be71:	50                   	push   %eax
 804be72:	ff 35 58 32 07 08    	pushl  0x8073258
 804be78:	ff 35 54 32 07 08    	pushl  0x8073254
 804be7e:	ff 35 50 32 07 08    	pushl  0x8073250
 804be84:	ff 35 4c 32 07 08    	pushl  0x807324c
 804be8a:	e8 2b a4 00 00       	call   80562ba <array_get>
 804be8f:	83 c4 20             	add    $0x20,%esp
 804be92:	0f b6 00             	movzbl (%eax),%eax
 804be95:	0f b6 c0             	movzbl %al,%eax
 804be98:	01 c3                	add    %eax,%ebx
 804be9a:	8b 45 08             	mov    0x8(%ebp),%eax
 804be9d:	c1 e8 08             	shr    $0x8,%eax
 804bea0:	0f b6 c0             	movzbl %al,%eax
 804bea3:	83 ec 0c             	sub    $0xc,%esp
 804bea6:	50                   	push   %eax
 804bea7:	ff 35 58 32 07 08    	pushl  0x8073258
 804bead:	ff 35 54 32 07 08    	pushl  0x8073254
 804beb3:	ff 35 50 32 07 08    	pushl  0x8073250
 804beb9:	ff 35 4c 32 07 08    	pushl  0x807324c
 804bebf:	e8 f6 a3 00 00       	call   80562ba <array_get>
 804bec4:	83 c4 20             	add    $0x20,%esp
 804bec7:	0f b6 00             	movzbl (%eax),%eax
 804beca:	0f b6 c0             	movzbl %al,%eax
 804becd:	01 c3                	add    %eax,%ebx
 804becf:	8b 45 08             	mov    0x8(%ebp),%eax
 804bed2:	0f b6 c0             	movzbl %al,%eax
 804bed5:	83 ec 0c             	sub    $0xc,%esp
 804bed8:	50                   	push   %eax
 804bed9:	ff 35 58 32 07 08    	pushl  0x8073258
 804bedf:	ff 35 54 32 07 08    	pushl  0x8073254
 804bee5:	ff 35 50 32 07 08    	pushl  0x8073250
 804beeb:	ff 35 4c 32 07 08    	pushl  0x807324c
 804bef1:	e8 c4 a3 00 00       	call   80562ba <array_get>
 804bef6:	83 c4 20             	add    $0x20,%esp
 804bef9:	0f b6 00             	movzbl (%eax),%eax
 804befc:	0f b6 c0             	movzbl %al,%eax
 804beff:	01 d8                	add    %ebx,%eax
 804bf01:	8b 5d fc             	mov    -0x4(%ebp),%ebx
 804bf04:	c9                   	leave  
 804bf05:	c3                   	ret    

0804bf06 <math__bits__ones_count_64>:
 804bf06:	55                   	push   %ebp
 804bf07:	89 e5                	mov    %esp,%ebp
 804bf09:	57                   	push   %edi
 804bf0a:	56                   	push   %esi
 804bf0b:	53                   	push   %ebx
 804bf0c:	83 ec 6c             	sub    $0x6c,%esp
 804bf0f:	8b 45 08             	mov    0x8(%ebp),%eax
 804bf12:	89 45 d8             	mov    %eax,-0x28(%ebp)
 804bf15:	8b 45 0c             	mov    0xc(%ebp),%eax
 804bf18:	89 45 dc             	mov    %eax,-0x24(%ebp)
 804bf1b:	8b 45 d8             	mov    -0x28(%ebp),%eax
 804bf1e:	8b 55 dc             	mov    -0x24(%ebp),%edx
 804bf21:	0f ac d0 01          	shrd   $0x1,%edx,%eax
 804bf25:	d1 ea                	shr    %edx
 804bf27:	89 45 88             	mov    %eax,-0x78(%ebp)
 804bf2a:	89 55 8c             	mov    %edx,-0x74(%ebp)
 804bf2d:	8b 0d f8 30 07 08    	mov    0x80730f8,%ecx
 804bf33:	8b 1d fc 30 07 08    	mov    0x80730fc,%ebx
 804bf39:	a1 58 31 07 08       	mov    0x8073158,%eax
 804bf3e:	8b 15 5c 31 07 08    	mov    0x807315c,%edx
 804bf44:	89 cf                	mov    %ecx,%edi
 804bf46:	21 c7                	and    %eax,%edi
 804bf48:	89 7d d0             	mov    %edi,-0x30(%ebp)
 804bf4b:	21 d3                	and    %edx,%ebx
 804bf4d:	89 5d d4             	mov    %ebx,-0x2c(%ebp)
 804bf50:	8b 45 d0             	mov    -0x30(%ebp),%eax
 804bf53:	8b 55 d4             	mov    -0x2c(%ebp),%edx
 804bf56:	89 c3                	mov    %eax,%ebx
 804bf58:	8b 75 88             	mov    -0x78(%ebp),%esi
 804bf5b:	8b 7d 8c             	mov    -0x74(%ebp),%edi
 804bf5e:	21 f3                	and    %esi,%ebx
 804bf60:	89 5d c8             	mov    %ebx,-0x38(%ebp)
 804bf63:	21 d7                	and    %edx,%edi
 804bf65:	89 7d cc             	mov    %edi,-0x34(%ebp)
 804bf68:	8b 0d f8 30 07 08    	mov    0x80730f8,%ecx
 804bf6e:	8b 1d fc 30 07 08    	mov    0x80730fc,%ebx
 804bf74:	a1 58 31 07 08       	mov    0x8073158,%eax
 804bf79:	8b 15 5c 31 07 08    	mov    0x807315c,%edx
 804bf7f:	89 cf                	mov    %ecx,%edi
 804bf81:	21 c7                	and    %eax,%edi
 804bf83:	89 7d c0             	mov    %edi,-0x40(%ebp)
 804bf86:	21 d3                	and    %edx,%ebx
 804bf88:	89 5d c4             	mov    %ebx,-0x3c(%ebp)
 804bf8b:	8b 45 c0             	mov    -0x40(%ebp),%eax
 804bf8e:	8b 55 c4             	mov    -0x3c(%ebp),%edx
 804bf91:	89 c3                	mov    %eax,%ebx
 804bf93:	23 5d d8             	and    -0x28(%ebp),%ebx
 804bf96:	89 5d b8             	mov    %ebx,-0x48(%ebp)
 804bf99:	89 d0                	mov    %edx,%eax
 804bf9b:	23 45 dc             	and    -0x24(%ebp),%eax
 804bf9e:	89 45 bc             	mov    %eax,-0x44(%ebp)
 804bfa1:	8b 45 c8             	mov    -0x38(%ebp),%eax
 804bfa4:	8b 55 cc             	mov    -0x34(%ebp),%edx
 804bfa7:	03 45 b8             	add    -0x48(%ebp),%eax
 804bfaa:	13 55 bc             	adc    -0x44(%ebp),%edx
 804bfad:	89 45 e8             	mov    %eax,-0x18(%ebp)
 804bfb0:	89 55 ec             	mov    %edx,-0x14(%ebp)
 804bfb3:	8b 45 e8             	mov    -0x18(%ebp),%eax
 804bfb6:	8b 55 ec             	mov    -0x14(%ebp),%edx
 804bfb9:	0f ac d0 02          	shrd   $0x2,%edx,%eax
 804bfbd:	c1 ea 02             	shr    $0x2,%edx
 804bfc0:	89 45 d0             	mov    %eax,-0x30(%ebp)
 804bfc3:	89 55 d4             	mov    %edx,-0x2c(%ebp)
 804bfc6:	8b 0d b0 31 07 08    	mov    0x80731b0,%ecx
 804bfcc:	8b 1d b4 31 07 08    	mov    0x80731b4,%ebx
 804bfd2:	a1 58 31 07 08       	mov    0x8073158,%eax
 804bfd7:	8b 15 5c 31 07 08    	mov    0x807315c,%edx
 804bfdd:	89 ce                	mov    %ecx,%esi
 804bfdf:	21 c6                	and    %eax,%esi
 804bfe1:	89 75 b0             	mov    %esi,-0x50(%ebp)
 804bfe4:	89 df                	mov    %ebx,%edi
 804bfe6:	21 d7                	and    %edx,%edi
 804bfe8:	89 7d b4             	mov    %edi,-0x4c(%ebp)
 804bfeb:	8b 45 b0             	mov    -0x50(%ebp),%eax
 804bfee:	8b 55 b4             	mov    -0x4c(%ebp),%edx
 804bff1:	89 c6                	mov    %eax,%esi
 804bff3:	8b 4d d0             	mov    -0x30(%ebp),%ecx
 804bff6:	8b 5d d4             	mov    -0x2c(%ebp),%ebx
 804bff9:	21 ce                	and    %ecx,%esi
 804bffb:	89 75 a8             	mov    %esi,-0x58(%ebp)
 804bffe:	89 df                	mov    %ebx,%edi
 804c000:	21 d7                	and    %edx,%edi
 804c002:	89 7d ac             	mov    %edi,-0x54(%ebp)
 804c005:	8b 0d b0 31 07 08    	mov    0x80731b0,%ecx
 804c00b:	8b 1d b4 31 07 08    	mov    0x80731b4,%ebx
 804c011:	a1 58 31 07 08       	mov    0x8073158,%eax
 804c016:	8b 15 5c 31 07 08    	mov    0x807315c,%edx
 804c01c:	89 ce                	mov    %ecx,%esi
 804c01e:	21 c6                	and    %eax,%esi
 804c020:	89 75 a0             	mov    %esi,-0x60(%ebp)
 804c023:	21 d3                	and    %edx,%ebx
 804c025:	89 5d a4             	mov    %ebx,-0x5c(%ebp)
 804c028:	8b 45 a0             	mov    -0x60(%ebp),%eax
 804c02b:	8b 55 a4             	mov    -0x5c(%ebp),%edx
 804c02e:	89 c7                	mov    %eax,%edi
 804c030:	23 7d e8             	and    -0x18(%ebp),%edi
 804c033:	89 7d 98             	mov    %edi,-0x68(%ebp)
 804c036:	89 d0                	mov    %edx,%eax
 804c038:	23 45 ec             	and    -0x14(%ebp),%eax
 804c03b:	89 45 9c             	mov    %eax,-0x64(%ebp)
 804c03e:	8b 45 a8             	mov    -0x58(%ebp),%eax
 804c041:	8b 55 ac             	mov    -0x54(%ebp),%edx
 804c044:	03 45 98             	add    -0x68(%ebp),%eax
 804c047:	13 55 9c             	adc    -0x64(%ebp),%edx
 804c04a:	89 45 e8             	mov    %eax,-0x18(%ebp)
 804c04d:	89 55 ec             	mov    %edx,-0x14(%ebp)
 804c050:	8b 45 e8             	mov    -0x18(%ebp),%eax
 804c053:	8b 55 ec             	mov    -0x14(%ebp),%edx
 804c056:	0f ac d0 04          	shrd   $0x4,%edx,%eax
 804c05a:	c1 ea 04             	shr    $0x4,%edx
 804c05d:	89 c1                	mov    %eax,%ecx
 804c05f:	89 d3                	mov    %edx,%ebx
 804c061:	8b 45 e8             	mov    -0x18(%ebp),%eax
 804c064:	8b 55 ec             	mov    -0x14(%ebp),%edx
 804c067:	89 ce                	mov    %ecx,%esi
 804c069:	89 df                	mov    %ebx,%edi
 804c06b:	01 c6                	add    %eax,%esi
 804c06d:	11 d7                	adc    %edx,%edi
 804c06f:	89 75 d0             	mov    %esi,-0x30(%ebp)
 804c072:	89 7d d4             	mov    %edi,-0x2c(%ebp)
 804c075:	8b 0d 18 31 07 08    	mov    0x8073118,%ecx
 804c07b:	8b 1d 1c 31 07 08    	mov    0x807311c,%ebx
 804c081:	a1 58 31 07 08       	mov    0x8073158,%eax
 804c086:	8b 15 5c 31 07 08    	mov    0x807315c,%edx
 804c08c:	89 ce                	mov    %ecx,%esi
 804c08e:	21 c6                	and    %eax,%esi
 804c090:	89 75 90             	mov    %esi,-0x70(%ebp)
 804c093:	89 df                	mov    %ebx,%edi
 804c095:	21 d7                	and    %edx,%edi
 804c097:	89 7d 94             	mov    %edi,-0x6c(%ebp)
 804c09a:	8b 55 90             	mov    -0x70(%ebp),%edx
 804c09d:	8b 4d 94             	mov    -0x6c(%ebp),%ecx
 804c0a0:	89 d0                	mov    %edx,%eax
 804c0a2:	8b 5d d0             	mov    -0x30(%ebp),%ebx
 804c0a5:	8b 75 d4             	mov    -0x2c(%ebp),%esi
 804c0a8:	21 d8                	and    %ebx,%eax
 804c0aa:	89 45 e8             	mov    %eax,-0x18(%ebp)
 804c0ad:	89 c8                	mov    %ecx,%eax
 804c0af:	21 f0                	and    %esi,%eax
 804c0b1:	89 45 ec             	mov    %eax,-0x14(%ebp)
 804c0b4:	8b 45 e8             	mov    -0x18(%ebp),%eax
 804c0b7:	8b 55 ec             	mov    -0x14(%ebp),%edx
 804c0ba:	0f ac d0 08          	shrd   $0x8,%edx,%eax
 804c0be:	c1 ea 08             	shr    $0x8,%edx
 804c0c1:	01 45 e8             	add    %eax,-0x18(%ebp)
 804c0c4:	11 55 ec             	adc    %edx,-0x14(%ebp)
 804c0c7:	8b 45 e8             	mov    -0x18(%ebp),%eax
 804c0ca:	8b 55 ec             	mov    -0x14(%ebp),%edx
 804c0cd:	0f ac d0 10          	shrd   $0x10,%edx,%eax
 804c0d1:	c1 ea 10             	shr    $0x10,%edx
 804c0d4:	01 45 e8             	add    %eax,-0x18(%ebp)
 804c0d7:	11 55 ec             	adc    %edx,-0x14(%ebp)
 804c0da:	8b 45 e8             	mov    -0x18(%ebp),%eax
 804c0dd:	8b 55 ec             	mov    -0x14(%ebp),%edx
 804c0e0:	89 d0                	mov    %edx,%eax
 804c0e2:	31 d2                	xor    %edx,%edx
 804c0e4:	01 45 e8             	add    %eax,-0x18(%ebp)
 804c0e7:	11 55 ec             	adc    %edx,-0x14(%ebp)
 804c0ea:	8b 45 e8             	mov    -0x18(%ebp),%eax
 804c0ed:	83 e0 7f             	and    $0x7f,%eax
 804c0f0:	83 c4 6c             	add    $0x6c,%esp
 804c0f3:	5b                   	pop    %ebx
 804c0f4:	5e                   	pop    %esi
 804c0f5:	5f                   	pop    %edi
 804c0f6:	5d                   	pop    %ebp
 804c0f7:	c3                   	ret    

0804c0f8 <math__bits__rotate_left_8>:
 804c0f8:	55                   	push   %ebp
 804c0f9:	89 e5                	mov    %esp,%ebp
 804c0fb:	53                   	push   %ebx
 804c0fc:	83 ec 14             	sub    $0x14,%esp
 804c0ff:	8b 45 08             	mov    0x8(%ebp),%eax
 804c102:	88 45 e8             	mov    %al,-0x18(%ebp)
 804c105:	c6 45 fa 08          	movb   $0x8,-0x6(%ebp)
 804c109:	8b 45 0c             	mov    0xc(%ebp),%eax
 804c10c:	89 c2                	mov    %eax,%edx
 804c10e:	0f b6 45 fa          	movzbl -0x6(%ebp),%eax
 804c112:	83 e8 01             	sub    $0x1,%eax
 804c115:	21 d0                	and    %edx,%eax
 804c117:	88 45 fb             	mov    %al,-0x5(%ebp)
 804c11a:	0f b6 55 e8          	movzbl -0x18(%ebp),%edx
 804c11e:	0f b6 45 fb          	movzbl -0x5(%ebp),%eax
 804c122:	89 c1                	mov    %eax,%ecx
 804c124:	d3 e2                	shl    %cl,%edx
 804c126:	89 d0                	mov    %edx,%eax
 804c128:	89 c3                	mov    %eax,%ebx
 804c12a:	0f b6 55 e8          	movzbl -0x18(%ebp),%edx
 804c12e:	0f b6 4d fa          	movzbl -0x6(%ebp),%ecx
 804c132:	0f b6 45 fb          	movzbl -0x5(%ebp),%eax
 804c136:	29 c1                	sub    %eax,%ecx
 804c138:	89 c8                	mov    %ecx,%eax
 804c13a:	89 c1                	mov    %eax,%ecx
 804c13c:	d3 fa                	sar    %cl,%edx
 804c13e:	89 d0                	mov    %edx,%eax
 804c140:	09 d8                	or     %ebx,%eax
 804c142:	83 c4 14             	add    $0x14,%esp
 804c145:	5b                   	pop    %ebx
 804c146:	5d                   	pop    %ebp
 804c147:	c3                   	ret    

0804c148 <math__bits__rotate_left_16>:
 804c148:	55                   	push   %ebp
 804c149:	89 e5                	mov    %esp,%ebp
 804c14b:	53                   	push   %ebx
 804c14c:	83 ec 14             	sub    $0x14,%esp
 804c14f:	8b 45 08             	mov    0x8(%ebp),%eax
 804c152:	66 89 45 e8          	mov    %ax,-0x18(%ebp)
 804c156:	66 c7 45 f8 10 00    	movw   $0x10,-0x8(%ebp)
 804c15c:	8b 45 0c             	mov    0xc(%ebp),%eax
 804c15f:	89 c2                	mov    %eax,%edx
 804c161:	0f b7 45 f8          	movzwl -0x8(%ebp),%eax
 804c165:	83 e8 01             	sub    $0x1,%eax
 804c168:	21 d0                	and    %edx,%eax
 804c16a:	66 89 45 fa          	mov    %ax,-0x6(%ebp)
 804c16e:	0f b7 55 e8          	movzwl -0x18(%ebp),%edx
 804c172:	0f b7 45 fa          	movzwl -0x6(%ebp),%eax
 804c176:	89 c1                	mov    %eax,%ecx
 804c178:	d3 e2                	shl    %cl,%edx
 804c17a:	89 d0                	mov    %edx,%eax
 804c17c:	89 c3                	mov    %eax,%ebx
 804c17e:	0f b7 55 e8          	movzwl -0x18(%ebp),%edx
 804c182:	0f b7 4d f8          	movzwl -0x8(%ebp),%ecx
 804c186:	0f b7 45 fa          	movzwl -0x6(%ebp),%eax
 804c18a:	29 c1                	sub    %eax,%ecx
 804c18c:	89 c8                	mov    %ecx,%eax
 804c18e:	89 c1                	mov    %eax,%ecx
 804c190:	d3 fa                	sar    %cl,%edx
 804c192:	89 d0                	mov    %edx,%eax
 804c194:	09 d8                	or     %ebx,%eax
 804c196:	83 c4 14             	add    $0x14,%esp
 804c199:	5b                   	pop    %ebx
 804c19a:	5d                   	pop    %ebp
 804c19b:	c3                   	ret    

0804c19c <math__bits__rotate_left_32>:
 804c19c:	55                   	push   %ebp
 804c19d:	89 e5                	mov    %esp,%ebp
 804c19f:	53                   	push   %ebx
 804c1a0:	83 ec 10             	sub    $0x10,%esp
 804c1a3:	c7 45 f4 20 00 00 00 	movl   $0x20,-0xc(%ebp)
 804c1aa:	8b 45 f4             	mov    -0xc(%ebp),%eax
 804c1ad:	8d 50 ff             	lea    -0x1(%eax),%edx
 804c1b0:	8b 45 0c             	mov    0xc(%ebp),%eax
 804c1b3:	21 d0                	and    %edx,%eax
 804c1b5:	89 45 f8             	mov    %eax,-0x8(%ebp)
 804c1b8:	8b 45 f8             	mov    -0x8(%ebp),%eax
 804c1bb:	8b 55 08             	mov    0x8(%ebp),%edx
 804c1be:	89 d3                	mov    %edx,%ebx
 804c1c0:	89 c1                	mov    %eax,%ecx
 804c1c2:	d3 e3                	shl    %cl,%ebx
 804c1c4:	8b 45 f4             	mov    -0xc(%ebp),%eax
 804c1c7:	2b 45 f8             	sub    -0x8(%ebp),%eax
 804c1ca:	8b 55 08             	mov    0x8(%ebp),%edx
 804c1cd:	89 c1                	mov    %eax,%ecx
 804c1cf:	d3 ea                	shr    %cl,%edx
 804c1d1:	89 d0                	mov    %edx,%eax
 804c1d3:	09 d8                	or     %ebx,%eax
 804c1d5:	83 c4 10             	add    $0x10,%esp
 804c1d8:	5b                   	pop    %ebx
 804c1d9:	5d                   	pop    %ebp
 804c1da:	c3                   	ret    

0804c1db <math__bits__rotate_left_64>:
 804c1db:	55                   	push   %ebp
 804c1dc:	89 e5                	mov    %esp,%ebp
 804c1de:	56                   	push   %esi
 804c1df:	53                   	push   %ebx
 804c1e0:	83 ec 20             	sub    $0x20,%esp
 804c1e3:	8b 45 08             	mov    0x8(%ebp),%eax
 804c1e6:	89 45 e0             	mov    %eax,-0x20(%ebp)
 804c1e9:	8b 45 0c             	mov    0xc(%ebp),%eax
 804c1ec:	89 45 e4             	mov    %eax,-0x1c(%ebp)
 804c1ef:	c7 45 e8 40 00 00 00 	movl   $0x40,-0x18(%ebp)
 804c1f6:	c7 45 ec 00 00 00 00 	movl   $0x0,-0x14(%ebp)
 804c1fd:	8b 45 10             	mov    0x10(%ebp),%eax
 804c200:	99                   	cltd   
 804c201:	8b 4d e8             	mov    -0x18(%ebp),%ecx
 804c204:	8b 5d ec             	mov    -0x14(%ebp),%ebx
 804c207:	83 c1 ff             	add    $0xffffffff,%ecx
 804c20a:	83 d3 ff             	adc    $0xffffffff,%ebx
 804c20d:	89 c6                	mov    %eax,%esi
 804c20f:	21 ce                	and    %ecx,%esi
 804c211:	89 75 f0             	mov    %esi,-0x10(%ebp)
 804c214:	89 d0                	mov    %edx,%eax
 804c216:	21 d8                	and    %ebx,%eax
 804c218:	89 45 f4             	mov    %eax,-0xc(%ebp)
 804c21b:	8b 4d f0             	mov    -0x10(%ebp),%ecx
 804c21e:	8b 45 e0             	mov    -0x20(%ebp),%eax
 804c221:	8b 55 e4             	mov    -0x1c(%ebp),%edx
 804c224:	0f a5 c2             	shld   %cl,%eax,%edx
 804c227:	d3 e0                	shl    %cl,%eax
 804c229:	f6 c1 20             	test   $0x20,%cl
 804c22c:	74 04                	je     804c232 <math__bits__rotate_left_64+0x57>
 804c22e:	89 c2                	mov    %eax,%edx
 804c230:	31 c0                	xor    %eax,%eax
 804c232:	89 c3                	mov    %eax,%ebx
 804c234:	89 d6                	mov    %edx,%esi
 804c236:	8b 55 e8             	mov    -0x18(%ebp),%edx
 804c239:	8b 45 f0             	mov    -0x10(%ebp),%eax
 804c23c:	29 c2                	sub    %eax,%edx
 804c23e:	89 d1                	mov    %edx,%ecx
 804c240:	8b 45 e0             	mov    -0x20(%ebp),%eax
 804c243:	8b 55 e4             	mov    -0x1c(%ebp),%edx
 804c246:	0f ad d0             	shrd   %cl,%edx,%eax
 804c249:	d3 ea                	shr    %cl,%edx
 804c24b:	f6 c1 20             	test   $0x20,%cl
 804c24e:	74 04                	je     804c254 <math__bits__rotate_left_64+0x79>
 804c250:	89 d0                	mov    %edx,%eax
 804c252:	31 d2                	xor    %edx,%edx
 804c254:	89 d9                	mov    %ebx,%ecx
 804c256:	09 c1                	or     %eax,%ecx
 804c258:	89 4d d8             	mov    %ecx,-0x28(%ebp)
 804c25b:	89 f3                	mov    %esi,%ebx
 804c25d:	09 d3                	or     %edx,%ebx
