
broken:     file format elf32-i386


Disassembly of section .init:

000003e0 <_init>:
 3e0:	53                   	push   %ebx
 3e1:	83 ec 08             	sub    $0x8,%esp
 3e4:	e8 c7 00 00 00       	call   4b0 <__x86.get_pc_thunk.bx>
 3e9:	81 c3 e7 1b 00 00    	add    $0x1be7,%ebx
 3ef:	8b 83 24 00 00 00    	mov    0x24(%ebx),%eax
 3f5:	85 c0                	test   %eax,%eax
 3f7:	74 05                	je     3fe <_init+0x1e>
 3f9:	e8 6a 00 00 00       	call   468 <__libc_start_main@plt+0x18>
 3fe:	83 c4 08             	add    $0x8,%esp
 401:	5b                   	pop    %ebx
 402:	c3                   	ret    

Disassembly of section .plt:

00000410 <printf@plt-0x10>:
 410:	ff b3 04 00 00 00    	pushl  0x4(%ebx)
 416:	ff a3 08 00 00 00    	jmp    *0x8(%ebx)
 41c:	00 00                	add    %al,(%eax)
	...

00000420 <printf@plt>:
 420:	ff a3 0c 00 00 00    	jmp    *0xc(%ebx)
 426:	68 00 00 00 00       	push   $0x0
 42b:	e9 e0 ff ff ff       	jmp    410 <_init+0x30>

00000430 <__stack_chk_fail@plt>:
 430:	ff a3 10 00 00 00    	jmp    *0x10(%ebx)
 436:	68 08 00 00 00       	push   $0x8
 43b:	e9 d0 ff ff ff       	jmp    410 <_init+0x30>

00000440 <strlen@plt>:
 440:	ff a3 14 00 00 00    	jmp    *0x14(%ebx)
 446:	68 10 00 00 00       	push   $0x10
 44b:	e9 c0 ff ff ff       	jmp    410 <_init+0x30>

00000450 <__libc_start_main@plt>:
 450:	ff a3 18 00 00 00    	jmp    *0x18(%ebx)
 456:	68 18 00 00 00       	push   $0x18
 45b:	e9 b0 ff ff ff       	jmp    410 <_init+0x30>

Disassembly of section .plt.got:

00000460 <.plt.got>:
 460:	ff a3 20 00 00 00    	jmp    *0x20(%ebx)
 466:	66 90                	xchg   %ax,%ax
 468:	ff a3 24 00 00 00    	jmp    *0x24(%ebx)
 46e:	66 90                	xchg   %ax,%ax

Disassembly of section .text:

00000470 <_start>:
 470:	31 ed                	xor    %ebp,%ebp
 472:	5e                   	pop    %esi
 473:	89 e1                	mov    %esp,%ecx
 475:	83 e4 f0             	and    $0xfffffff0,%esp
 478:	50                   	push   %eax
 479:	54                   	push   %esp
 47a:	52                   	push   %edx
 47b:	e8 22 00 00 00       	call   4a2 <_start+0x32>
 480:	81 c3 50 1b 00 00    	add    $0x1b50,%ebx
 486:	8d 83 70 e9 ff ff    	lea    -0x1690(%ebx),%eax
 48c:	50                   	push   %eax
 48d:	8d 83 10 e9 ff ff    	lea    -0x16f0(%ebx),%eax
 493:	50                   	push   %eax
 494:	51                   	push   %ecx
 495:	56                   	push   %esi
 496:	ff b3 28 00 00 00    	pushl  0x28(%ebx)
 49c:	e8 af ff ff ff       	call   450 <__libc_start_main@plt>
 4a1:	f4                   	hlt    
 4a2:	8b 1c 24             	mov    (%esp),%ebx
 4a5:	c3                   	ret    
 4a6:	66 90                	xchg   %ax,%ax
 4a8:	66 90                	xchg   %ax,%ax
 4aa:	66 90                	xchg   %ax,%ax
 4ac:	66 90                	xchg   %ax,%ax
 4ae:	66 90                	xchg   %ax,%ax

000004b0 <__x86.get_pc_thunk.bx>:
 4b0:	8b 1c 24             	mov    (%esp),%ebx
 4b3:	c3                   	ret    
 4b4:	66 90                	xchg   %ax,%ax
 4b6:	66 90                	xchg   %ax,%ax
 4b8:	66 90                	xchg   %ax,%ax
 4ba:	66 90                	xchg   %ax,%ax
 4bc:	66 90                	xchg   %ax,%ax
 4be:	66 90                	xchg   %ax,%ax

000004c0 <deregister_tm_clones>:
 4c0:	e8 e4 00 00 00       	call   5a9 <__x86.get_pc_thunk.dx>
 4c5:	81 c2 0b 1b 00 00    	add    $0x1b0b,%edx
 4cb:	8d 8a 48 00 00 00    	lea    0x48(%edx),%ecx
 4d1:	8d 82 48 00 00 00    	lea    0x48(%edx),%eax
 4d7:	39 c8                	cmp    %ecx,%eax
 4d9:	74 1d                	je     4f8 <deregister_tm_clones+0x38>
 4db:	8b 82 1c 00 00 00    	mov    0x1c(%edx),%eax
 4e1:	85 c0                	test   %eax,%eax
 4e3:	74 13                	je     4f8 <deregister_tm_clones+0x38>
 4e5:	55                   	push   %ebp
 4e6:	89 e5                	mov    %esp,%ebp
 4e8:	83 ec 14             	sub    $0x14,%esp
 4eb:	51                   	push   %ecx
 4ec:	ff d0                	call   *%eax
 4ee:	83 c4 10             	add    $0x10,%esp
 4f1:	c9                   	leave  
 4f2:	c3                   	ret    
 4f3:	90                   	nop
 4f4:	8d 74 26 00          	lea    0x0(%esi,%eiz,1),%esi
 4f8:	f3 c3                	repz ret 
 4fa:	8d b6 00 00 00 00    	lea    0x0(%esi),%esi

00000500 <register_tm_clones>:
 500:	e8 a4 00 00 00       	call   5a9 <__x86.get_pc_thunk.dx>
 505:	81 c2 cb 1a 00 00    	add    $0x1acb,%edx
 50b:	55                   	push   %ebp
 50c:	8d 8a 48 00 00 00    	lea    0x48(%edx),%ecx
 512:	8d 82 48 00 00 00    	lea    0x48(%edx),%eax
 518:	29 c8                	sub    %ecx,%eax
 51a:	89 e5                	mov    %esp,%ebp
 51c:	53                   	push   %ebx
 51d:	c1 f8 02             	sar    $0x2,%eax
 520:	89 c3                	mov    %eax,%ebx
 522:	83 ec 04             	sub    $0x4,%esp
 525:	c1 eb 1f             	shr    $0x1f,%ebx
 528:	01 d8                	add    %ebx,%eax
 52a:	d1 f8                	sar    %eax
 52c:	74 14                	je     542 <register_tm_clones+0x42>
 52e:	8b 92 2c 00 00 00    	mov    0x2c(%edx),%edx
 534:	85 d2                	test   %edx,%edx
 536:	74 0a                	je     542 <register_tm_clones+0x42>
 538:	83 ec 08             	sub    $0x8,%esp
 53b:	50                   	push   %eax
 53c:	51                   	push   %ecx
 53d:	ff d2                	call   *%edx
 53f:	83 c4 10             	add    $0x10,%esp
 542:	8b 5d fc             	mov    -0x4(%ebp),%ebx
 545:	c9                   	leave  
 546:	c3                   	ret    
 547:	89 f6                	mov    %esi,%esi
 549:	8d bc 27 00 00 00 00 	lea    0x0(%edi,%eiz,1),%edi

00000550 <__do_global_dtors_aux>:
 550:	55                   	push   %ebp
 551:	89 e5                	mov    %esp,%ebp
 553:	53                   	push   %ebx
 554:	e8 57 ff ff ff       	call   4b0 <__x86.get_pc_thunk.bx>
 559:	81 c3 77 1a 00 00    	add    $0x1a77,%ebx
 55f:	83 ec 04             	sub    $0x4,%esp
 562:	80 bb 48 00 00 00 00 	cmpb   $0x0,0x48(%ebx)
 569:	75 27                	jne    592 <__do_global_dtors_aux+0x42>
 56b:	8b 83 20 00 00 00    	mov    0x20(%ebx),%eax
 571:	85 c0                	test   %eax,%eax
 573:	74 11                	je     586 <__do_global_dtors_aux+0x36>
 575:	83 ec 0c             	sub    $0xc,%esp
 578:	ff b3 34 00 00 00    	pushl  0x34(%ebx)
 57e:	e8 dd fe ff ff       	call   460 <__libc_start_main@plt+0x10>
 583:	83 c4 10             	add    $0x10,%esp
 586:	e8 35 ff ff ff       	call   4c0 <deregister_tm_clones>
 58b:	c6 83 48 00 00 00 01 	movb   $0x1,0x48(%ebx)
 592:	8b 5d fc             	mov    -0x4(%ebp),%ebx
 595:	c9                   	leave  
 596:	c3                   	ret    
 597:	89 f6                	mov    %esi,%esi
 599:	8d bc 27 00 00 00 00 	lea    0x0(%edi,%eiz,1),%edi

000005a0 <frame_dummy>:
 5a0:	55                   	push   %ebp
 5a1:	89 e5                	mov    %esp,%ebp
 5a3:	5d                   	pop    %ebp
 5a4:	e9 57 ff ff ff       	jmp    500 <register_tm_clones>

000005a9 <__x86.get_pc_thunk.dx>:
 5a9:	8b 14 24             	mov    (%esp),%edx
 5ac:	c3                   	ret    

000005ad <f1>:
 5ad:	58                   	pop    %eax
 5ae:	58                   	pop    %eax
 5af:	58                   	pop    %eax
 5b0:	58                   	pop    %eax
 5b1:	58                   	pop    %eax
 5b2:	58                   	pop    %eax
 5b3:	58                   	pop    %eax
 5b4:	58                   	pop    %eax
 5b5:	58                   	pop    %eax
 5b6:	58                   	pop    %eax
 5b7:	58                   	pop    %eax
 5b8:	58                   	pop    %eax
 5b9:	58                   	pop    %eax
 5ba:	58                   	pop    %eax
 5bb:	58                   	pop    %eax
 5bc:	58                   	pop    %eax
 5bd:	58                   	pop    %eax
 5be:	58                   	pop    %eax
 5bf:	58                   	pop    %eax
 5c0:	58                   	pop    %eax
 5c1:	58                   	pop    %eax
 5c2:	58                   	pop    %eax
 5c3:	58                   	pop    %eax
 5c4:	58                   	pop    %eax
 5c5:	58                   	pop    %eax
 5c6:	58                   	pop    %eax
 5c7:	58                   	pop    %eax
 5c8:	58                   	pop    %eax
 5c9:	58                   	pop    %eax
 5ca:	58                   	pop    %eax
 5cb:	58                   	pop    %eax
 5cc:	58                   	pop    %eax
 5cd:	58                   	pop    %eax
 5ce:	58                   	pop    %eax
 5cf:	58                   	pop    %eax
 5d0:	58                   	pop    %eax
 5d1:	58                   	pop    %eax
 5d2:	58                   	pop    %eax
 5d3:	58                   	pop    %eax
 5d4:	58                   	pop    %eax
 5d5:	58                   	pop    %eax
 5d6:	58                   	pop    %eax
 5d7:	58                   	pop    %eax
 5d8:	58                   	pop    %eax
 5d9:	58                   	pop    %eax
 5da:	58                   	pop    %eax
 5db:	58                   	pop    %eax
 5dc:	58                   	pop    %eax
 5dd:	58                   	pop    %eax
 5de:	58                   	pop    %eax
 5df:	58                   	pop    %eax
 5e0:	58                   	pop    %eax
 5e1:	58                   	pop    %eax
 5e2:	58                   	pop    %eax
 5e3:	58                   	pop    %eax
 5e4:	58                   	pop    %eax
 5e5:	58                   	pop    %eax
 5e6:	58                   	pop    %eax
 5e7:	58                   	pop    %eax
 5e8:	58                   	pop    %eax
 5e9:	58                   	pop    %eax
 5ea:	58                   	pop    %eax
 5eb:	58                   	pop    %eax
 5ec:	58                   	pop    %eax
 5ed:	58                   	pop    %eax
 5ee:	58                   	pop    %eax
 5ef:	58                   	pop    %eax
 5f0:	58                   	pop    %eax
 5f1:	58                   	pop    %eax
 5f2:	58                   	pop    %eax
 5f3:	58                   	pop    %eax
 5f4:	58                   	pop    %eax
 5f5:	58                   	pop    %eax
 5f6:	58                   	pop    %eax
 5f7:	58                   	pop    %eax
 5f8:	58                   	pop    %eax
 5f9:	58                   	pop    %eax
 5fa:	58                   	pop    %eax
 5fb:	58                   	pop    %eax
 5fc:	58                   	pop    %eax
 5fd:	58                   	pop    %eax
 5fe:	58                   	pop    %eax
 5ff:	58                   	pop    %eax
 600:	58                   	pop    %eax
 601:	58                   	pop    %eax
 602:	58                   	pop    %eax
 603:	58                   	pop    %eax
 604:	58                   	pop    %eax
 605:	58                   	pop    %eax
 606:	58                   	pop    %eax
 607:	58                   	pop    %eax
 608:	58                   	pop    %eax
 609:	58                   	pop    %eax
 60a:	58                   	pop    %eax
 60b:	58                   	pop    %eax
 60c:	58                   	pop    %eax
 60d:	58                   	pop    %eax
 60e:	58                   	pop    %eax
 60f:	58                   	pop    %eax
 610:	58                   	pop    %eax
 611:	58                   	pop    %eax
 612:	58                   	pop    %eax
 613:	58                   	pop    %eax
 614:	58                   	pop    %eax
 615:	58                   	pop    %eax
 616:	58                   	pop    %eax
 617:	58                   	pop    %eax
 618:	58                   	pop    %eax
 619:	58                   	pop    %eax
 61a:	58                   	pop    %eax
 61b:	58                   	pop    %eax
 61c:	58                   	pop    %eax
 61d:	58                   	pop    %eax
 61e:	58                   	pop    %eax
 61f:	58                   	pop    %eax
 620:	58                   	pop    %eax
 621:	58                   	pop    %eax
 622:	58                   	pop    %eax
 623:	58                   	pop    %eax
 624:	58                   	pop    %eax
 625:	58                   	pop    %eax
 626:	58                   	pop    %eax
 627:	58                   	pop    %eax
 628:	58                   	pop    %eax
 629:	58                   	pop    %eax
 62a:	58                   	pop    %eax
 62b:	58                   	pop    %eax
 62c:	58                   	pop    %eax
 62d:	58                   	pop    %eax
 62e:	58                   	pop    %eax
 62f:	58                   	pop    %eax
 630:	58                   	pop    %eax
 631:	58                   	pop    %eax
 632:	58                   	pop    %eax
 633:	58                   	pop    %eax
 634:	58                   	pop    %eax
 635:	58                   	pop    %eax
 636:	58                   	pop    %eax
 637:	58                   	pop    %eax
 638:	58                   	pop    %eax
 639:	58                   	pop    %eax
 63a:	58                   	pop    %eax
 63b:	58                   	pop    %eax
 63c:	58                   	pop    %eax
 63d:	58                   	pop    %eax
 63e:	58                   	pop    %eax
 63f:	58                   	pop    %eax
 640:	58                   	pop    %eax
 641:	58                   	pop    %eax
 642:	58                   	pop    %eax
 643:	58                   	pop    %eax
 644:	58                   	pop    %eax
 645:	58                   	pop    %eax
 646:	58                   	pop    %eax
 647:	58                   	pop    %eax
 648:	58                   	pop    %eax
 649:	58                   	pop    %eax
 64a:	58                   	pop    %eax
 64b:	58                   	pop    %eax
 64c:	58                   	pop    %eax
 64d:	58                   	pop    %eax
 64e:	58                   	pop    %eax
 64f:	58                   	pop    %eax
 650:	58                   	pop    %eax
 651:	58                   	pop    %eax
 652:	58                   	pop    %eax
 653:	58                   	pop    %eax
 654:	58                   	pop    %eax
 655:	58                   	pop    %eax
 656:	58                   	pop    %eax
 657:	58                   	pop    %eax
 658:	58                   	pop    %eax
 659:	58                   	pop    %eax
 65a:	58                   	pop    %eax
 65b:	58                   	pop    %eax
 65c:	58                   	pop    %eax
 65d:	58                   	pop    %eax
 65e:	58                   	pop    %eax
 65f:	58                   	pop    %eax
 660:	58                   	pop    %eax
 661:	58                   	pop    %eax
 662:	58                   	pop    %eax
 663:	58                   	pop    %eax
 664:	58                   	pop    %eax
 665:	58                   	pop    %eax
 666:	58                   	pop    %eax
 667:	58                   	pop    %eax
 668:	58                   	pop    %eax
 669:	58                   	pop    %eax
 66a:	58                   	pop    %eax
 66b:	58                   	pop    %eax
 66c:	58                   	pop    %eax
 66d:	58                   	pop    %eax
 66e:	58                   	pop    %eax
 66f:	58                   	pop    %eax
 670:	58                   	pop    %eax
 671:	58                   	pop    %eax
 672:	58                   	pop    %eax
 673:	58                   	pop    %eax
 674:	58                   	pop    %eax
 675:	58                   	pop    %eax
 676:	58                   	pop    %eax
 677:	58                   	pop    %eax
 678:	58                   	pop    %eax
 679:	58                   	pop    %eax
 67a:	58                   	pop    %eax
 67b:	58                   	pop    %eax
 67c:	58                   	pop    %eax
 67d:	58                   	pop    %eax
 67e:	58                   	pop    %eax
 67f:	58                   	pop    %eax
 680:	58                   	pop    %eax
 681:	58                   	pop    %eax
 682:	58                   	pop    %eax
 683:	58                   	pop    %eax
 684:	58                   	pop    %eax
 685:	58                   	pop    %eax
 686:	58                   	pop    %eax
 687:	58                   	pop    %eax
 688:	58                   	pop    %eax
 689:	58                   	pop    %eax
 68a:	58                   	pop    %eax
 68b:	58                   	pop    %eax
 68c:	58                   	pop    %eax
 68d:	58                   	pop    %eax
 68e:	58                   	pop    %eax
 68f:	58                   	pop    %eax
 690:	58                   	pop    %eax
 691:	58                   	pop    %eax
 692:	58                   	pop    %eax
 693:	58                   	pop    %eax
 694:	58                   	pop    %eax
 695:	58                   	pop    %eax
 696:	58                   	pop    %eax
 697:	58                   	pop    %eax
 698:	58                   	pop    %eax
 699:	58                   	pop    %eax
 69a:	58                   	pop    %eax
 69b:	58                   	pop    %eax
 69c:	58                   	pop    %eax
 69d:	58                   	pop    %eax
 69e:	58                   	pop    %eax
 69f:	58                   	pop    %eax
 6a0:	58                   	pop    %eax
 6a1:	58                   	pop    %eax
 6a2:	58                   	pop    %eax
 6a3:	58                   	pop    %eax
 6a4:	58                   	pop    %eax
 6a5:	58                   	pop    %eax
 6a6:	58                   	pop    %eax
 6a7:	58                   	pop    %eax
 6a8:	58                   	pop    %eax
 6a9:	58                   	pop    %eax
 6aa:	58                   	pop    %eax
 6ab:	58                   	pop    %eax
 6ac:	58                   	pop    %eax
 6ad:	58                   	pop    %eax
 6ae:	58                   	pop    %eax
 6af:	58                   	pop    %eax
 6b0:	58                   	pop    %eax
 6b1:	58                   	pop    %eax
 6b2:	58                   	pop    %eax
 6b3:	58                   	pop    %eax
 6b4:	58                   	pop    %eax
 6b5:	58                   	pop    %eax
 6b6:	58                   	pop    %eax
 6b7:	58                   	pop    %eax
 6b8:	58                   	pop    %eax
 6b9:	58                   	pop    %eax
 6ba:	58                   	pop    %eax
 6bb:	58                   	pop    %eax
 6bc:	58                   	pop    %eax
 6bd:	58                   	pop    %eax
 6be:	58                   	pop    %eax
 6bf:	58                   	pop    %eax
 6c0:	58                   	pop    %eax
 6c1:	58                   	pop    %eax
 6c2:	58                   	pop    %eax
 6c3:	58                   	pop    %eax
 6c4:	58                   	pop    %eax
 6c5:	58                   	pop    %eax
 6c6:	58                   	pop    %eax
 6c7:	58                   	pop    %eax
 6c8:	58                   	pop    %eax
 6c9:	58                   	pop    %eax
 6ca:	58                   	pop    %eax
 6cb:	58                   	pop    %eax
 6cc:	58                   	pop    %eax
 6cd:	58                   	pop    %eax
 6ce:	58                   	pop    %eax
 6cf:	58                   	pop    %eax
 6d0:	58                   	pop    %eax
 6d1:	58                   	pop    %eax
 6d2:	58                   	pop    %eax
 6d3:	58                   	pop    %eax
 6d4:	58                   	pop    %eax
 6d5:	58                   	pop    %eax
 6d6:	58                   	pop    %eax
 6d7:	58                   	pop    %eax
 6d8:	58                   	pop    %eax
 6d9:	58                   	pop    %eax
 6da:	58                   	pop    %eax
 6db:	58                   	pop    %eax
 6dc:	58                   	pop    %eax
 6dd:	58                   	pop    %eax
 6de:	58                   	pop    %eax
 6df:	58                   	pop    %eax
 6e0:	58                   	pop    %eax
 6e1:	58                   	pop    %eax
 6e2:	58                   	pop    %eax
 6e3:	58                   	pop    %eax
 6e4:	58                   	pop    %eax
 6e5:	58                   	pop    %eax
 6e6:	58                   	pop    %eax
 6e7:	58                   	pop    %eax
 6e8:	58                   	pop    %eax

000006e9 <f2>:
 6e9:	58                   	pop    %eax
 6ea:	58                   	pop    %eax
 6eb:	58                   	pop    %eax
 6ec:	58                   	pop    %eax
 6ed:	58                   	pop    %eax
 6ee:	58                   	pop    %eax
 6ef:	58                   	pop    %eax
 6f0:	58                   	pop    %eax
 6f1:	58                   	pop    %eax
 6f2:	58                   	pop    %eax
 6f3:	58                   	pop    %eax
 6f4:	58                   	pop    %eax
 6f5:	58                   	pop    %eax
 6f6:	58                   	pop    %eax
 6f7:	58                   	pop    %eax
 6f8:	58                   	pop    %eax
 6f9:	58                   	pop    %eax
 6fa:	58                   	pop    %eax
 6fb:	58                   	pop    %eax
 6fc:	58                   	pop    %eax
 6fd:	58                   	pop    %eax
 6fe:	58                   	pop    %eax
 6ff:	58                   	pop    %eax
 700:	58                   	pop    %eax
 701:	58                   	pop    %eax
 702:	58                   	pop    %eax
 703:	58                   	pop    %eax
 704:	58                   	pop    %eax
 705:	58                   	pop    %eax
 706:	58                   	pop    %eax
 707:	58                   	pop    %eax
 708:	58                   	pop    %eax
 709:	58                   	pop    %eax
 70a:	58                   	pop    %eax
 70b:	58                   	pop    %eax
 70c:	58                   	pop    %eax
 70d:	58                   	pop    %eax
 70e:	58                   	pop    %eax
 70f:	58                   	pop    %eax
 710:	58                   	pop    %eax
 711:	58                   	pop    %eax
 712:	58                   	pop    %eax
 713:	58                   	pop    %eax
 714:	58                   	pop    %eax
 715:	58                   	pop    %eax
 716:	58                   	pop    %eax
 717:	58                   	pop    %eax
 718:	58                   	pop    %eax
 719:	58                   	pop    %eax
 71a:	58                   	pop    %eax
 71b:	58                   	pop    %eax
 71c:	58                   	pop    %eax
 71d:	58                   	pop    %eax
 71e:	58                   	pop    %eax
 71f:	58                   	pop    %eax
 720:	58                   	pop    %eax
 721:	58                   	pop    %eax
 722:	58                   	pop    %eax
 723:	58                   	pop    %eax
 724:	58                   	pop    %eax
 725:	58                   	pop    %eax
 726:	58                   	pop    %eax
 727:	58                   	pop    %eax
 728:	58                   	pop    %eax
 729:	58                   	pop    %eax
 72a:	58                   	pop    %eax
 72b:	58                   	pop    %eax
 72c:	58                   	pop    %eax
 72d:	58                   	pop    %eax

0000072e <f3>:
 72e:	58                   	pop    %eax
 72f:	58                   	pop    %eax
 730:	58                   	pop    %eax
 731:	58                   	pop    %eax
 732:	58                   	pop    %eax
 733:	58                   	pop    %eax
 734:	58                   	pop    %eax
 735:	58                   	pop    %eax
 736:	58                   	pop    %eax
 737:	58                   	pop    %eax
 738:	58                   	pop    %eax
 739:	58                   	pop    %eax
 73a:	58                   	pop    %eax
 73b:	58                   	pop    %eax
 73c:	58                   	pop    %eax
 73d:	58                   	pop    %eax
 73e:	58                   	pop    %eax
 73f:	58                   	pop    %eax
 740:	58                   	pop    %eax
 741:	58                   	pop    %eax
 742:	58                   	pop    %eax
 743:	58                   	pop    %eax
 744:	58                   	pop    %eax
 745:	58                   	pop    %eax
 746:	58                   	pop    %eax
 747:	58                   	pop    %eax
 748:	58                   	pop    %eax
 749:	58                   	pop    %eax
 74a:	58                   	pop    %eax
 74b:	58                   	pop    %eax
 74c:	58                   	pop    %eax
 74d:	58                   	pop    %eax
 74e:	58                   	pop    %eax
 74f:	58                   	pop    %eax
 750:	58                   	pop    %eax
 751:	58                   	pop    %eax
 752:	58                   	pop    %eax
 753:	58                   	pop    %eax
 754:	58                   	pop    %eax
 755:	58                   	pop    %eax
 756:	58                   	pop    %eax
 757:	58                   	pop    %eax
 758:	58                   	pop    %eax
 759:	58                   	pop    %eax
 75a:	58                   	pop    %eax
 75b:	58                   	pop    %eax
 75c:	58                   	pop    %eax
 75d:	58                   	pop    %eax
 75e:	58                   	pop    %eax
 75f:	58                   	pop    %eax
 760:	58                   	pop    %eax
 761:	58                   	pop    %eax
 762:	58                   	pop    %eax
 763:	58                   	pop    %eax
 764:	58                   	pop    %eax
 765:	58                   	pop    %eax
 766:	58                   	pop    %eax
 767:	58                   	pop    %eax
 768:	58                   	pop    %eax
 769:	58                   	pop    %eax
 76a:	58                   	pop    %eax
 76b:	58                   	pop    %eax
 76c:	58                   	pop    %eax
 76d:	58                   	pop    %eax
 76e:	58                   	pop    %eax
 76f:	58                   	pop    %eax
 770:	58                   	pop    %eax
 771:	58                   	pop    %eax
 772:	58                   	pop    %eax
 773:	58                   	pop    %eax
 774:	58                   	pop    %eax
 775:	58                   	pop    %eax
 776:	58                   	pop    %eax
 777:	58                   	pop    %eax
 778:	58                   	pop    %eax
 779:	58                   	pop    %eax
 77a:	58                   	pop    %eax
 77b:	58                   	pop    %eax
 77c:	58                   	pop    %eax
 77d:	58                   	pop    %eax
 77e:	58                   	pop    %eax
 77f:	58                   	pop    %eax
 780:	58                   	pop    %eax
 781:	58                   	pop    %eax
 782:	58                   	pop    %eax
 783:	58                   	pop    %eax
 784:	58                   	pop    %eax
 785:	58                   	pop    %eax
 786:	58                   	pop    %eax
 787:	58                   	pop    %eax
 788:	58                   	pop    %eax
 789:	58                   	pop    %eax
 78a:	58                   	pop    %eax
 78b:	58                   	pop    %eax
 78c:	58                   	pop    %eax
 78d:	58                   	pop    %eax
 78e:	58                   	pop    %eax
 78f:	58                   	pop    %eax
 790:	58                   	pop    %eax
 791:	58                   	pop    %eax
 792:	58                   	pop    %eax
 793:	58                   	pop    %eax
 794:	58                   	pop    %eax
 795:	58                   	pop    %eax
 796:	58                   	pop    %eax
 797:	58                   	pop    %eax
 798:	58                   	pop    %eax
 799:	58                   	pop    %eax
 79a:	58                   	pop    %eax
 79b:	58                   	pop    %eax
 79c:	58                   	pop    %eax
 79d:	58                   	pop    %eax
 79e:	58                   	pop    %eax
 79f:	58                   	pop    %eax
 7a0:	58                   	pop    %eax
 7a1:	58                   	pop    %eax

000007a2 <recover_flag>:
 7a2:	58                   	pop    %eax
 7a3:	58                   	pop    %eax
 7a4:	58                   	pop    %eax
 7a5:	58                   	pop    %eax
 7a6:	58                   	pop    %eax
 7a7:	58                   	pop    %eax
 7a8:	58                   	pop    %eax
 7a9:	58                   	pop    %eax
 7aa:	58                   	pop    %eax
 7ab:	58                   	pop    %eax
 7ac:	58                   	pop    %eax
 7ad:	58                   	pop    %eax
 7ae:	58                   	pop    %eax
 7af:	58                   	pop    %eax
 7b0:	58                   	pop    %eax
 7b1:	58                   	pop    %eax
 7b2:	58                   	pop    %eax
 7b3:	58                   	pop    %eax
 7b4:	58                   	pop    %eax
 7b5:	58                   	pop    %eax
 7b6:	58                   	pop    %eax
 7b7:	58                   	pop    %eax
 7b8:	58                   	pop    %eax
 7b9:	58                   	pop    %eax
 7ba:	58                   	pop    %eax
 7bb:	58                   	pop    %eax
 7bc:	58                   	pop    %eax
 7bd:	58                   	pop    %eax
 7be:	58                   	pop    %eax
 7bf:	58                   	pop    %eax
 7c0:	58                   	pop    %eax
 7c1:	58                   	pop    %eax
 7c2:	58                   	pop    %eax
 7c3:	58                   	pop    %eax
 7c4:	58                   	pop    %eax
 7c5:	58                   	pop    %eax
 7c6:	58                   	pop    %eax
 7c7:	58                   	pop    %eax
 7c8:	58                   	pop    %eax
 7c9:	58                   	pop    %eax
 7ca:	58                   	pop    %eax
 7cb:	58                   	pop    %eax
 7cc:	58                   	pop    %eax
 7cd:	58                   	pop    %eax
 7ce:	58                   	pop    %eax
 7cf:	58                   	pop    %eax
 7d0:	58                   	pop    %eax
 7d1:	58                   	pop    %eax
 7d2:	58                   	pop    %eax
 7d3:	58                   	pop    %eax
 7d4:	58                   	pop    %eax
 7d5:	58                   	pop    %eax
 7d6:	58                   	pop    %eax
 7d7:	58                   	pop    %eax
 7d8:	58                   	pop    %eax
 7d9:	58                   	pop    %eax
 7da:	58                   	pop    %eax
 7db:	58                   	pop    %eax

000007dc <main>:
 7dc:	58                   	pop    %eax
 7dd:	58                   	pop    %eax
 7de:	58                   	pop    %eax
 7df:	58                   	pop    %eax
 7e0:	58                   	pop    %eax
 7e1:	58                   	pop    %eax
 7e2:	58                   	pop    %eax
 7e3:	58                   	pop    %eax
 7e4:	58                   	pop    %eax
 7e5:	58                   	pop    %eax
 7e6:	58                   	pop    %eax
 7e7:	58                   	pop    %eax
 7e8:	58                   	pop    %eax
 7e9:	58                   	pop    %eax
 7ea:	58                   	pop    %eax
 7eb:	58                   	pop    %eax
 7ec:	58                   	pop    %eax
 7ed:	58                   	pop    %eax
 7ee:	58                   	pop    %eax
 7ef:	58                   	pop    %eax
 7f0:	58                   	pop    %eax
 7f1:	58                   	pop    %eax
 7f2:	58                   	pop    %eax
 7f3:	58                   	pop    %eax
 7f4:	58                   	pop    %eax
 7f5:	58                   	pop    %eax
 7f6:	58                   	pop    %eax
 7f7:	58                   	pop    %eax
 7f8:	58                   	pop    %eax
 7f9:	58                   	pop    %eax
 7fa:	58                   	pop    %eax
 7fb:	58                   	pop    %eax
 7fc:	58                   	pop    %eax
 7fd:	58                   	pop    %eax
 7fe:	58                   	pop    %eax
 7ff:	58                   	pop    %eax
 800:	58                   	pop    %eax
 801:	58                   	pop    %eax
 802:	58                   	pop    %eax
 803:	58                   	pop    %eax
 804:	58                   	pop    %eax
 805:	58                   	pop    %eax
 806:	58                   	pop    %eax
 807:	58                   	pop    %eax
 808:	58                   	pop    %eax
 809:	58                   	pop    %eax
 80a:	58                   	pop    %eax
 80b:	58                   	pop    %eax
 80c:	58                   	pop    %eax
 80d:	58                   	pop    %eax
 80e:	58                   	pop    %eax
 80f:	58                   	pop    %eax
 810:	58                   	pop    %eax
 811:	58                   	pop    %eax
 812:	58                   	pop    %eax
 813:	58                   	pop    %eax
 814:	58                   	pop    %eax
 815:	58                   	pop    %eax
 816:	58                   	pop    %eax
 817:	58                   	pop    %eax
 818:	58                   	pop    %eax
 819:	58                   	pop    %eax
 81a:	58                   	pop    %eax
 81b:	58                   	pop    %eax
 81c:	58                   	pop    %eax
 81d:	58                   	pop    %eax
 81e:	58                   	pop    %eax
 81f:	58                   	pop    %eax
 820:	58                   	pop    %eax
 821:	58                   	pop    %eax
 822:	58                   	pop    %eax
 823:	58                   	pop    %eax
 824:	58                   	pop    %eax
 825:	58                   	pop    %eax
 826:	58                   	pop    %eax
 827:	58                   	pop    %eax
 828:	58                   	pop    %eax
 829:	58                   	pop    %eax
 82a:	58                   	pop    %eax
 82b:	58                   	pop    %eax
 82c:	58                   	pop    %eax
 82d:	58                   	pop    %eax
 82e:	58                   	pop    %eax
 82f:	58                   	pop    %eax
 830:	58                   	pop    %eax
 831:	58                   	pop    %eax
 832:	58                   	pop    %eax
 833:	58                   	pop    %eax
 834:	58                   	pop    %eax
 835:	58                   	pop    %eax
 836:	58                   	pop    %eax
 837:	58                   	pop    %eax
 838:	58                   	pop    %eax
 839:	58                   	pop    %eax
 83a:	58                   	pop    %eax
 83b:	58                   	pop    %eax
 83c:	58                   	pop    %eax
 83d:	58                   	pop    %eax
 83e:	58                   	pop    %eax
 83f:	58                   	pop    %eax
 840:	58                   	pop    %eax
 841:	58                   	pop    %eax
 842:	58                   	pop    %eax
 843:	58                   	pop    %eax
 844:	58                   	pop    %eax
 845:	58                   	pop    %eax
 846:	58                   	pop    %eax
 847:	58                   	pop    %eax
 848:	58                   	pop    %eax
 849:	58                   	pop    %eax
 84a:	58                   	pop    %eax
 84b:	58                   	pop    %eax
 84c:	58                   	pop    %eax
 84d:	58                   	pop    %eax
 84e:	58                   	pop    %eax
 84f:	58                   	pop    %eax
 850:	58                   	pop    %eax
 851:	58                   	pop    %eax
 852:	58                   	pop    %eax
 853:	58                   	pop    %eax
 854:	58                   	pop    %eax
 855:	58                   	pop    %eax
 856:	58                   	pop    %eax
 857:	58                   	pop    %eax
 858:	58                   	pop    %eax
 859:	58                   	pop    %eax
 85a:	58                   	pop    %eax
 85b:	58                   	pop    %eax
 85c:	58                   	pop    %eax
 85d:	58                   	pop    %eax
 85e:	58                   	pop    %eax
 85f:	58                   	pop    %eax
 860:	58                   	pop    %eax
 861:	58                   	pop    %eax
 862:	58                   	pop    %eax
 863:	58                   	pop    %eax
 864:	58                   	pop    %eax
 865:	58                   	pop    %eax
 866:	58                   	pop    %eax
 867:	58                   	pop    %eax
 868:	58                   	pop    %eax
 869:	58                   	pop    %eax
 86a:	58                   	pop    %eax
 86b:	58                   	pop    %eax
 86c:	58                   	pop    %eax
 86d:	58                   	pop    %eax
 86e:	58                   	pop    %eax
 86f:	58                   	pop    %eax
 870:	58                   	pop    %eax
 871:	58                   	pop    %eax
 872:	58                   	pop    %eax
 873:	58                   	pop    %eax
 874:	58                   	pop    %eax
 875:	58                   	pop    %eax
 876:	58                   	pop    %eax
 877:	58                   	pop    %eax
 878:	58                   	pop    %eax
 879:	58                   	pop    %eax
 87a:	58                   	pop    %eax
 87b:	58                   	pop    %eax
 87c:	58                   	pop    %eax
 87d:	58                   	pop    %eax
 87e:	58                   	pop    %eax
 87f:	58                   	pop    %eax
 880:	58                   	pop    %eax
 881:	58                   	pop    %eax
 882:	58                   	pop    %eax
 883:	58                   	pop    %eax
 884:	58                   	pop    %eax
 885:	58                   	pop    %eax
 886:	58                   	pop    %eax
 887:	58                   	pop    %eax
 888:	58                   	pop    %eax
 889:	58                   	pop    %eax
 88a:	58                   	pop    %eax
 88b:	58                   	pop    %eax
 88c:	58                   	pop    %eax
 88d:	58                   	pop    %eax
 88e:	58                   	pop    %eax
 88f:	58                   	pop    %eax
 890:	58                   	pop    %eax
 891:	58                   	pop    %eax
 892:	58                   	pop    %eax
 893:	58                   	pop    %eax
 894:	58                   	pop    %eax
 895:	58                   	pop    %eax
 896:	58                   	pop    %eax
 897:	58                   	pop    %eax
 898:	58                   	pop    %eax
 899:	58                   	pop    %eax
 89a:	58                   	pop    %eax
 89b:	58                   	pop    %eax
 89c:	58                   	pop    %eax
 89d:	58                   	pop    %eax
 89e:	58                   	pop    %eax
 89f:	58                   	pop    %eax
 8a0:	58                   	pop    %eax
 8a1:	58                   	pop    %eax
 8a2:	58                   	pop    %eax
 8a3:	58                   	pop    %eax
 8a4:	58                   	pop    %eax
 8a5:	58                   	pop    %eax
 8a6:	58                   	pop    %eax
 8a7:	58                   	pop    %eax
 8a8:	58                   	pop    %eax
 8a9:	58                   	pop    %eax
 8aa:	58                   	pop    %eax
 8ab:	58                   	pop    %eax
 8ac:	58                   	pop    %eax
 8ad:	58                   	pop    %eax
 8ae:	58                   	pop    %eax
 8af:	58                   	pop    %eax
 8b0:	58                   	pop    %eax
 8b1:	58                   	pop    %eax
 8b2:	58                   	pop    %eax
 8b3:	58                   	pop    %eax
 8b4:	58                   	pop    %eax
 8b5:	58                   	pop    %eax
 8b6:	58                   	pop    %eax
 8b7:	58                   	pop    %eax
 8b8:	58                   	pop    %eax
 8b9:	58                   	pop    %eax
 8ba:	58                   	pop    %eax
 8bb:	58                   	pop    %eax
 8bc:	58                   	pop    %eax
 8bd:	58                   	pop    %eax
 8be:	58                   	pop    %eax
 8bf:	58                   	pop    %eax
 8c0:	58                   	pop    %eax
 8c1:	58                   	pop    %eax
 8c2:	58                   	pop    %eax
 8c3:	58                   	pop    %eax
 8c4:	58                   	pop    %eax
 8c5:	58                   	pop    %eax
 8c6:	58                   	pop    %eax
 8c7:	58                   	pop    %eax
 8c8:	58                   	pop    %eax
 8c9:	58                   	pop    %eax
 8ca:	58                   	pop    %eax
 8cb:	58                   	pop    %eax
 8cc:	58                   	pop    %eax
 8cd:	58                   	pop    %eax
 8ce:	58                   	pop    %eax
 8cf:	58                   	pop    %eax
 8d0:	58                   	pop    %eax
 8d1:	58                   	pop    %eax
 8d2:	58                   	pop    %eax
 8d3:	58                   	pop    %eax

000008d4 <__x86.get_pc_thunk.ax>:
 8d4:	8b 04 24             	mov    (%esp),%eax
 8d7:	c3                   	ret    
 8d8:	66 90                	xchg   %ax,%ax
 8da:	66 90                	xchg   %ax,%ax
 8dc:	66 90                	xchg   %ax,%ax
 8de:	66 90                	xchg   %ax,%ax

000008e0 <__libc_csu_init>:
 8e0:	55                   	push   %ebp
 8e1:	57                   	push   %edi
 8e2:	56                   	push   %esi
 8e3:	53                   	push   %ebx
 8e4:	e8 c7 fb ff ff       	call   4b0 <__x86.get_pc_thunk.bx>
 8e9:	81 c3 e7 16 00 00    	add    $0x16e7,%ebx
 8ef:	83 ec 0c             	sub    $0xc,%esp
 8f2:	8b 6c 24 20          	mov    0x20(%esp),%ebp
 8f6:	8d b3 04 ff ff ff    	lea    -0xfc(%ebx),%esi
 8fc:	e8 df fa ff ff       	call   3e0 <_init>
 901:	8d 83 00 ff ff ff    	lea    -0x100(%ebx),%eax
 907:	29 c6                	sub    %eax,%esi
 909:	c1 fe 02             	sar    $0x2,%esi
 90c:	85 f6                	test   %esi,%esi
 90e:	74 25                	je     935 <__libc_csu_init+0x55>
 910:	31 ff                	xor    %edi,%edi
 912:	8d b6 00 00 00 00    	lea    0x0(%esi),%esi
 918:	83 ec 04             	sub    $0x4,%esp
 91b:	ff 74 24 2c          	pushl  0x2c(%esp)
 91f:	ff 74 24 2c          	pushl  0x2c(%esp)
 923:	55                   	push   %ebp
 924:	ff 94 bb 00 ff ff ff 	call   *-0x100(%ebx,%edi,4)
 92b:	83 c7 01             	add    $0x1,%edi
 92e:	83 c4 10             	add    $0x10,%esp
 931:	39 fe                	cmp    %edi,%esi
 933:	75 e3                	jne    918 <__libc_csu_init+0x38>
 935:	83 c4 0c             	add    $0xc,%esp
 938:	5b                   	pop    %ebx
 939:	5e                   	pop    %esi
 93a:	5f                   	pop    %edi
 93b:	5d                   	pop    %ebp
 93c:	c3                   	ret    
 93d:	8d 76 00             	lea    0x0(%esi),%esi

00000940 <__libc_csu_fini>:
 940:	f3 c3                	repz ret 
 942:	66 90                	xchg   %ax,%ax
 944:	66 90                	xchg   %ax,%ax
 946:	66 90                	xchg   %ax,%ax
 948:	66 90                	xchg   %ax,%ax
 94a:	66 90                	xchg   %ax,%ax
 94c:	66 90                	xchg   %ax,%ax
 94e:	66 90                	xchg   %ax,%ax

00000950 <__stack_chk_fail_local>:
 950:	53                   	push   %ebx
 951:	e8 5a fb ff ff       	call   4b0 <__x86.get_pc_thunk.bx>
 956:	81 c3 7a 16 00 00    	add    $0x167a,%ebx
 95c:	83 ec 08             	sub    $0x8,%esp
 95f:	e8 cc fa ff ff       	call   430 <__stack_chk_fail@plt>

Disassembly of section .fini:

00000964 <_fini>:
 964:	53                   	push   %ebx
 965:	83 ec 08             	sub    $0x8,%esp
 968:	e8 43 fb ff ff       	call   4b0 <__x86.get_pc_thunk.bx>
 96d:	81 c3 63 16 00 00    	add    $0x1663,%ebx
 973:	83 c4 08             	add    $0x8,%esp
 976:	5b                   	pop    %ebx
 977:	c3                   	ret    
