
shellme.so:     file format elf64-x86-64


Disassembly of section .init:

0000000000001238 <_init>:
    1238:	48 83 ec 08          	sub    $0x8,%rsp
    123c:	48 8b 05 a5 0d 20 00 	mov    0x200da5(%rip),%rax        # 201fe8 <_GLOBAL_OFFSET_TABLE_+0x110>
    1243:	48 85 c0             	test   %rax,%rax
    1246:	74 05                	je     124d <_init+0x15>
    1248:	e8 f3 00 00 00       	callq  1340 <_init+0x108>
    124d:	48 83 c4 08          	add    $0x8,%rsp
    1251:	c3                   	retq   

Disassembly of section .plt:

0000000000001260 <.plt>:
    1260:	ff 35 7a 0c 20 00    	pushq  0x200c7a(%rip)        # 201ee0 <_GLOBAL_OFFSET_TABLE_+0x8>
    1266:	ff 25 7c 0c 20 00    	jmpq   *0x200c7c(%rip)        # 201ee8 <_GLOBAL_OFFSET_TABLE_+0x10>
    126c:	0f 1f 40 00          	nopl   0x0(%rax)

Disassembly of section .plt.got:

0000000000001270 <.plt.got>:
    1270:	ff 25 7a 0c 20 00    	jmpq   *0x200c7a(%rip)        # 201ef0 <_GLOBAL_OFFSET_TABLE_+0x18>
    1276:	66 90                	xchg   %ax,%ax
    1278:	ff 25 7a 0c 20 00    	jmpq   *0x200c7a(%rip)        # 201ef8 <_GLOBAL_OFFSET_TABLE_+0x20>
    127e:	66 90                	xchg   %ax,%ax
    1280:	ff 25 82 0c 20 00    	jmpq   *0x200c82(%rip)        # 201f08 <_GLOBAL_OFFSET_TABLE_+0x30>
    1286:	66 90                	xchg   %ax,%ax
    1288:	ff 25 82 0c 20 00    	jmpq   *0x200c82(%rip)        # 201f10 <_GLOBAL_OFFSET_TABLE_+0x38>
    128e:	66 90                	xchg   %ax,%ax
    1290:	ff 25 82 0c 20 00    	jmpq   *0x200c82(%rip)        # 201f18 <_GLOBAL_OFFSET_TABLE_+0x40>
    1296:	66 90                	xchg   %ax,%ax
    1298:	ff 25 82 0c 20 00    	jmpq   *0x200c82(%rip)        # 201f20 <_GLOBAL_OFFSET_TABLE_+0x48>
    129e:	66 90                	xchg   %ax,%ax
    12a0:	ff 25 82 0c 20 00    	jmpq   *0x200c82(%rip)        # 201f28 <_GLOBAL_OFFSET_TABLE_+0x50>
    12a6:	66 90                	xchg   %ax,%ax
    12a8:	ff 25 82 0c 20 00    	jmpq   *0x200c82(%rip)        # 201f30 <_GLOBAL_OFFSET_TABLE_+0x58>
    12ae:	66 90                	xchg   %ax,%ax
    12b0:	ff 25 82 0c 20 00    	jmpq   *0x200c82(%rip)        # 201f38 <_GLOBAL_OFFSET_TABLE_+0x60>
    12b6:	66 90                	xchg   %ax,%ax
    12b8:	ff 25 82 0c 20 00    	jmpq   *0x200c82(%rip)        # 201f40 <_GLOBAL_OFFSET_TABLE_+0x68>
    12be:	66 90                	xchg   %ax,%ax
    12c0:	ff 25 82 0c 20 00    	jmpq   *0x200c82(%rip)        # 201f48 <_GLOBAL_OFFSET_TABLE_+0x70>
    12c6:	66 90                	xchg   %ax,%ax
    12c8:	ff 25 82 0c 20 00    	jmpq   *0x200c82(%rip)        # 201f50 <_GLOBAL_OFFSET_TABLE_+0x78>
    12ce:	66 90                	xchg   %ax,%ax
    12d0:	ff 25 8a 0c 20 00    	jmpq   *0x200c8a(%rip)        # 201f60 <_GLOBAL_OFFSET_TABLE_+0x88>
    12d6:	66 90                	xchg   %ax,%ax
    12d8:	ff 25 92 0c 20 00    	jmpq   *0x200c92(%rip)        # 201f70 <_GLOBAL_OFFSET_TABLE_+0x98>
    12de:	66 90                	xchg   %ax,%ax
    12e0:	ff 25 92 0c 20 00    	jmpq   *0x200c92(%rip)        # 201f78 <_GLOBAL_OFFSET_TABLE_+0xa0>
    12e6:	66 90                	xchg   %ax,%ax
    12e8:	ff 25 92 0c 20 00    	jmpq   *0x200c92(%rip)        # 201f80 <_GLOBAL_OFFSET_TABLE_+0xa8>
    12ee:	66 90                	xchg   %ax,%ax
    12f0:	ff 25 92 0c 20 00    	jmpq   *0x200c92(%rip)        # 201f88 <_GLOBAL_OFFSET_TABLE_+0xb0>
    12f6:	66 90                	xchg   %ax,%ax
    12f8:	ff 25 9a 0c 20 00    	jmpq   *0x200c9a(%rip)        # 201f98 <_GLOBAL_OFFSET_TABLE_+0xc0>
    12fe:	66 90                	xchg   %ax,%ax
    1300:	ff 25 9a 0c 20 00    	jmpq   *0x200c9a(%rip)        # 201fa0 <_GLOBAL_OFFSET_TABLE_+0xc8>
    1306:	66 90                	xchg   %ax,%ax
    1308:	ff 25 9a 0c 20 00    	jmpq   *0x200c9a(%rip)        # 201fa8 <_GLOBAL_OFFSET_TABLE_+0xd0>
    130e:	66 90                	xchg   %ax,%ax
    1310:	ff 25 9a 0c 20 00    	jmpq   *0x200c9a(%rip)        # 201fb0 <_GLOBAL_OFFSET_TABLE_+0xd8>
    1316:	66 90                	xchg   %ax,%ax
    1318:	ff 25 9a 0c 20 00    	jmpq   *0x200c9a(%rip)        # 201fb8 <_GLOBAL_OFFSET_TABLE_+0xe0>
    131e:	66 90                	xchg   %ax,%ax
    1320:	ff 25 9a 0c 20 00    	jmpq   *0x200c9a(%rip)        # 201fc0 <_GLOBAL_OFFSET_TABLE_+0xe8>
    1326:	66 90                	xchg   %ax,%ax
    1328:	ff 25 a2 0c 20 00    	jmpq   *0x200ca2(%rip)        # 201fd0 <_GLOBAL_OFFSET_TABLE_+0xf8>
    132e:	66 90                	xchg   %ax,%ax
    1330:	ff 25 a2 0c 20 00    	jmpq   *0x200ca2(%rip)        # 201fd8 <_GLOBAL_OFFSET_TABLE_+0x100>
    1336:	66 90                	xchg   %ax,%ax
    1338:	ff 25 a2 0c 20 00    	jmpq   *0x200ca2(%rip)        # 201fe0 <_GLOBAL_OFFSET_TABLE_+0x108>
    133e:	66 90                	xchg   %ax,%ax
    1340:	ff 25 a2 0c 20 00    	jmpq   *0x200ca2(%rip)        # 201fe8 <_GLOBAL_OFFSET_TABLE_+0x110>
    1346:	66 90                	xchg   %ax,%ax
    1348:	ff 25 a2 0c 20 00    	jmpq   *0x200ca2(%rip)        # 201ff0 <_GLOBAL_OFFSET_TABLE_+0x118>
    134e:	66 90                	xchg   %ax,%ax

Disassembly of section .text:

0000000000001350 <deregister_tm_clones>:
    1350:	48 8d 3d c1 0c 20 00 	lea    0x200cc1(%rip),%rdi        # 202018 <_edata>
    1357:	48 8d 05 c1 0c 20 00 	lea    0x200cc1(%rip),%rax        # 20201f <_edata+0x7>
    135e:	55                   	push   %rbp
    135f:	48 29 f8             	sub    %rdi,%rax
    1362:	48 89 e5             	mov    %rsp,%rbp
    1365:	48 83 f8 0e          	cmp    $0xe,%rax
    1369:	76 15                	jbe    1380 <deregister_tm_clones+0x30>
    136b:	48 8b 05 56 0c 20 00 	mov    0x200c56(%rip),%rax        # 201fc8 <_GLOBAL_OFFSET_TABLE_+0xf0>
    1372:	48 85 c0             	test   %rax,%rax
    1375:	74 09                	je     1380 <deregister_tm_clones+0x30>
    1377:	5d                   	pop    %rbp
    1378:	ff e0                	jmpq   *%rax
    137a:	66 0f 1f 44 00 00    	nopw   0x0(%rax,%rax,1)
    1380:	5d                   	pop    %rbp
    1381:	c3                   	retq   
    1382:	0f 1f 40 00          	nopl   0x0(%rax)
    1386:	66 2e 0f 1f 84 00 00 	nopw   %cs:0x0(%rax,%rax,1)
    138d:	00 00 00 

0000000000001390 <register_tm_clones>:
    1390:	48 8d 3d 81 0c 20 00 	lea    0x200c81(%rip),%rdi        # 202018 <_edata>
    1397:	48 8d 35 7a 0c 20 00 	lea    0x200c7a(%rip),%rsi        # 202018 <_edata>
    139e:	55                   	push   %rbp
    139f:	48 29 fe             	sub    %rdi,%rsi
    13a2:	48 89 e5             	mov    %rsp,%rbp
    13a5:	48 c1 fe 03          	sar    $0x3,%rsi
    13a9:	48 89 f0             	mov    %rsi,%rax
    13ac:	48 c1 e8 3f          	shr    $0x3f,%rax
    13b0:	48 01 c6             	add    %rax,%rsi
    13b3:	48 d1 fe             	sar    %rsi
    13b6:	74 18                	je     13d0 <register_tm_clones+0x40>
    13b8:	48 8b 05 39 0c 20 00 	mov    0x200c39(%rip),%rax        # 201ff8 <_GLOBAL_OFFSET_TABLE_+0x120>
    13bf:	48 85 c0             	test   %rax,%rax
    13c2:	74 0c                	je     13d0 <register_tm_clones+0x40>
    13c4:	5d                   	pop    %rbp
    13c5:	ff e0                	jmpq   *%rax
    13c7:	66 0f 1f 84 00 00 00 	nopw   0x0(%rax,%rax,1)
    13ce:	00 00 
    13d0:	5d                   	pop    %rbp
    13d1:	c3                   	retq   
    13d2:	0f 1f 40 00          	nopl   0x0(%rax)
    13d6:	66 2e 0f 1f 84 00 00 	nopw   %cs:0x0(%rax,%rax,1)
    13dd:	00 00 00 

00000000000013e0 <__do_global_dtors_aux>:
    13e0:	80 3d 39 0c 20 00 00 	cmpb   $0x0,0x200c39(%rip)        # 202020 <completed.7594>
    13e7:	75 27                	jne    1410 <__do_global_dtors_aux+0x30>
    13e9:	48 83 3d 27 0b 20 00 	cmpq   $0x0,0x200b27(%rip)        # 201f18 <_GLOBAL_OFFSET_TABLE_+0x40>
    13f0:	00 
    13f1:	55                   	push   %rbp
    13f2:	48 89 e5             	mov    %rsp,%rbp
    13f5:	74 0c                	je     1403 <__do_global_dtors_aux+0x23>
    13f7:	48 8b 3d 02 0c 20 00 	mov    0x200c02(%rip),%rdi        # 202000 <__dso_handle>
    13fe:	e8 8d fe ff ff       	callq  1290 <_init+0x58>
    1403:	e8 48 ff ff ff       	callq  1350 <deregister_tm_clones>
    1408:	5d                   	pop    %rbp
    1409:	c6 05 10 0c 20 00 01 	movb   $0x1,0x200c10(%rip)        # 202020 <completed.7594>
    1410:	f3 c3                	repz retq 
    1412:	0f 1f 40 00          	nopl   0x0(%rax)
    1416:	66 2e 0f 1f 84 00 00 	nopw   %cs:0x0(%rax,%rax,1)
    141d:	00 00 00 

0000000000001420 <frame_dummy>:
    1420:	48 8d 3d 81 08 20 00 	lea    0x200881(%rip),%rdi        # 201ca8 <__JCR_END__>
    1427:	48 83 3f 00          	cmpq   $0x0,(%rdi)
    142b:	75 0b                	jne    1438 <frame_dummy+0x18>
    142d:	e9 5e ff ff ff       	jmpq   1390 <register_tm_clones>
    1432:	66 0f 1f 44 00 00    	nopw   0x0(%rax,%rax,1)
    1438:	48 8b 05 51 0b 20 00 	mov    0x200b51(%rip),%rax        # 201f90 <_GLOBAL_OFFSET_TABLE_+0xb8>
    143f:	48 85 c0             	test   %rax,%rax
    1442:	74 e9                	je     142d <frame_dummy+0xd>
    1444:	55                   	push   %rbp
    1445:	48 89 e5             	mov    %rsp,%rbp
    1448:	ff d0                	callq  *%rax
    144a:	5d                   	pop    %rbp
    144b:	e9 40 ff ff ff       	jmpq   1390 <register_tm_clones>

0000000000001450 <shell_this>:
    1450:	41 54                	push   %r12
    1452:	55                   	push   %rbp
    1453:	49 89 fc             	mov    %rdi,%r12
    1456:	53                   	push   %rbx
    1457:	e8 3c fe ff ff       	callq  1298 <_init+0x60>
    145c:	48 63 d8             	movslq %eax,%rbx
    145f:	45 31 c9             	xor    %r9d,%r9d
    1462:	41 b8 ff ff ff ff    	mov    $0xffffffff,%r8d
    1468:	b9 22 00 00 00       	mov    $0x22,%ecx
    146d:	48 89 de             	mov    %rbx,%rsi
    1470:	ba 07 00 00 00       	mov    $0x7,%edx
    1475:	31 ff                	xor    %edi,%edi
    1477:	e8 b4 fe ff ff       	callq  1330 <_init+0xf8>
    147c:	48 89 da             	mov    %rbx,%rdx
    147f:	4c 89 e6             	mov    %r12,%rsi
    1482:	48 89 c7             	mov    %rax,%rdi
    1485:	48 89 c5             	mov    %rax,%rbp
    1488:	e8 3b fe ff ff       	callq  12c8 <_init+0x90>
    148d:	bf 1e 00 00 00       	mov    $0x1e,%edi
    1492:	e8 b1 fe ff ff       	callq  1348 <_init+0x110>
    1497:	be 01 00 00 00       	mov    $0x1,%esi
    149c:	bf 16 00 00 00       	mov    $0x16,%edi
    14a1:	31 c0                	xor    %eax,%eax
    14a3:	e8 50 fe ff ff       	callq  12f8 <_init+0xc0>
    14a8:	5b                   	pop    %rbx
    14a9:	48 89 e8             	mov    %rbp,%rax
    14ac:	5d                   	pop    %rbp
    14ad:	41 5c                	pop    %r12
    14af:	ff e0                	jmpq   *%rax
    14b1:	0f 1f 44 00 00       	nopl   0x0(%rax,%rax,1)
    14b6:	66 2e 0f 1f 84 00 00 	nopw   %cs:0x0(%rax,%rax,1)
    14bd:	00 00 00 

00000000000014c0 <_Z7shellmeRN3Php10ParametersE>:
    14c0:	55                   	push   %rbp
    14c1:	53                   	push   %rbx
    14c2:	48 89 fd             	mov    %rdi,%rbp
    14c5:	48 83 ec 38          	sub    $0x38,%rsp
    14c9:	48 8b 36             	mov    (%rsi),%rsi
    14cc:	48 89 e7             	mov    %rsp,%rdi
    14cf:	48 89 e3             	mov    %rsp,%rbx
    14d2:	64 48 8b 04 25 28 00 	mov    %fs:0x28,%rax
    14d9:	00 00 
    14db:	48 89 44 24 28       	mov    %rax,0x28(%rsp)
    14e0:	31 c0                	xor    %eax,%eax
    14e2:	e8 b9 fd ff ff       	callq  12a0 <_init+0x68>
    14e7:	48 8b 3c 24          	mov    (%rsp),%rdi
    14eb:	e8 d0 fd ff ff       	callq  12c0 <_init+0x88>
    14f0:	be 01 00 00 00       	mov    $0x1,%esi
    14f5:	48 89 ef             	mov    %rbp,%rdi
    14f8:	e8 0b fe ff ff       	callq  1308 <_init+0xd0>
    14fd:	48 8b 3c 24          	mov    (%rsp),%rdi
    1501:	48 83 c3 10          	add    $0x10,%rbx
    1505:	48 39 df             	cmp    %rbx,%rdi
    1508:	74 05                	je     150f <_Z7shellmeRN3Php10ParametersE+0x4f>
    150a:	e8 d1 fd ff ff       	callq  12e0 <_init+0xa8>
    150f:	48 8b 54 24 28       	mov    0x28(%rsp),%rdx
    1514:	64 48 33 14 25 28 00 	xor    %fs:0x28,%rdx
    151b:	00 00 
    151d:	48 89 e8             	mov    %rbp,%rax
    1520:	75 07                	jne    1529 <_Z7shellmeRN3Php10ParametersE+0x69>
    1522:	48 83 c4 38          	add    $0x38,%rsp
    1526:	5b                   	pop    %rbx
    1527:	5d                   	pop    %rbp
    1528:	c3                   	retq   
    1529:	e8 ba fd ff ff       	callq  12e8 <_init+0xb0>
    152e:	48 8b 3c 24          	mov    (%rsp),%rdi
    1532:	48 83 c3 10          	add    $0x10,%rbx
    1536:	48 89 c5             	mov    %rax,%rbp
    1539:	48 39 df             	cmp    %rbx,%rdi
    153c:	74 05                	je     1543 <_Z7shellmeRN3Php10ParametersE+0x83>
    153e:	e8 9d fd ff ff       	callq  12e0 <_init+0xa8>
    1543:	48 89 ef             	mov    %rbp,%rdi
    1546:	e8 dd fd ff ff       	callq  1328 <_init+0xf0>
    154b:	0f 1f 44 00 00       	nopl   0x0(%rax,%rax,1)

0000000000001550 <get_module>:
    1550:	53                   	push   %rbx
    1551:	48 83 ec 40          	sub    $0x40,%rsp
    1555:	80 3d 74 0b 20 00 00 	cmpb   $0x0,0x200b74(%rip)        # 2020d0 <_ZGVZ10get_moduleE11myExtension>
    155c:	75 14                	jne    1572 <get_module+0x22>
    155e:	48 8d 3d 6b 0b 20 00 	lea    0x200b6b(%rip),%rdi        # 2020d0 <_ZGVZ10get_moduleE11myExtension>
    1565:	e8 ce fd ff ff       	callq  1338 <_init+0x100>
    156a:	85 c0                	test   %eax,%eax
    156c:	0f 85 7e 00 00 00    	jne    15f0 <get_module+0xa0>
    1572:	48 8b 05 df 09 20 00 	mov    0x2009df(%rip),%rax        # 201f58 <_GLOBAL_OFFSET_TABLE_+0x80>
    1579:	48 8b 15 80 09 20 00 	mov    0x200980(%rip),%rdx        # 201f00 <_GLOBAL_OFFSET_TABLE_+0x28>
    1580:	48 8d 35 2d 02 00 00 	lea    0x22d(%rip),%rsi        # 17b4 <_fini+0x14>
    1587:	48 8d 3d b2 0a 20 00 	lea    0x200ab2(%rip),%rdi        # 202040 <_ZZ10get_moduleE11myExtension>
    158e:	48 89 e1             	mov    %rsp,%rcx
    1591:	c6 44 24 20 06       	movb   $0x6,0x20(%rsp)
    1596:	48 c7 44 24 28 00 00 	movq   $0x0,0x28(%rsp)
    159d:	00 00 
    159f:	c6 44 24 30 00       	movb   $0x0,0x30(%rsp)
    15a4:	48 83 c0 10          	add    $0x10,%rax
    15a8:	c6 44 24 31 01       	movb   $0x1,0x31(%rsp)
    15ad:	c6 44 24 32 00       	movb   $0x0,0x32(%rsp)
    15b2:	48 89 44 24 10       	mov    %rax,0x10(%rsp)
    15b7:	48 8d 05 fe 01 00 00 	lea    0x1fe(%rip),%rax        # 17bc <_fini+0x1c>
    15be:	48 c7 44 24 08 01 00 	movq   $0x1,0x8(%rsp)
    15c5:	00 00 
    15c7:	48 89 44 24 18       	mov    %rax,0x18(%rsp)
    15cc:	48 8d 44 24 10       	lea    0x10(%rsp),%rax
    15d1:	48 89 04 24          	mov    %rax,(%rsp)
    15d5:	e8 ce fc ff ff       	callq  12a8 <_init+0x70>
    15da:	48 8d 3d 5f 0a 20 00 	lea    0x200a5f(%rip),%rdi        # 202040 <_ZZ10get_moduleE11myExtension>
    15e1:	e8 f2 fc ff ff       	callq  12d8 <_init+0xa0>
    15e6:	48 83 c4 40          	add    $0x40,%rsp
    15ea:	5b                   	pop    %rbx
    15eb:	c3                   	retq   
    15ec:	0f 1f 40 00          	nopl   0x0(%rax)
    15f0:	48 8d 15 b9 01 00 00 	lea    0x1b9(%rip),%rdx        # 17b0 <_fini+0x10>
    15f7:	48 8d 35 b6 01 00 00 	lea    0x1b6(%rip),%rsi        # 17b4 <_fini+0x14>
    15fe:	48 8d 3d 3b 0a 20 00 	lea    0x200a3b(%rip),%rdi        # 202040 <_ZZ10get_moduleE11myExtension>
    1605:	b9 6e 77 33 01       	mov    $0x133776e,%ecx
    160a:	e8 01 fd ff ff       	callq  1310 <_init+0xd8>
    160f:	48 8d 3d ba 0a 20 00 	lea    0x200aba(%rip),%rdi        # 2020d0 <_ZGVZ10get_moduleE11myExtension>
    1616:	e8 9d fc ff ff       	callq  12b8 <_init+0x80>
    161b:	48 8b 3d 46 09 20 00 	mov    0x200946(%rip),%rdi        # 201f68 <_GLOBAL_OFFSET_TABLE_+0x90>
    1622:	48 8d 15 d7 09 20 00 	lea    0x2009d7(%rip),%rdx        # 202000 <__dso_handle>
    1629:	48 8d 35 10 0a 20 00 	lea    0x200a10(%rip),%rsi        # 202040 <_ZZ10get_moduleE11myExtension>
    1630:	e8 9b fc ff ff       	callq  12d0 <_init+0x98>
    1635:	e9 38 ff ff ff       	jmpq   1572 <get_module+0x22>
    163a:	48 8d 3d 8f 0a 20 00 	lea    0x200a8f(%rip),%rdi        # 2020d0 <_ZGVZ10get_moduleE11myExtension>
    1641:	48 89 c3             	mov    %rax,%rbx
    1644:	e8 67 fc ff ff       	callq  12b0 <_init+0x78>
    1649:	48 89 df             	mov    %rbx,%rdi
    164c:	e8 d7 fc ff ff       	callq  1328 <_init+0xf0>
    1651:	66 2e 0f 1f 84 00 00 	nopw   %cs:0x0(%rax,%rax,1)
    1658:	00 00 00 
    165b:	0f 1f 44 00 00       	nopl   0x0(%rax,%rax,1)

0000000000001660 <_ZN3Php8ArgumentD1Ev>:
    1660:	f3 c3                	repz retq 
    1662:	66 2e 0f 1f 84 00 00 	nopw   %cs:0x0(%rax,%rax,1)
    1669:	00 00 00 
    166c:	0f 1f 40 00          	nopl   0x0(%rax)

0000000000001670 <_ZN3Php8ArgumentD0Ev>:
    1670:	e9 6b fc ff ff       	jmpq   12e0 <_init+0xa8>
    1675:	66 2e 0f 1f 84 00 00 	nopw   %cs:0x0(%rax,%rax,1)
    167c:	00 00 00 
    167f:	90                   	nop

0000000000001680 <_ZN3Php12ZendCallable6invokeIXadL_Z7shellmeRNS_10ParametersEEEEEvP18_zend_execute_dataP12_zval_struct>:
    1680:	41 54                	push   %r12
    1682:	55                   	push   %rbp
    1683:	48 89 fd             	mov    %rdi,%rbp
    1686:	53                   	push   %rbx
    1687:	48 89 f3             	mov    %rsi,%rbx
    168a:	48 83 ec 50          	sub    $0x50,%rsp
    168e:	64 48 8b 04 25 28 00 	mov    %fs:0x28,%rax
    1695:	00 00 
    1697:	48 89 44 24 48       	mov    %rax,0x48(%rsp)
    169c:	31 c0                	xor    %eax,%eax
    169e:	e8 75 fc ff ff       	callq  1318 <_init+0xe0>
    16a3:	84 c0                	test   %al,%al
    16a5:	75 19                	jne    16c0 <_ZN3Php12ZendCallable6invokeIXadL_Z7shellmeRNS_10ParametersEEEEEvP18_zend_execute_dataP12_zval_struct+0x40>
    16a7:	48 8b 44 24 48       	mov    0x48(%rsp),%rax
    16ac:	64 48 33 04 25 28 00 	xor    %fs:0x28,%rax
    16b3:	00 00 
    16b5:	75 6d                	jne    1724 <_ZN3Php12ZendCallable6invokeIXadL_Z7shellmeRNS_10ParametersEEEEEvP18_zend_execute_dataP12_zval_struct+0xa4>
    16b7:	48 83 c4 50          	add    $0x50,%rsp
    16bb:	5b                   	pop    %rbx
    16bc:	5d                   	pop    %rbp
    16bd:	41 5c                	pop    %r12
    16bf:	c3                   	retq   
    16c0:	48 89 ee             	mov    %rbp,%rsi
    16c3:	48 8d 6c 24 20       	lea    0x20(%rsp),%rbp
    16c8:	48 89 e7             	mov    %rsp,%rdi
    16cb:	e8 a8 fb ff ff       	callq  1278 <_init+0x40>
    16d0:	48 89 e6             	mov    %rsp,%rsi
    16d3:	48 89 ef             	mov    %rbp,%rdi
    16d6:	e8 15 fc ff ff       	callq  12f0 <_init+0xb8>
    16db:	48 89 ee             	mov    %rbp,%rsi
    16de:	48 89 df             	mov    %rbx,%rdi
    16e1:	e8 9a fb ff ff       	callq  1280 <_init+0x48>
    16e6:	48 89 ef             	mov    %rbp,%rdi
    16e9:	e8 82 fb ff ff       	callq  1270 <_init+0x38>
    16ee:	48 8b 6c 24 08       	mov    0x8(%rsp),%rbp
    16f3:	48 8b 1c 24          	mov    (%rsp),%rbx
    16f7:	48 39 dd             	cmp    %rbx,%rbp
    16fa:	74 19                	je     1715 <_ZN3Php12ZendCallable6invokeIXadL_Z7shellmeRNS_10ParametersEEEEEvP18_zend_execute_dataP12_zval_struct+0x95>
    16fc:	0f 1f 40 00          	nopl   0x0(%rax)
    1700:	48 8b 03             	mov    (%rbx),%rax
    1703:	48 89 df             	mov    %rbx,%rdi
    1706:	48 83 c3 20          	add    $0x20,%rbx
    170a:	ff 10                	callq  *(%rax)
    170c:	48 39 dd             	cmp    %rbx,%rbp
    170f:	75 ef                	jne    1700 <_ZN3Php12ZendCallable6invokeIXadL_Z7shellmeRNS_10ParametersEEEEEvP18_zend_execute_dataP12_zval_struct+0x80>
    1711:	48 8b 2c 24          	mov    (%rsp),%rbp
    1715:	48 85 ed             	test   %rbp,%rbp
    1718:	74 8d                	je     16a7 <_ZN3Php12ZendCallable6invokeIXadL_Z7shellmeRNS_10ParametersEEEEEvP18_zend_execute_dataP12_zval_struct+0x27>
    171a:	48 89 ef             	mov    %rbp,%rdi
    171d:	e8 be fb ff ff       	callq  12e0 <_init+0xa8>
    1722:	eb 83                	jmp    16a7 <_ZN3Php12ZendCallable6invokeIXadL_Z7shellmeRNS_10ParametersEEEEEvP18_zend_execute_dataP12_zval_struct+0x27>
    1724:	e8 bf fb ff ff       	callq  12e8 <_init+0xb0>
    1729:	eb 14                	jmp    173f <_ZN3Php12ZendCallable6invokeIXadL_Z7shellmeRNS_10ParametersEEEEEvP18_zend_execute_dataP12_zval_struct+0xbf>
    172b:	48 89 c3             	mov    %rax,%rbx
    172e:	49 89 d4             	mov    %rdx,%r12
    1731:	48 89 ef             	mov    %rbp,%rdi
    1734:	e8 37 fb ff ff       	callq  1270 <_init+0x38>
    1739:	48 89 d8             	mov    %rbx,%rax
    173c:	4c 89 e2             	mov    %r12,%rdx
    173f:	48 83 ea 01          	sub    $0x1,%rdx
    1743:	48 89 c3             	mov    %rax,%rbx
    1746:	75 24                	jne    176c <_ZN3Php12ZendCallable6invokeIXadL_Z7shellmeRNS_10ParametersEEEEEvP18_zend_execute_dataP12_zval_struct+0xec>
    1748:	48 89 c7             	mov    %rax,%rdi
    174b:	e8 38 fb ff ff       	callq  1288 <_init+0x50>
    1750:	48 89 c7             	mov    %rax,%rdi
    1753:	e8 a8 fb ff ff       	callq  1300 <_init+0xc8>
    1758:	e8 c3 fb ff ff       	callq  1320 <_init+0xe8>
    175d:	eb 8f                	jmp    16ee <_ZN3Php12ZendCallable6invokeIXadL_Z7shellmeRNS_10ParametersEEEEEvP18_zend_execute_dataP12_zval_struct+0x6e>
    175f:	48 89 c3             	mov    %rax,%rbx
    1762:	eb 08                	jmp    176c <_ZN3Php12ZendCallable6invokeIXadL_Z7shellmeRNS_10ParametersEEEEEvP18_zend_execute_dataP12_zval_struct+0xec>
    1764:	48 89 c3             	mov    %rax,%rbx
    1767:	e8 b4 fb ff ff       	callq  1320 <_init+0xe8>
    176c:	4c 8b 64 24 08       	mov    0x8(%rsp),%r12
    1771:	48 8b 2c 24          	mov    (%rsp),%rbp
    1775:	49 39 ec             	cmp    %rbp,%r12
    1778:	74 0f                	je     1789 <_ZN3Php12ZendCallable6invokeIXadL_Z7shellmeRNS_10ParametersEEEEEvP18_zend_execute_dataP12_zval_struct+0x109>
    177a:	48 8b 45 00          	mov    0x0(%rbp),%rax
    177e:	48 89 ef             	mov    %rbp,%rdi
    1781:	48 83 c5 20          	add    $0x20,%rbp
    1785:	ff 10                	callq  *(%rax)
    1787:	eb ec                	jmp    1775 <_ZN3Php12ZendCallable6invokeIXadL_Z7shellmeRNS_10ParametersEEEEEvP18_zend_execute_dataP12_zval_struct+0xf5>
    1789:	48 8b 3c 24          	mov    (%rsp),%rdi
    178d:	48 85 ff             	test   %rdi,%rdi
    1790:	74 05                	je     1797 <_ZN3Php12ZendCallable6invokeIXadL_Z7shellmeRNS_10ParametersEEEEEvP18_zend_execute_dataP12_zval_struct+0x117>
    1792:	e8 49 fb ff ff       	callq  12e0 <_init+0xa8>
    1797:	48 89 df             	mov    %rbx,%rdi
    179a:	e8 89 fb ff ff       	callq  1328 <_init+0xf0>

Disassembly of section .fini:

00000000000017a0 <_fini>:
    17a0:	48 83 ec 08          	sub    $0x8,%rsp
    17a4:	48 83 c4 08          	add    $0x8,%rsp
    17a8:	c3                   	retq   
