
memsom:     file format elf64-x86-64


Disassembly of section .init:

0000000000001cd8 <.init>:
    1cd8:	48 83 ec 08          	sub    $0x8,%rsp
    1cdc:	48 8b 05 05 83 20 00 	mov    0x208305(%rip),%rax        # 209fe8 <_ZTISt16invalid_argument@@GLIBCXX_3.4+0x478>
    1ce3:	48 85 c0             	test   %rax,%rax
    1ce6:	74 02                	je     1cea <isspace@plt-0x16>
    1ce8:	ff d0                	callq  *%rax
    1cea:	48 83 c4 08          	add    $0x8,%rsp
    1cee:	c3                   	retq   

Disassembly of section .plt:

0000000000001cf0 <isspace@plt-0x10>:
    1cf0:	ff 35 ba 80 20 00    	pushq  0x2080ba(%rip)        # 209db0 <_ZTISt16invalid_argument@@GLIBCXX_3.4+0x240>
    1cf6:	ff 25 bc 80 20 00    	jmpq   *0x2080bc(%rip)        # 209db8 <_ZTISt16invalid_argument@@GLIBCXX_3.4+0x248>
    1cfc:	0f 1f 40 00          	nopl   0x0(%rax)

0000000000001d00 <isspace@plt>:
    1d00:	ff 25 ba 80 20 00    	jmpq   *0x2080ba(%rip)        # 209dc0 <_ZTISt16invalid_argument@@GLIBCXX_3.4+0x250>
    1d06:	68 00 00 00 00       	pushq  $0x0
    1d0b:	e9 e0 ff ff ff       	jmpq   1cf0 <isspace@plt-0x10>

0000000000001d10 <BIO_set_flags@plt>:
    1d10:	ff 25 b2 80 20 00    	jmpq   *0x2080b2(%rip)        # 209dc8 <_ZTISt16invalid_argument@@GLIBCXX_3.4+0x258>
    1d16:	68 01 00 00 00       	pushq  $0x1
    1d1b:	e9 d0 ff ff ff       	jmpq   1cf0 <isspace@plt-0x10>

0000000000001d20 <sprintf@plt>:
    1d20:	ff 25 aa 80 20 00    	jmpq   *0x2080aa(%rip)        # 209dd0 <_ZTISt16invalid_argument@@GLIBCXX_3.4+0x260>
    1d26:	68 02 00 00 00       	pushq  $0x2
    1d2b:	e9 c0 ff ff ff       	jmpq   1cf0 <isspace@plt-0x10>

0000000000001d30 <_ZSt7getlineIcSt11char_traitsIcESaIcEERSt13basic_istreamIT_T0_ES7_RNSt7__cxx1112basic_stringIS4_S5_T1_EE@plt>:
    1d30:	ff 25 a2 80 20 00    	jmpq   *0x2080a2(%rip)        # 209dd8 <_ZTISt16invalid_argument@@GLIBCXX_3.4+0x268>
    1d36:	68 03 00 00 00       	pushq  $0x3
    1d3b:	e9 b0 ff ff ff       	jmpq   1cf0 <isspace@plt-0x10>

0000000000001d40 <_ZNSt14basic_ifstreamIcSt11char_traitsIcEE5closeEv@plt>:
    1d40:	ff 25 9a 80 20 00    	jmpq   *0x20809a(%rip)        # 209de0 <_ZTISt16invalid_argument@@GLIBCXX_3.4+0x270>
    1d46:	68 04 00 00 00       	pushq  $0x4
    1d4b:	e9 a0 ff ff ff       	jmpq   1cf0 <isspace@plt-0x10>

0000000000001d50 <strstr@plt>:
    1d50:	ff 25 92 80 20 00    	jmpq   *0x208092(%rip)        # 209de8 <_ZTISt16invalid_argument@@GLIBCXX_3.4+0x278>
    1d56:	68 05 00 00 00       	pushq  $0x5
    1d5b:	e9 90 ff ff ff       	jmpq   1cf0 <isspace@plt-0x10>

0000000000001d60 <_ZNSt14basic_ifstreamIcSt11char_traitsIcEED1Ev@plt>:
    1d60:	ff 25 8a 80 20 00    	jmpq   *0x20808a(%rip)        # 209df0 <_ZTISt16invalid_argument@@GLIBCXX_3.4+0x280>
    1d66:	68 06 00 00 00       	pushq  $0x6
    1d6b:	e9 80 ff ff ff       	jmpq   1cf0 <isspace@plt-0x10>

0000000000001d70 <BIO_push@plt>:
    1d70:	ff 25 82 80 20 00    	jmpq   *0x208082(%rip)        # 209df8 <_ZTISt16invalid_argument@@GLIBCXX_3.4+0x288>
    1d76:	68 07 00 00 00       	pushq  $0x7
    1d7b:	e9 70 ff ff ff       	jmpq   1cf0 <isspace@plt-0x10>

0000000000001d80 <_ZNKSt7__cxx1112basic_stringIcSt11char_traitsIcESaIcEE5c_strEv@plt>:
    1d80:	ff 25 7a 80 20 00    	jmpq   *0x20807a(%rip)        # 209e00 <_ZTISt16invalid_argument@@GLIBCXX_3.4+0x290>
    1d86:	68 08 00 00 00       	pushq  $0x8
    1d8b:	e9 60 ff ff ff       	jmpq   1cf0 <isspace@plt-0x10>

0000000000001d90 <_ZSt9use_facetISt5ctypeIcEERKT_RKSt6locale@plt>:
    1d90:	ff 25 72 80 20 00    	jmpq   *0x208072(%rip)        # 209e08 <_ZTISt16invalid_argument@@GLIBCXX_3.4+0x298>
    1d96:	68 09 00 00 00       	pushq  $0x9
    1d9b:	e9 50 ff ff ff       	jmpq   1cf0 <isspace@plt-0x10>

0000000000001da0 <_ZNSt7__cxx1112basic_stringIcSt11char_traitsIcESaIcEEC1ERKS4_@plt>:
    1da0:	ff 25 6a 80 20 00    	jmpq   *0x20806a(%rip)        # 209e10 <_ZTISt16invalid_argument@@GLIBCXX_3.4+0x2a0>
    1da6:	68 0a 00 00 00       	pushq  $0xa
    1dab:	e9 40 ff ff ff       	jmpq   1cf0 <isspace@plt-0x10>

0000000000001db0 <memcmp@plt>:
    1db0:	ff 25 62 80 20 00    	jmpq   *0x208062(%rip)        # 209e18 <_ZTISt16invalid_argument@@GLIBCXX_3.4+0x2a8>
    1db6:	68 0b 00 00 00       	pushq  $0xb
    1dbb:	e9 30 ff ff ff       	jmpq   1cf0 <isspace@plt-0x10>

0000000000001dc0 <__cxa_allocate_exception@plt>:
    1dc0:	ff 25 5a 80 20 00    	jmpq   *0x20805a(%rip)        # 209e20 <_ZTISt16invalid_argument@@GLIBCXX_3.4+0x2b0>
    1dc6:	68 0c 00 00 00       	pushq  $0xc
    1dcb:	e9 20 ff ff ff       	jmpq   1cf0 <isspace@plt-0x10>

0000000000001dd0 <BIO_free_all@plt>:
    1dd0:	ff 25 52 80 20 00    	jmpq   *0x208052(%rip)        # 209e28 <_ZTISt16invalid_argument@@GLIBCXX_3.4+0x2b8>
    1dd6:	68 0d 00 00 00       	pushq  $0xd
    1ddb:	e9 10 ff ff ff       	jmpq   1cf0 <isspace@plt-0x10>

0000000000001de0 <memset@plt>:
    1de0:	ff 25 4a 80 20 00    	jmpq   *0x20804a(%rip)        # 209e30 <_ZTISt16invalid_argument@@GLIBCXX_3.4+0x2c0>
    1de6:	68 0e 00 00 00       	pushq  $0xe
    1deb:	e9 00 ff ff ff       	jmpq   1cf0 <isspace@plt-0x10>

0000000000001df0 <_ZNSt7__cxx1112basic_stringIcSt11char_traitsIcESaIcEE3endEv@plt>:
    1df0:	ff 25 42 80 20 00    	jmpq   *0x208042(%rip)        # 209e38 <_ZTISt16invalid_argument@@GLIBCXX_3.4+0x2c8>
    1df6:	68 0f 00 00 00       	pushq  $0xf
    1dfb:	e9 f0 fe ff ff       	jmpq   1cf0 <isspace@plt-0x10>

0000000000001e00 <_ZNSt7__cxx1112basic_stringIcSt11char_traitsIcESaIcEED1Ev@plt>:
    1e00:	ff 25 3a 80 20 00    	jmpq   *0x20803a(%rip)        # 209e40 <_ZTISt16invalid_argument@@GLIBCXX_3.4+0x2d0>
    1e06:	68 10 00 00 00       	pushq  $0x10
    1e0b:	e9 e0 fe ff ff       	jmpq   1cf0 <isspace@plt-0x10>

0000000000001e10 <_ZNSt7__cxx1112basic_stringIcSt11char_traitsIcESaIcEEC1EmcRKS3_@plt>:
    1e10:	ff 25 32 80 20 00    	jmpq   *0x208032(%rip)        # 209e48 <_ZTISt16invalid_argument@@GLIBCXX_3.4+0x2d8>
    1e16:	68 11 00 00 00       	pushq  $0x11
    1e1b:	e9 d0 fe ff ff       	jmpq   1cf0 <isspace@plt-0x10>

0000000000001e20 <_ZNKSt7__cxx1112basic_stringIcSt11char_traitsIcESaIcEE4sizeEv@plt>:
    1e20:	ff 25 2a 80 20 00    	jmpq   *0x20802a(%rip)        # 209e50 <_ZTISt16invalid_argument@@GLIBCXX_3.4+0x2e0>
    1e26:	68 12 00 00 00       	pushq  $0x12
    1e2b:	e9 c0 fe ff ff       	jmpq   1cf0 <isspace@plt-0x10>

0000000000001e30 <__cxa_free_exception@plt>:
    1e30:	ff 25 22 80 20 00    	jmpq   *0x208022(%rip)        # 209e58 <_ZTISt16invalid_argument@@GLIBCXX_3.4+0x2e8>
    1e36:	68 13 00 00 00       	pushq  $0x13
    1e3b:	e9 b0 fe ff ff       	jmpq   1cf0 <isspace@plt-0x10>

0000000000001e40 <open@plt>:
    1e40:	ff 25 1a 80 20 00    	jmpq   *0x20801a(%rip)        # 209e60 <_ZTISt16invalid_argument@@GLIBCXX_3.4+0x2f0>
    1e46:	68 14 00 00 00       	pushq  $0x14
    1e4b:	e9 a0 fe ff ff       	jmpq   1cf0 <isspace@plt-0x10>

0000000000001e50 <memcpy@plt>:
    1e50:	ff 25 12 80 20 00    	jmpq   *0x208012(%rip)        # 209e68 <_ZTISt16invalid_argument@@GLIBCXX_3.4+0x2f8>
    1e56:	68 15 00 00 00       	pushq  $0x15
    1e5b:	e9 90 fe ff ff       	jmpq   1cf0 <isspace@plt-0x10>

0000000000001e60 <ptrace@plt>:
    1e60:	ff 25 0a 80 20 00    	jmpq   *0x20800a(%rip)        # 209e70 <_ZTISt16invalid_argument@@GLIBCXX_3.4+0x300>
    1e66:	68 16 00 00 00       	pushq  $0x16
    1e6b:	e9 80 fe ff ff       	jmpq   1cf0 <isspace@plt-0x10>

0000000000001e70 <_ZNSt7__cxx1112basic_stringIcSt11char_traitsIcESaIcEE9push_backEc@plt>:
    1e70:	ff 25 02 80 20 00    	jmpq   *0x208002(%rip)        # 209e78 <_ZTISt16invalid_argument@@GLIBCXX_3.4+0x308>
    1e76:	68 17 00 00 00       	pushq  $0x17
    1e7b:	e9 70 fe ff ff       	jmpq   1cf0 <isspace@plt-0x10>

0000000000001e80 <_ZNSt7__cxx1112basic_stringIcSt11char_traitsIcESaIcEE5beginEv@plt>:
    1e80:	ff 25 fa 7f 20 00    	jmpq   *0x207ffa(%rip)        # 209e80 <_ZTISt16invalid_argument@@GLIBCXX_3.4+0x310>
    1e86:	68 18 00 00 00       	pushq  $0x18
    1e8b:	e9 60 fe ff ff       	jmpq   1cf0 <isspace@plt-0x10>

0000000000001e90 <__cxa_atexit@plt>:
    1e90:	ff 25 f2 7f 20 00    	jmpq   *0x207ff2(%rip)        # 209e88 <_ZTISt16invalid_argument@@GLIBCXX_3.4+0x318>
    1e96:	68 19 00 00 00       	pushq  $0x19
    1e9b:	e9 50 fe ff ff       	jmpq   1cf0 <isspace@plt-0x10>

0000000000001ea0 <_ZStlsIcSt11char_traitsIcESaIcEERSt13basic_ostreamIT_T0_ES7_RKNSt7__cxx1112basic_stringIS4_S5_T1_EE@plt>:
    1ea0:	ff 25 ea 7f 20 00    	jmpq   *0x207fea(%rip)        # 209e90 <_ZTISt16invalid_argument@@GLIBCXX_3.4+0x320>
    1ea6:	68 1a 00 00 00       	pushq  $0x1a
    1eab:	e9 40 fe ff ff       	jmpq   1cf0 <isspace@plt-0x10>

0000000000001eb0 <BIO_new_mem_buf@plt>:
    1eb0:	ff 25 e2 7f 20 00    	jmpq   *0x207fe2(%rip)        # 209e98 <_ZTISt16invalid_argument@@GLIBCXX_3.4+0x328>
    1eb6:	68 1b 00 00 00       	pushq  $0x1b
    1ebb:	e9 30 fe ff ff       	jmpq   1cf0 <isspace@plt-0x10>

0000000000001ec0 <_ZStlsISt11char_traitsIcEERSt13basic_ostreamIcT_ES5_PKc@plt>:
    1ec0:	ff 25 da 7f 20 00    	jmpq   *0x207fda(%rip)        # 209ea0 <_ZTISt16invalid_argument@@GLIBCXX_3.4+0x330>
    1ec6:	68 1c 00 00 00       	pushq  $0x1c
    1ecb:	e9 20 fe ff ff       	jmpq   1cf0 <isspace@plt-0x10>

0000000000001ed0 <_ZNSolsEPFRSoS_E@plt>:
    1ed0:	ff 25 d2 7f 20 00    	jmpq   *0x207fd2(%rip)        # 209ea8 <_ZTISt16invalid_argument@@GLIBCXX_3.4+0x338>
    1ed6:	68 1d 00 00 00       	pushq  $0x1d
    1edb:	e9 10 fe ff ff       	jmpq   1cf0 <isspace@plt-0x10>

0000000000001ee0 <_ZNSt7__cxx1112basic_stringIcSt11char_traitsIcESaIcEE6appendEmc@plt>:
    1ee0:	ff 25 ca 7f 20 00    	jmpq   *0x207fca(%rip)        # 209eb0 <_ZTISt16invalid_argument@@GLIBCXX_3.4+0x340>
    1ee6:	68 1e 00 00 00       	pushq  $0x1e
    1eeb:	e9 00 fe ff ff       	jmpq   1cf0 <isspace@plt-0x10>

0000000000001ef0 <_ZNSaIcED1Ev@plt>:
    1ef0:	ff 25 c2 7f 20 00    	jmpq   *0x207fc2(%rip)        # 209eb8 <_ZTISt16invalid_argument@@GLIBCXX_3.4+0x348>
    1ef6:	68 1f 00 00 00       	pushq  $0x1f
    1efb:	e9 f0 fd ff ff       	jmpq   1cf0 <isspace@plt-0x10>

0000000000001f00 <_ZNKSt7__cxx1112basic_stringIcSt11char_traitsIcESaIcEEixEm@plt>:
    1f00:	ff 25 ba 7f 20 00    	jmpq   *0x207fba(%rip)        # 209ec0 <_ZTISt16invalid_argument@@GLIBCXX_3.4+0x350>
    1f06:	68 20 00 00 00       	pushq  $0x20
    1f0b:	e9 e0 fd ff ff       	jmpq   1cf0 <isspace@plt-0x10>

0000000000001f10 <__stack_chk_fail@plt>:
    1f10:	ff 25 b2 7f 20 00    	jmpq   *0x207fb2(%rip)        # 209ec8 <_ZTISt16invalid_argument@@GLIBCXX_3.4+0x358>
    1f16:	68 21 00 00 00       	pushq  $0x21
    1f1b:	e9 d0 fd ff ff       	jmpq   1cf0 <isspace@plt-0x10>

0000000000001f20 <BIO_ctrl@plt>:
    1f20:	ff 25 aa 7f 20 00    	jmpq   *0x207faa(%rip)        # 209ed0 <_ZTISt16invalid_argument@@GLIBCXX_3.4+0x360>
    1f26:	68 22 00 00 00       	pushq  $0x22
    1f2b:	e9 c0 fd ff ff       	jmpq   1cf0 <isspace@plt-0x10>

0000000000001f30 <_ZNSt7__cxx1112basic_stringIcSt11char_traitsIcESaIcEEC1EPKcmRKS3_@plt>:
    1f30:	ff 25 a2 7f 20 00    	jmpq   *0x207fa2(%rip)        # 209ed8 <_ZTISt16invalid_argument@@GLIBCXX_3.4+0x368>
    1f36:	68 23 00 00 00       	pushq  $0x23
    1f3b:	e9 b0 fd ff ff       	jmpq   1cf0 <isspace@plt-0x10>

0000000000001f40 <_ZStlsISt11char_traitsIcEERSt13basic_ostreamIcT_ES5_c@plt>:
    1f40:	ff 25 9a 7f 20 00    	jmpq   *0x207f9a(%rip)        # 209ee0 <_ZTISt16invalid_argument@@GLIBCXX_3.4+0x370>
    1f46:	68 24 00 00 00       	pushq  $0x24
    1f4b:	e9 a0 fd ff ff       	jmpq   1cf0 <isspace@plt-0x10>

0000000000001f50 <exit@plt>:
    1f50:	ff 25 92 7f 20 00    	jmpq   *0x207f92(%rip)        # 209ee8 <_ZTISt16invalid_argument@@GLIBCXX_3.4+0x378>
    1f56:	68 25 00 00 00       	pushq  $0x25
    1f5b:	e9 90 fd ff ff       	jmpq   1cf0 <isspace@plt-0x10>

0000000000001f60 <_ZNSt7__cxx1112basic_stringIcSt11char_traitsIcESaIcEEaSEOS4_@plt>:
    1f60:	ff 25 8a 7f 20 00    	jmpq   *0x207f8a(%rip)        # 209ef0 <_ZTISt16invalid_argument@@GLIBCXX_3.4+0x380>
    1f66:	68 26 00 00 00       	pushq  $0x26
    1f6b:	e9 80 fd ff ff       	jmpq   1cf0 <isspace@plt-0x10>

0000000000001f70 <_ZNKSt7__cxx1112basic_stringIcSt11char_traitsIcESaIcEE4dataEv@plt>:
    1f70:	ff 25 82 7f 20 00    	jmpq   *0x207f82(%rip)        # 209ef8 <_ZTISt16invalid_argument@@GLIBCXX_3.4+0x388>
    1f76:	68 27 00 00 00       	pushq  $0x27
    1f7b:	e9 70 fd ff ff       	jmpq   1cf0 <isspace@plt-0x10>

0000000000001f80 <BIO_new@plt>:
    1f80:	ff 25 7a 7f 20 00    	jmpq   *0x207f7a(%rip)        # 209f00 <_ZTISt16invalid_argument@@GLIBCXX_3.4+0x390>
    1f86:	68 28 00 00 00       	pushq  $0x28
    1f8b:	e9 60 fd ff ff       	jmpq   1cf0 <isspace@plt-0x10>

0000000000001f90 <_ZNSt7__cxx1112basic_stringIcSt11char_traitsIcESaIcEEC1EPKcRKS3_@plt>:
    1f90:	ff 25 72 7f 20 00    	jmpq   *0x207f72(%rip)        # 209f08 <_ZTISt16invalid_argument@@GLIBCXX_3.4+0x398>
    1f96:	68 29 00 00 00       	pushq  $0x29
    1f9b:	e9 50 fd ff ff       	jmpq   1cf0 <isspace@plt-0x10>

0000000000001fa0 <_ZNSt7__cxx1112basic_stringIcSt11char_traitsIcESaIcEEC1Ev@plt>:
    1fa0:	ff 25 6a 7f 20 00    	jmpq   *0x207f6a(%rip)        # 209f10 <_ZTISt16invalid_argument@@GLIBCXX_3.4+0x3a0>
    1fa6:	68 2a 00 00 00       	pushq  $0x2a
    1fab:	e9 40 fd ff ff       	jmpq   1cf0 <isspace@plt-0x10>

0000000000001fb0 <_ZNSt6localeD1Ev@plt>:
    1fb0:	ff 25 62 7f 20 00    	jmpq   *0x207f62(%rip)        # 209f18 <_ZTISt16invalid_argument@@GLIBCXX_3.4+0x3a8>
    1fb6:	68 2b 00 00 00       	pushq  $0x2b
    1fbb:	e9 30 fd ff ff       	jmpq   1cf0 <isspace@plt-0x10>

0000000000001fc0 <read@plt>:
    1fc0:	ff 25 5a 7f 20 00    	jmpq   *0x207f5a(%rip)        # 209f20 <_ZTISt16invalid_argument@@GLIBCXX_3.4+0x3b0>
    1fc6:	68 2c 00 00 00       	pushq  $0x2c
    1fcb:	e9 20 fd ff ff       	jmpq   1cf0 <isspace@plt-0x10>

0000000000001fd0 <tolower@plt>:
    1fd0:	ff 25 52 7f 20 00    	jmpq   *0x207f52(%rip)        # 209f28 <_ZTISt16invalid_argument@@GLIBCXX_3.4+0x3b8>
    1fd6:	68 2d 00 00 00       	pushq  $0x2d
    1fdb:	e9 10 fd ff ff       	jmpq   1cf0 <isspace@plt-0x10>

0000000000001fe0 <BIO_write@plt>:
    1fe0:	ff 25 4a 7f 20 00    	jmpq   *0x207f4a(%rip)        # 209f30 <_ZTISt16invalid_argument@@GLIBCXX_3.4+0x3c0>
    1fe6:	68 2e 00 00 00       	pushq  $0x2e
    1feb:	e9 00 fd ff ff       	jmpq   1cf0 <isspace@plt-0x10>

0000000000001ff0 <_ZNKSt7__cxx1112basic_stringIcSt11char_traitsIcESaIcEE6lengthEv@plt>:
    1ff0:	ff 25 42 7f 20 00    	jmpq   *0x207f42(%rip)        # 209f38 <_ZTISt16invalid_argument@@GLIBCXX_3.4+0x3c8>
    1ff6:	68 2f 00 00 00       	pushq  $0x2f
    1ffb:	e9 f0 fc ff ff       	jmpq   1cf0 <isspace@plt-0x10>

0000000000002000 <BIO_read@plt>:
    2000:	ff 25 3a 7f 20 00    	jmpq   *0x207f3a(%rip)        # 209f40 <_ZTISt16invalid_argument@@GLIBCXX_3.4+0x3d0>
    2006:	68 30 00 00 00       	pushq  $0x30
    200b:	e9 e0 fc ff ff       	jmpq   1cf0 <isspace@plt-0x10>

0000000000002010 <_ZNSt8ios_base4InitC1Ev@plt>:
    2010:	ff 25 32 7f 20 00    	jmpq   *0x207f32(%rip)        # 209f48 <_ZTISt16invalid_argument@@GLIBCXX_3.4+0x3d8>
    2016:	68 31 00 00 00       	pushq  $0x31
    201b:	e9 d0 fc ff ff       	jmpq   1cf0 <isspace@plt-0x10>

0000000000002020 <puts@plt>:
    2020:	ff 25 2a 7f 20 00    	jmpq   *0x207f2a(%rip)        # 209f50 <_ZTISt16invalid_argument@@GLIBCXX_3.4+0x3e0>
    2026:	68 32 00 00 00       	pushq  $0x32
    202b:	e9 c0 fc ff ff       	jmpq   1cf0 <isspace@plt-0x10>

0000000000002030 <_ZNSt7__cxx1112basic_stringIcSt11char_traitsIcESaIcEE7reserveEm@plt>:
    2030:	ff 25 22 7f 20 00    	jmpq   *0x207f22(%rip)        # 209f58 <_ZTISt16invalid_argument@@GLIBCXX_3.4+0x3e8>
    2036:	68 33 00 00 00       	pushq  $0x33
    203b:	e9 b0 fc ff ff       	jmpq   1cf0 <isspace@plt-0x10>

0000000000002040 <BIO_s_mem@plt>:
    2040:	ff 25 1a 7f 20 00    	jmpq   *0x207f1a(%rip)        # 209f60 <_ZTISt16invalid_argument@@GLIBCXX_3.4+0x3f0>
    2046:	68 34 00 00 00       	pushq  $0x34
    204b:	e9 a0 fc ff ff       	jmpq   1cf0 <isspace@plt-0x10>

0000000000002050 <_ZNSt14basic_ifstreamIcSt11char_traitsIcEE7is_openEv@plt>:
    2050:	ff 25 12 7f 20 00    	jmpq   *0x207f12(%rip)        # 209f68 <_ZTISt16invalid_argument@@GLIBCXX_3.4+0x3f8>
    2056:	68 35 00 00 00       	pushq  $0x35
    205b:	e9 90 fc ff ff       	jmpq   1cf0 <isspace@plt-0x10>

0000000000002060 <isalpha@plt>:
    2060:	ff 25 0a 7f 20 00    	jmpq   *0x207f0a(%rip)        # 209f70 <_ZTISt16invalid_argument@@GLIBCXX_3.4+0x400>
    2066:	68 36 00 00 00       	pushq  $0x36
    206b:	e9 80 fc ff ff       	jmpq   1cf0 <isspace@plt-0x10>

0000000000002070 <times@plt>:
    2070:	ff 25 02 7f 20 00    	jmpq   *0x207f02(%rip)        # 209f78 <_ZTISt16invalid_argument@@GLIBCXX_3.4+0x408>
    2076:	68 37 00 00 00       	pushq  $0x37
    207b:	e9 70 fc ff ff       	jmpq   1cf0 <isspace@plt-0x10>

0000000000002080 <__cxa_throw@plt>:
    2080:	ff 25 fa 7e 20 00    	jmpq   *0x207efa(%rip)        # 209f80 <_ZTISt16invalid_argument@@GLIBCXX_3.4+0x410>
    2086:	68 38 00 00 00       	pushq  $0x38
    208b:	e9 60 fc ff ff       	jmpq   1cf0 <isspace@plt-0x10>

0000000000002090 <_Unwind_Resume@plt>:
    2090:	ff 25 f2 7e 20 00    	jmpq   *0x207ef2(%rip)        # 209f88 <_ZTISt16invalid_argument@@GLIBCXX_3.4+0x418>
    2096:	68 39 00 00 00       	pushq  $0x39
    209b:	e9 50 fc ff ff       	jmpq   1cf0 <isspace@plt-0x10>

00000000000020a0 <_ZNSaIcEC1Ev@plt>:
    20a0:	ff 25 ea 7e 20 00    	jmpq   *0x207eea(%rip)        # 209f90 <_ZTISt16invalid_argument@@GLIBCXX_3.4+0x420>
    20a6:	68 3a 00 00 00       	pushq  $0x3a
    20ab:	e9 40 fc ff ff       	jmpq   1cf0 <isspace@plt-0x10>

00000000000020b0 <_ZNSt14basic_ifstreamIcSt11char_traitsIcEEC1EPKcSt13_Ios_Openmode@plt>:
    20b0:	ff 25 e2 7e 20 00    	jmpq   *0x207ee2(%rip)        # 209f98 <_ZTISt16invalid_argument@@GLIBCXX_3.4+0x428>
    20b6:	68 3b 00 00 00       	pushq  $0x3b
    20bb:	e9 30 fc ff ff       	jmpq   1cf0 <isspace@plt-0x10>

00000000000020c0 <_ZNSt16invalid_argumentC1EPKc@plt>:
    20c0:	ff 25 da 7e 20 00    	jmpq   *0x207eda(%rip)        # 209fa0 <_ZTISt16invalid_argument@@GLIBCXX_3.4+0x430>
    20c6:	68 3c 00 00 00       	pushq  $0x3c
    20cb:	e9 20 fc ff ff       	jmpq   1cf0 <isspace@plt-0x10>

00000000000020d0 <BIO_f_base64@plt>:
    20d0:	ff 25 d2 7e 20 00    	jmpq   *0x207ed2(%rip)        # 209fa8 <_ZTISt16invalid_argument@@GLIBCXX_3.4+0x438>
    20d6:	68 3d 00 00 00       	pushq  $0x3d
    20db:	e9 10 fc ff ff       	jmpq   1cf0 <isspace@plt-0x10>

00000000000020e0 <_ZNSt7__cxx1112basic_stringIcSt11char_traitsIcESaIcEEixEm@plt>:
    20e0:	ff 25 ca 7e 20 00    	jmpq   *0x207eca(%rip)        # 209fb0 <_ZTISt16invalid_argument@@GLIBCXX_3.4+0x440>
    20e6:	68 3e 00 00 00       	pushq  $0x3e
    20eb:	e9 00 fc ff ff       	jmpq   1cf0 <isspace@plt-0x10>

00000000000020f0 <_ZNSt6localeC1Ev@plt>:
    20f0:	ff 25 c2 7e 20 00    	jmpq   *0x207ec2(%rip)        # 209fb8 <_ZTISt16invalid_argument@@GLIBCXX_3.4+0x448>
    20f6:	68 3f 00 00 00       	pushq  $0x3f
    20fb:	e9 f0 fb ff ff       	jmpq   1cf0 <isspace@plt-0x10>

Disassembly of section .plt.got:

0000000000002100 <.plt.got>:
    2100:	ff 25 ba 7e 20 00    	jmpq   *0x207eba(%rip)        # 209fc0 <_ZTISt16invalid_argument@@GLIBCXX_3.4+0x450>
    2106:	66 90                	xchg   %ax,%ax

Disassembly of section .text:

0000000000002110 <.text>:
    2110:	31 ed                	xor    %ebp,%ebp
    2112:	49 89 d1             	mov    %rdx,%r9
    2115:	5e                   	pop    %rsi
    2116:	48 89 e2             	mov    %rsp,%rdx
    2119:	48 83 e4 f0          	and    $0xfffffffffffffff0,%rsp
    211d:	50                   	push   %rax
    211e:	54                   	push   %rsp
    211f:	4c 8d 05 ea 58 00 00 	lea    0x58ea(%rip),%r8        # 7a10 <_ZNSt6localeC1Ev@plt+0x5920>
    2126:	48 8d 0d 73 58 00 00 	lea    0x5873(%rip),%rcx        # 79a0 <_ZNSt6localeC1Ev@plt+0x58b0>
    212d:	48 8d 3d e7 0a 00 00 	lea    0xae7(%rip),%rdi        # 2c1b <_ZNSt6localeC1Ev@plt+0xb2b>
    2134:	ff 15 a6 7e 20 00    	callq  *0x207ea6(%rip)        # 209fe0 <_ZTISt16invalid_argument@@GLIBCXX_3.4+0x470>
    213a:	f4                   	hlt    
    213b:	0f 1f 44 00 00       	nopl   0x0(%rax,%rax,1)
    2140:	48 8d 3d 19 7f 20 00 	lea    0x207f19(%rip),%rdi        # 20a060 <_ZSt4cout@@GLIBCXX_3.4>
    2147:	55                   	push   %rbp
    2148:	48 8d 05 11 7f 20 00 	lea    0x207f11(%rip),%rax        # 20a060 <_ZSt4cout@@GLIBCXX_3.4>
    214f:	48 39 f8             	cmp    %rdi,%rax
    2152:	48 89 e5             	mov    %rsp,%rbp
    2155:	74 19                	je     2170 <_ZNSt6localeC1Ev@plt+0x80>
    2157:	48 8b 05 7a 7e 20 00 	mov    0x207e7a(%rip),%rax        # 209fd8 <_ZTISt16invalid_argument@@GLIBCXX_3.4+0x468>
    215e:	48 85 c0             	test   %rax,%rax
    2161:	74 0d                	je     2170 <_ZNSt6localeC1Ev@plt+0x80>
    2163:	5d                   	pop    %rbp
    2164:	ff e0                	jmpq   *%rax
    2166:	66 2e 0f 1f 84 00 00 	nopw   %cs:0x0(%rax,%rax,1)
    216d:	00 00 00 
    2170:	5d                   	pop    %rbp
    2171:	c3                   	retq   
    2172:	0f 1f 40 00          	nopl   0x0(%rax)
    2176:	66 2e 0f 1f 84 00 00 	nopw   %cs:0x0(%rax,%rax,1)
    217d:	00 00 00 
    2180:	48 8d 3d d9 7e 20 00 	lea    0x207ed9(%rip),%rdi        # 20a060 <_ZSt4cout@@GLIBCXX_3.4>
    2187:	48 8d 35 d2 7e 20 00 	lea    0x207ed2(%rip),%rsi        # 20a060 <_ZSt4cout@@GLIBCXX_3.4>
    218e:	55                   	push   %rbp
    218f:	48 29 fe             	sub    %rdi,%rsi
    2192:	48 89 e5             	mov    %rsp,%rbp
    2195:	48 c1 fe 03          	sar    $0x3,%rsi
    2199:	48 89 f0             	mov    %rsi,%rax
    219c:	48 c1 e8 3f          	shr    $0x3f,%rax
    21a0:	48 01 c6             	add    %rax,%rsi
    21a3:	48 d1 fe             	sar    %rsi
    21a6:	74 18                	je     21c0 <_ZNSt6localeC1Ev@plt+0xd0>
    21a8:	48 8b 05 41 7e 20 00 	mov    0x207e41(%rip),%rax        # 209ff0 <_ZTISt16invalid_argument@@GLIBCXX_3.4+0x480>
    21af:	48 85 c0             	test   %rax,%rax
    21b2:	74 0c                	je     21c0 <_ZNSt6localeC1Ev@plt+0xd0>
    21b4:	5d                   	pop    %rbp
    21b5:	ff e0                	jmpq   *%rax
    21b7:	66 0f 1f 84 00 00 00 	nopw   0x0(%rax,%rax,1)
    21be:	00 00 
    21c0:	5d                   	pop    %rbp
    21c1:	c3                   	retq   
    21c2:	0f 1f 40 00          	nopl   0x0(%rax)
    21c6:	66 2e 0f 1f 84 00 00 	nopw   %cs:0x0(%rax,%rax,1)
    21cd:	00 00 00 
    21d0:	80 3d 99 7f 20 00 00 	cmpb   $0x0,0x207f99(%rip)        # 20a170 <_ZSt4cout@@GLIBCXX_3.4+0x110>
    21d7:	75 2f                	jne    2208 <_ZNSt6localeC1Ev@plt+0x118>
    21d9:	48 83 3d df 7d 20 00 	cmpq   $0x0,0x207ddf(%rip)        # 209fc0 <_ZTISt16invalid_argument@@GLIBCXX_3.4+0x450>
    21e0:	00 
    21e1:	55                   	push   %rbp
    21e2:	48 89 e5             	mov    %rsp,%rbp
    21e5:	74 0c                	je     21f3 <_ZNSt6localeC1Ev@plt+0x103>
    21e7:	48 8b 3d 1a 7e 20 00 	mov    0x207e1a(%rip),%rdi        # 20a008 <_ZTISt16invalid_argument@@GLIBCXX_3.4+0x498>
    21ee:	e8 0d ff ff ff       	callq  2100 <_ZNSt6localeC1Ev@plt+0x10>
    21f3:	e8 48 ff ff ff       	callq  2140 <_ZNSt6localeC1Ev@plt+0x50>
    21f8:	c6 05 71 7f 20 00 01 	movb   $0x1,0x207f71(%rip)        # 20a170 <_ZSt4cout@@GLIBCXX_3.4+0x110>
    21ff:	5d                   	pop    %rbp
    2200:	c3                   	retq   
    2201:	0f 1f 80 00 00 00 00 	nopl   0x0(%rax)
    2208:	f3 c3                	repz retq 
    220a:	66 0f 1f 44 00 00    	nopw   0x0(%rax,%rax,1)
    2210:	55                   	push   %rbp
    2211:	48 89 e5             	mov    %rsp,%rbp
    2214:	5d                   	pop    %rbp
    2215:	e9 66 ff ff ff       	jmpq   2180 <_ZNSt6localeC1Ev@plt+0x90>
    221a:	53                   	push   %rbx
    221b:	48 83 ec 40          	sub    $0x40,%rsp
    221f:	48 89 7c 24 08       	mov    %rdi,0x8(%rsp)
    2224:	48 89 34 24          	mov    %rsi,(%rsp)
    2228:	64 48 8b 04 25 28 00 	mov    %fs:0x28,%rax
    222f:	00 00 
    2231:	48 89 44 24 38       	mov    %rax,0x38(%rsp)
    2236:	31 c0                	xor    %eax,%eax
    2238:	e8 93 fe ff ff       	callq  20d0 <BIO_f_base64@plt>
    223d:	48 89 c7             	mov    %rax,%rdi
    2240:	e8 3b fd ff ff       	callq  1f80 <BIO_new@plt>
    2245:	48 89 44 24 20       	mov    %rax,0x20(%rsp)
    224a:	48 8b 44 24 20       	mov    0x20(%rsp),%rax
    224f:	be 00 01 00 00       	mov    $0x100,%esi
    2254:	48 89 c7             	mov    %rax,%rdi
    2257:	e8 b4 fa ff ff       	callq  1d10 <BIO_set_flags@plt>
    225c:	e8 df fd ff ff       	callq  2040 <BIO_s_mem@plt>
    2261:	48 89 c7             	mov    %rax,%rdi
    2264:	e8 17 fd ff ff       	callq  1f80 <BIO_new@plt>
    2269:	48 89 44 24 28       	mov    %rax,0x28(%rsp)
    226e:	48 8b 44 24 28       	mov    0x28(%rsp),%rax
    2273:	be 00 01 00 00       	mov    $0x100,%esi
    2278:	48 89 c7             	mov    %rax,%rdi
    227b:	e8 90 fa ff ff       	callq  1d10 <BIO_set_flags@plt>
    2280:	48 8b 54 24 28       	mov    0x28(%rsp),%rdx
    2285:	48 8b 44 24 20       	mov    0x20(%rsp),%rax
    228a:	48 89 d6             	mov    %rdx,%rsi
    228d:	48 89 c7             	mov    %rax,%rdi
    2290:	e8 db fa ff ff       	callq  1d70 <BIO_push@plt>
    2295:	48 89 44 24 28       	mov    %rax,0x28(%rsp)
    229a:	48 8b 04 24          	mov    (%rsp),%rax
    229e:	48 89 c7             	mov    %rax,%rdi
    22a1:	e8 4a fd ff ff       	callq  1ff0 <_ZNKSt7__cxx1112basic_stringIcSt11char_traitsIcESaIcEE6lengthEv@plt>
    22a6:	89 c3                	mov    %eax,%ebx
    22a8:	48 8b 04 24          	mov    (%rsp),%rax
    22ac:	48 89 c7             	mov    %rax,%rdi
    22af:	e8 cc fa ff ff       	callq  1d80 <_ZNKSt7__cxx1112basic_stringIcSt11char_traitsIcESaIcEE5c_strEv@plt>
    22b4:	48 89 c1             	mov    %rax,%rcx
    22b7:	48 8b 44 24 28       	mov    0x28(%rsp),%rax
    22bc:	89 da                	mov    %ebx,%edx
    22be:	48 89 ce             	mov    %rcx,%rsi
    22c1:	48 89 c7             	mov    %rax,%rdi
    22c4:	e8 17 fd ff ff       	callq  1fe0 <BIO_write@plt>
    22c9:	48 8b 44 24 28       	mov    0x28(%rsp),%rax
    22ce:	b9 00 00 00 00       	mov    $0x0,%ecx
    22d3:	ba 00 00 00 00       	mov    $0x0,%edx
    22d8:	be 0b 00 00 00       	mov    $0xb,%esi
    22dd:	48 89 c7             	mov    %rax,%rdi
    22e0:	e8 3b fc ff ff       	callq  1f20 <BIO_ctrl@plt>
    22e5:	48 8d 54 24 18       	lea    0x18(%rsp),%rdx
    22ea:	48 8b 44 24 28       	mov    0x28(%rsp),%rax
    22ef:	48 89 d1             	mov    %rdx,%rcx
    22f2:	ba 00 00 00 00       	mov    $0x0,%edx
    22f7:	be 03 00 00 00       	mov    $0x3,%esi
    22fc:	48 89 c7             	mov    %rax,%rdi
    22ff:	e8 1c fc ff ff       	callq  1f20 <BIO_ctrl@plt>
    2304:	48 89 44 24 30       	mov    %rax,0x30(%rsp)
    2309:	48 8d 44 24 17       	lea    0x17(%rsp),%rax
    230e:	48 89 c7             	mov    %rax,%rdi
    2311:	e8 8a fd ff ff       	callq  20a0 <_ZNSaIcEC1Ev@plt>
    2316:	48 8b 54 24 30       	mov    0x30(%rsp),%rdx
    231b:	48 8b 74 24 18       	mov    0x18(%rsp),%rsi
    2320:	48 8d 4c 24 17       	lea    0x17(%rsp),%rcx
    2325:	48 8b 44 24 08       	mov    0x8(%rsp),%rax
    232a:	48 89 c7             	mov    %rax,%rdi
    232d:	e8 fe fb ff ff       	callq  1f30 <_ZNSt7__cxx1112basic_stringIcSt11char_traitsIcESaIcEEC1EPKcmRKS3_@plt>
    2332:	48 8d 44 24 17       	lea    0x17(%rsp),%rax
    2337:	48 89 c7             	mov    %rax,%rdi
    233a:	e8 b1 fb ff ff       	callq  1ef0 <_ZNSaIcED1Ev@plt>
    233f:	48 8b 44 24 28       	mov    0x28(%rsp),%rax
    2344:	48 89 c7             	mov    %rax,%rdi
    2347:	e8 84 fa ff ff       	callq  1dd0 <BIO_free_all@plt>
    234c:	90                   	nop
    234d:	48 8b 44 24 08       	mov    0x8(%rsp),%rax
    2352:	48 8b 5c 24 38       	mov    0x38(%rsp),%rbx
    2357:	64 48 33 1c 25 28 00 	xor    %fs:0x28,%rbx
    235e:	00 00 
    2360:	74 3d                	je     239f <_ZNSt6localeC1Ev@plt+0x2af>
    2362:	eb 36                	jmp    239a <_ZNSt6localeC1Ev@plt+0x2aa>
    2364:	48 89 c3             	mov    %rax,%rbx
    2367:	48 8d 44 24 17       	lea    0x17(%rsp),%rax
    236c:	48 89 c7             	mov    %rax,%rdi
    236f:	e8 7c fb ff ff       	callq  1ef0 <_ZNSaIcED1Ev@plt>
    2374:	48 89 d8             	mov    %rbx,%rax
    2377:	48 89 c7             	mov    %rax,%rdi
    237a:	e8 11 fd ff ff       	callq  2090 <_Unwind_Resume@plt>
    237f:	48 89 c3             	mov    %rax,%rbx
    2382:	48 8b 44 24 08       	mov    0x8(%rsp),%rax
    2387:	48 89 c7             	mov    %rax,%rdi
    238a:	e8 71 fa ff ff       	callq  1e00 <_ZNSt7__cxx1112basic_stringIcSt11char_traitsIcESaIcEED1Ev@plt>
    238f:	48 89 d8             	mov    %rbx,%rax
    2392:	48 89 c7             	mov    %rax,%rdi
    2395:	e8 f6 fc ff ff       	callq  2090 <_Unwind_Resume@plt>
    239a:	e8 71 fb ff ff       	callq  1f10 <__stack_chk_fail@plt>
    239f:	48 83 c4 40          	add    $0x40,%rsp
    23a3:	5b                   	pop    %rbx
    23a4:	c3                   	retq   
    23a5:	48 81 ec 48 10 00 00 	sub    $0x1048,%rsp
    23ac:	64 48 8b 04 25 28 00 	mov    %fs:0x28,%rax
    23b3:	00 00 
    23b5:	48 89 84 24 38 10 00 	mov    %rax,0x1038(%rsp)
    23bc:	00 
    23bd:	31 c0                	xor    %eax,%eax
    23bf:	be 00 00 00 00       	mov    $0x0,%esi
    23c4:	48 8d 3d 65 56 00 00 	lea    0x5665(%rip),%rdi        # 7a30 <_ZNSt6localeC1Ev@plt+0x5940>
    23cb:	b8 00 00 00 00       	mov    $0x0,%eax
    23d0:	e8 6b fa ff ff       	callq  1e40 <open@plt>
    23d5:	89 44 24 04          	mov    %eax,0x4(%rsp)
    23d9:	83 7c 24 04 ff       	cmpl   $0xffffffff,0x4(%rsp)
    23de:	75 0a                	jne    23ea <_ZNSt6localeC1Ev@plt+0x2fa>
    23e0:	b8 00 00 00 00       	mov    $0x0,%eax
    23e5:	e9 f6 00 00 00       	jmpq   24e0 <_ZNSt6localeC1Ev@plt+0x3f0>
    23ea:	48 8d 4c 24 30       	lea    0x30(%rsp),%rcx
    23ef:	8b 44 24 04          	mov    0x4(%rsp),%eax
    23f3:	ba ff 0f 00 00       	mov    $0xfff,%edx
    23f8:	48 89 ce             	mov    %rcx,%rsi
    23fb:	89 c7                	mov    %eax,%edi
    23fd:	e8 be fb ff ff       	callq  1fc0 <read@plt>
    2402:	48 89 44 24 10       	mov    %rax,0x10(%rsp)
    2407:	48 83 7c 24 10 00    	cmpq   $0x0,0x10(%rsp)
    240d:	7f 0a                	jg     2419 <_ZNSt6localeC1Ev@plt+0x329>
    240f:	b8 00 00 00 00       	mov    $0x0,%eax
    2414:	e9 c7 00 00 00       	jmpq   24e0 <_ZNSt6localeC1Ev@plt+0x3f0>
    2419:	48 8d 54 24 30       	lea    0x30(%rsp),%rdx
    241e:	48 8b 44 24 10       	mov    0x10(%rsp),%rax
    2423:	48 01 d0             	add    %rdx,%rax
    2426:	c6 00 00             	movb   $0x0,(%rax)
    2429:	48 b8 54 72 61 63 65 	movabs $0x6950726563617254,%rax
    2430:	72 50 69 
    2433:	48 89 44 24 25       	mov    %rax,0x25(%rsp)
    2438:	66 c7 44 24 2d 64 3a 	movw   $0x3a64,0x2d(%rsp)
    243f:	c6 44 24 2f 00       	movb   $0x0,0x2f(%rsp)
    2444:	48 8d 54 24 25       	lea    0x25(%rsp),%rdx
    2449:	48 8d 44 24 30       	lea    0x30(%rsp),%rax
    244e:	48 89 d6             	mov    %rdx,%rsi
    2451:	48 89 c7             	mov    %rax,%rdi
    2454:	e8 f7 f8 ff ff       	callq  1d50 <strstr@plt>
    2459:	48 89 44 24 18       	mov    %rax,0x18(%rsp)
    245e:	48 83 7c 24 18 00    	cmpq   $0x0,0x18(%rsp)
    2464:	75 07                	jne    246d <_ZNSt6localeC1Ev@plt+0x37d>
    2466:	b8 00 00 00 00       	mov    $0x0,%eax
    246b:	eb 73                	jmp    24e0 <_ZNSt6localeC1Ev@plt+0x3f0>
    246d:	48 8b 44 24 18       	mov    0x18(%rsp),%rax
    2472:	48 83 c0 0a          	add    $0xa,%rax
    2476:	48 89 44 24 08       	mov    %rax,0x8(%rsp)
    247b:	48 8b 44 24 10       	mov    0x10(%rsp),%rax
    2480:	48 8d 54 24 30       	lea    0x30(%rsp),%rdx
    2485:	48 01 d0             	add    %rdx,%rax
    2488:	48 39 44 24 08       	cmp    %rax,0x8(%rsp)
    248d:	77 4c                	ja     24db <_ZNSt6localeC1Ev@plt+0x3eb>
    248f:	48 8b 44 24 08       	mov    0x8(%rsp),%rax
    2494:	0f b6 00             	movzbl (%rax),%eax
    2497:	0f be c0             	movsbl %al,%eax
    249a:	89 c7                	mov    %eax,%edi
    249c:	e8 5f f8 ff ff       	callq  1d00 <isspace@plt>
    24a1:	85 c0                	test   %eax,%eax
    24a3:	75 2d                	jne    24d2 <_ZNSt6localeC1Ev@plt+0x3e2>
    24a5:	48 8b 44 24 08       	mov    0x8(%rsp),%rax
    24aa:	0f b6 00             	movzbl (%rax),%eax
    24ad:	0f be c0             	movsbl %al,%eax
    24b0:	83 e8 30             	sub    $0x30,%eax
    24b3:	83 f8 09             	cmp    $0x9,%eax
    24b6:	77 13                	ja     24cb <_ZNSt6localeC1Ev@plt+0x3db>
    24b8:	48 8b 44 24 08       	mov    0x8(%rsp),%rax
    24bd:	0f b6 00             	movzbl (%rax),%eax
    24c0:	3c 30                	cmp    $0x30,%al
    24c2:	74 07                	je     24cb <_ZNSt6localeC1Ev@plt+0x3db>
    24c4:	b8 01 00 00 00       	mov    $0x1,%eax
    24c9:	eb 15                	jmp    24e0 <_ZNSt6localeC1Ev@plt+0x3f0>
    24cb:	b8 00 00 00 00       	mov    $0x0,%eax
    24d0:	eb 0e                	jmp    24e0 <_ZNSt6localeC1Ev@plt+0x3f0>
    24d2:	90                   	nop
    24d3:	48 83 44 24 08 01    	addq   $0x1,0x8(%rsp)
    24d9:	eb a0                	jmp    247b <_ZNSt6localeC1Ev@plt+0x38b>
    24db:	b8 00 00 00 00       	mov    $0x0,%eax
    24e0:	48 8b 8c 24 38 10 00 	mov    0x1038(%rsp),%rcx
    24e7:	00 
    24e8:	64 48 33 0c 25 28 00 	xor    %fs:0x28,%rcx
    24ef:	00 00 
    24f1:	74 05                	je     24f8 <_ZNSt6localeC1Ev@plt+0x408>
    24f3:	e8 18 fa ff ff       	callq  1f10 <__stack_chk_fail@plt>
    24f8:	48 81 c4 48 10 00 00 	add    $0x1048,%rsp
    24ff:	c3                   	retq   
    2500:	53                   	push   %rbx
    2501:	48 81 ec 50 02 00 00 	sub    $0x250,%rsp
    2508:	48 89 7c 24 08       	mov    %rdi,0x8(%rsp)
    250d:	48 89 34 24          	mov    %rsi,(%rsp)
    2511:	64 48 8b 04 25 28 00 	mov    %fs:0x28,%rax
    2518:	00 00 
    251a:	48 89 84 24 48 02 00 	mov    %rax,0x248(%rsp)
    2521:	00 
    2522:	31 c0                	xor    %eax,%eax
    2524:	e8 a7 fb ff ff       	callq  20d0 <BIO_f_base64@plt>
    2529:	48 89 c7             	mov    %rax,%rdi
    252c:	e8 4f fa ff ff       	callq  1f80 <BIO_new@plt>
    2531:	48 89 44 24 20       	mov    %rax,0x20(%rsp)
    2536:	48 8b 44 24 20       	mov    0x20(%rsp),%rax
    253b:	be 00 01 00 00       	mov    $0x100,%esi
    2540:	48 89 c7             	mov    %rax,%rdi
    2543:	e8 c8 f7 ff ff       	callq  1d10 <BIO_set_flags@plt>
    2548:	48 8b 04 24          	mov    (%rsp),%rax
    254c:	48 89 c7             	mov    %rax,%rdi
    254f:	e8 9c fa ff ff       	callq  1ff0 <_ZNKSt7__cxx1112basic_stringIcSt11char_traitsIcESaIcEE6lengthEv@plt>
    2554:	89 c3                	mov    %eax,%ebx
    2556:	48 8b 04 24          	mov    (%rsp),%rax
    255a:	48 89 c7             	mov    %rax,%rdi
    255d:	e8 1e f8 ff ff       	callq  1d80 <_ZNKSt7__cxx1112basic_stringIcSt11char_traitsIcESaIcEE5c_strEv@plt>
    2562:	89 de                	mov    %ebx,%esi
    2564:	48 89 c7             	mov    %rax,%rdi
    2567:	e8 44 f9 ff ff       	callq  1eb0 <BIO_new_mem_buf@plt>
    256c:	48 89 44 24 28       	mov    %rax,0x28(%rsp)
    2571:	48 8b 54 24 28       	mov    0x28(%rsp),%rdx
    2576:	48 8b 44 24 20       	mov    0x20(%rsp),%rax
    257b:	48 89 d6             	mov    %rdx,%rsi
    257e:	48 89 c7             	mov    %rax,%rdi
    2581:	e8 ea f7 ff ff       	callq  1d70 <BIO_push@plt>
    2586:	48 89 44 24 28       	mov    %rax,0x28(%rsp)
    258b:	e8 b0 fa ff ff       	callq  2040 <BIO_s_mem@plt>
    2590:	48 89 c7             	mov    %rax,%rdi
    2593:	e8 e8 f9 ff ff       	callq  1f80 <BIO_new@plt>
    2598:	48 89 44 24 30       	mov    %rax,0x30(%rsp)
    259d:	48 8d 4c 24 40       	lea    0x40(%rsp),%rcx
    25a2:	48 8b 44 24 28       	mov    0x28(%rsp),%rax
    25a7:	ba 00 02 00 00       	mov    $0x200,%edx
    25ac:	48 89 ce             	mov    %rcx,%rsi
    25af:	48 89 c7             	mov    %rax,%rdi
    25b2:	e8 49 fa ff ff       	callq  2000 <BIO_read@plt>
    25b7:	89 44 24 14          	mov    %eax,0x14(%rsp)
    25bb:	83 7c 24 14 00       	cmpl   $0x0,0x14(%rsp)
    25c0:	0f 9f c0             	setg   %al
    25c3:	84 c0                	test   %al,%al
    25c5:	74 1b                	je     25e2 <_ZNSt6localeC1Ev@plt+0x4f2>
    25c7:	8b 54 24 14          	mov    0x14(%rsp),%edx
    25cb:	48 8d 4c 24 40       	lea    0x40(%rsp),%rcx
    25d0:	48 8b 44 24 30       	mov    0x30(%rsp),%rax
    25d5:	48 89 ce             	mov    %rcx,%rsi
    25d8:	48 89 c7             	mov    %rax,%rdi
    25db:	e8 00 fa ff ff       	callq  1fe0 <BIO_write@plt>
    25e0:	eb bb                	jmp    259d <_ZNSt6localeC1Ev@plt+0x4ad>
    25e2:	48 8b 44 24 30       	mov    0x30(%rsp),%rax
    25e7:	b9 00 00 00 00       	mov    $0x0,%ecx
    25ec:	ba 00 00 00 00       	mov    $0x0,%edx
    25f1:	be 0b 00 00 00       	mov    $0xb,%esi
    25f6:	48 89 c7             	mov    %rax,%rdi
    25f9:	e8 22 f9 ff ff       	callq  1f20 <BIO_ctrl@plt>
    25fe:	48 8d 54 24 18       	lea    0x18(%rsp),%rdx
    2603:	48 8b 44 24 30       	mov    0x30(%rsp),%rax
    2608:	48 89 d1             	mov    %rdx,%rcx
    260b:	ba 00 00 00 00       	mov    $0x0,%edx
    2610:	be 03 00 00 00       	mov    $0x3,%esi
    2615:	48 89 c7             	mov    %rax,%rdi
    2618:	e8 03 f9 ff ff       	callq  1f20 <BIO_ctrl@plt>
    261d:	48 89 44 24 38       	mov    %rax,0x38(%rsp)
    2622:	48 8d 44 24 13       	lea    0x13(%rsp),%rax
    2627:	48 89 c7             	mov    %rax,%rdi
    262a:	e8 71 fa ff ff       	callq  20a0 <_ZNSaIcEC1Ev@plt>
    262f:	48 8b 54 24 38       	mov    0x38(%rsp),%rdx
    2634:	48 8b 74 24 18       	mov    0x18(%rsp),%rsi
    2639:	48 8d 4c 24 13       	lea    0x13(%rsp),%rcx
    263e:	48 8b 44 24 08       	mov    0x8(%rsp),%rax
    2643:	48 89 c7             	mov    %rax,%rdi
    2646:	e8 e5 f8 ff ff       	callq  1f30 <_ZNSt7__cxx1112basic_stringIcSt11char_traitsIcESaIcEEC1EPKcmRKS3_@plt>
    264b:	48 8d 44 24 13       	lea    0x13(%rsp),%rax
    2650:	48 89 c7             	mov    %rax,%rdi
    2653:	e8 98 f8 ff ff       	callq  1ef0 <_ZNSaIcED1Ev@plt>
    2658:	48 8b 44 24 28       	mov    0x28(%rsp),%rax
    265d:	48 89 c7             	mov    %rax,%rdi
    2660:	e8 6b f7 ff ff       	callq  1dd0 <BIO_free_all@plt>
    2665:	48 8b 44 24 30       	mov    0x30(%rsp),%rax
    266a:	48 89 c7             	mov    %rax,%rdi
    266d:	e8 5e f7 ff ff       	callq  1dd0 <BIO_free_all@plt>
    2672:	90                   	nop
    2673:	48 8b 44 24 08       	mov    0x8(%rsp),%rax
    2678:	48 8b 9c 24 48 02 00 	mov    0x248(%rsp),%rbx
    267f:	00 
    2680:	64 48 33 1c 25 28 00 	xor    %fs:0x28,%rbx
    2687:	00 00 
    2689:	74 3d                	je     26c8 <_ZNSt6localeC1Ev@plt+0x5d8>
    268b:	eb 36                	jmp    26c3 <_ZNSt6localeC1Ev@plt+0x5d3>
    268d:	48 89 c3             	mov    %rax,%rbx
    2690:	48 8d 44 24 13       	lea    0x13(%rsp),%rax
    2695:	48 89 c7             	mov    %rax,%rdi
    2698:	e8 53 f8 ff ff       	callq  1ef0 <_ZNSaIcED1Ev@plt>
    269d:	48 89 d8             	mov    %rbx,%rax
    26a0:	48 89 c7             	mov    %rax,%rdi
    26a3:	e8 e8 f9 ff ff       	callq  2090 <_Unwind_Resume@plt>
    26a8:	48 89 c3             	mov    %rax,%rbx
    26ab:	48 8b 44 24 08       	mov    0x8(%rsp),%rax
    26b0:	48 89 c7             	mov    %rax,%rdi
    26b3:	e8 48 f7 ff ff       	callq  1e00 <_ZNSt7__cxx1112basic_stringIcSt11char_traitsIcESaIcEED1Ev@plt>
    26b8:	48 89 d8             	mov    %rbx,%rax
    26bb:	48 89 c7             	mov    %rax,%rdi
    26be:	e8 cd f9 ff ff       	callq  2090 <_Unwind_Resume@plt>
    26c3:	e8 48 f8 ff ff       	callq  1f10 <__stack_chk_fail@plt>
    26c8:	48 81 c4 50 02 00 00 	add    $0x250,%rsp
    26cf:	5b                   	pop    %rbx
    26d0:	c3                   	retq   
    26d1:	53                   	push   %rbx
    26d2:	48 83 ec 20          	sub    $0x20,%rsp
    26d6:	48 89 7c 24 08       	mov    %rdi,0x8(%rsp)
    26db:	48 89 34 24          	mov    %rsi,(%rsp)
    26df:	64 48 8b 04 25 28 00 	mov    %fs:0x28,%rax
    26e6:	00 00 
    26e8:	48 89 44 24 18       	mov    %rax,0x18(%rsp)
    26ed:	31 c0                	xor    %eax,%eax
    26ef:	48 8b 44 24 08       	mov    0x8(%rsp),%rax
    26f4:	48 89 c7             	mov    %rax,%rdi
    26f7:	e8 a4 f8 ff ff       	callq  1fa0 <_ZNSt7__cxx1112basic_stringIcSt11char_traitsIcESaIcEEC1Ev@plt>
    26fc:	48 c7 44 24 10 00 00 	movq   $0x0,0x10(%rsp)
    2703:	00 00 
    2705:	48 8b 04 24          	mov    (%rsp),%rax
    2709:	48 89 c7             	mov    %rax,%rdi
    270c:	e8 0f f7 ff ff       	callq  1e20 <_ZNKSt7__cxx1112basic_stringIcSt11char_traitsIcESaIcEE4sizeEv@plt>
    2711:	48 39 44 24 10       	cmp    %rax,0x10(%rsp)
    2716:	0f 92 c0             	setb   %al
    2719:	84 c0                	test   %al,%al
    271b:	0f 84 10 01 00 00    	je     2831 <_ZNSt6localeC1Ev@plt+0x741>
    2721:	48 8b 54 24 10       	mov    0x10(%rsp),%rdx
    2726:	48 8b 04 24          	mov    (%rsp),%rax
    272a:	48 89 d6             	mov    %rdx,%rsi
    272d:	48 89 c7             	mov    %rax,%rdi
    2730:	e8 ab f9 ff ff       	callq  20e0 <_ZNSt7__cxx1112basic_stringIcSt11char_traitsIcESaIcEEixEm@plt>
    2735:	0f b6 00             	movzbl (%rax),%eax
    2738:	0f be c0             	movsbl %al,%eax
    273b:	89 c7                	mov    %eax,%edi
    273d:	e8 1e f9 ff ff       	callq  2060 <isalpha@plt>
    2742:	85 c0                	test   %eax,%eax
    2744:	0f 95 c0             	setne  %al
    2747:	84 c0                	test   %al,%al
    2749:	0f 84 90 00 00 00    	je     27df <_ZNSt6localeC1Ev@plt+0x6ef>
    274f:	48 8b 54 24 10       	mov    0x10(%rsp),%rdx
    2754:	48 8b 04 24          	mov    (%rsp),%rax
    2758:	48 89 d6             	mov    %rdx,%rsi
    275b:	48 89 c7             	mov    %rax,%rdi
    275e:	e8 7d f9 ff ff       	callq  20e0 <_ZNSt7__cxx1112basic_stringIcSt11char_traitsIcESaIcEEixEm@plt>
    2763:	0f b6 00             	movzbl (%rax),%eax
    2766:	0f be c0             	movsbl %al,%eax
    2769:	89 c7                	mov    %eax,%edi
    276b:	e8 60 f8 ff ff       	callq  1fd0 <tolower@plt>
    2770:	83 e8 61             	sub    $0x61,%eax
    2773:	83 f8 0d             	cmp    $0xd,%eax
    2776:	0f 9e c0             	setle  %al
    2779:	84 c0                	test   %al,%al
    277b:	74 31                	je     27ae <_ZNSt6localeC1Ev@plt+0x6be>
    277d:	48 8b 54 24 10       	mov    0x10(%rsp),%rdx
    2782:	48 8b 04 24          	mov    (%rsp),%rax
    2786:	48 89 d6             	mov    %rdx,%rsi
    2789:	48 89 c7             	mov    %rax,%rdi
    278c:	e8 4f f9 ff ff       	callq  20e0 <_ZNSt7__cxx1112basic_stringIcSt11char_traitsIcESaIcEEixEm@plt>
    2791:	0f b6 00             	movzbl (%rax),%eax
    2794:	83 c0 0d             	add    $0xd,%eax
    2797:	0f be d0             	movsbl %al,%edx
    279a:	48 8b 44 24 08       	mov    0x8(%rsp),%rax
    279f:	be 01 00 00 00       	mov    $0x1,%esi
    27a4:	48 89 c7             	mov    %rax,%rdi
    27a7:	e8 34 f7 ff ff       	callq  1ee0 <_ZNSt7__cxx1112basic_stringIcSt11char_traitsIcESaIcEE6appendEmc@plt>
    27ac:	eb 5d                	jmp    280b <_ZNSt6localeC1Ev@plt+0x71b>
    27ae:	48 8b 54 24 10       	mov    0x10(%rsp),%rdx
    27b3:	48 8b 04 24          	mov    (%rsp),%rax
    27b7:	48 89 d6             	mov    %rdx,%rsi
    27ba:	48 89 c7             	mov    %rax,%rdi
    27bd:	e8 1e f9 ff ff       	callq  20e0 <_ZNSt7__cxx1112basic_stringIcSt11char_traitsIcESaIcEEixEm@plt>
    27c2:	0f b6 00             	movzbl (%rax),%eax
    27c5:	83 e8 0d             	sub    $0xd,%eax
    27c8:	0f be d0             	movsbl %al,%edx
    27cb:	48 8b 44 24 08       	mov    0x8(%rsp),%rax
    27d0:	be 01 00 00 00       	mov    $0x1,%esi
    27d5:	48 89 c7             	mov    %rax,%rdi
    27d8:	e8 03 f7 ff ff       	callq  1ee0 <_ZNSt7__cxx1112basic_stringIcSt11char_traitsIcESaIcEE6appendEmc@plt>
    27dd:	eb 2c                	jmp    280b <_ZNSt6localeC1Ev@plt+0x71b>
    27df:	48 8b 54 24 10       	mov    0x10(%rsp),%rdx
    27e4:	48 8b 04 24          	mov    (%rsp),%rax
    27e8:	48 89 d6             	mov    %rdx,%rsi
    27eb:	48 89 c7             	mov    %rax,%rdi
    27ee:	e8 ed f8 ff ff       	callq  20e0 <_ZNSt7__cxx1112basic_stringIcSt11char_traitsIcESaIcEEixEm@plt>
    27f3:	0f b6 00             	movzbl (%rax),%eax
    27f6:	0f be d0             	movsbl %al,%edx
    27f9:	48 8b 44 24 08       	mov    0x8(%rsp),%rax
    27fe:	be 01 00 00 00       	mov    $0x1,%esi
    2803:	48 89 c7             	mov    %rax,%rdi
    2806:	e8 d5 f6 ff ff       	callq  1ee0 <_ZNSt7__cxx1112basic_stringIcSt11char_traitsIcESaIcEE6appendEmc@plt>
    280b:	48 83 44 24 10 01    	addq   $0x1,0x10(%rsp)
    2811:	e9 ef fe ff ff       	jmpq   2705 <_ZNSt6localeC1Ev@plt+0x615>
    2816:	48 89 c3             	mov    %rax,%rbx
    2819:	48 8b 44 24 08       	mov    0x8(%rsp),%rax
    281e:	48 89 c7             	mov    %rax,%rdi
    2821:	e8 da f5 ff ff       	callq  1e00 <_ZNSt7__cxx1112basic_stringIcSt11char_traitsIcESaIcEED1Ev@plt>
    2826:	48 89 d8             	mov    %rbx,%rax
    2829:	48 89 c7             	mov    %rax,%rdi
    282c:	e8 5f f8 ff ff       	callq  2090 <_Unwind_Resume@plt>
    2831:	90                   	nop
    2832:	48 8b 44 24 08       	mov    0x8(%rsp),%rax
    2837:	48 8b 4c 24 18       	mov    0x18(%rsp),%rcx
    283c:	64 48 33 0c 25 28 00 	xor    %fs:0x28,%rcx
    2843:	00 00 
    2845:	74 05                	je     284c <_ZNSt6localeC1Ev@plt+0x75c>
    2847:	e8 c4 f6 ff ff       	callq  1f10 <__stack_chk_fail@plt>
    284c:	48 83 c4 20          	add    $0x20,%rsp
    2850:	5b                   	pop    %rbx
    2851:	c3                   	retq   
    2852:	48 83 ec 08          	sub    $0x8,%rsp
    2856:	48 8d 3d eb 51 00 00 	lea    0x51eb(%rip),%rdi        # 7a48 <_ZNSt6localeC1Ev@plt+0x5958>
    285d:	e8 be f7 ff ff       	callq  2020 <puts@plt>
    2862:	90                   	nop
    2863:	48 83 c4 08          	add    $0x8,%rsp
    2867:	c3                   	retq   
    2868:	48 83 ec 08          	sub    $0x8,%rsp
    286c:	48 8d 3d f9 51 00 00 	lea    0x51f9(%rip),%rdi        # 7a6c <_ZNSt6localeC1Ev@plt+0x597c>
    2873:	e8 a8 f7 ff ff       	callq  2020 <puts@plt>
    2878:	bf 01 00 00 00       	mov    $0x1,%edi
    287d:	e8 ce f6 ff ff       	callq  1f50 <exit@plt>
    2882:	53                   	push   %rbx
    2883:	48 83 ec 30          	sub    $0x30,%rsp
    2887:	48 89 7c 24 08       	mov    %rdi,0x8(%rsp)
    288c:	48 89 34 24          	mov    %rsi,(%rsp)
    2890:	64 48 8b 04 25 28 00 	mov    %fs:0x28,%rax
    2897:	00 00 
    2899:	48 89 44 24 28       	mov    %rax,0x28(%rsp)
    289e:	31 c0                	xor    %eax,%eax
    28a0:	48 8b 04 24          	mov    (%rsp),%rax
    28a4:	48 89 c7             	mov    %rax,%rdi
    28a7:	e8 44 f7 ff ff       	callq  1ff0 <_ZNKSt7__cxx1112basic_stringIcSt11char_traitsIcESaIcEE6lengthEv@plt>
    28ac:	48 89 44 24 20       	mov    %rax,0x20(%rsp)
    28b1:	48 8b 44 24 08       	mov    0x8(%rsp),%rax
    28b6:	48 89 c7             	mov    %rax,%rdi
    28b9:	e8 e2 f6 ff ff       	callq  1fa0 <_ZNSt7__cxx1112basic_stringIcSt11char_traitsIcESaIcEEC1Ev@plt>
    28be:	48 8b 44 24 20       	mov    0x20(%rsp),%rax
    28c3:	48 8d 14 00          	lea    (%rax,%rax,1),%rdx
    28c7:	48 8b 44 24 08       	mov    0x8(%rsp),%rax
    28cc:	48 89 d6             	mov    %rdx,%rsi
    28cf:	48 89 c7             	mov    %rax,%rdi
    28d2:	e8 59 f7 ff ff       	callq  2030 <_ZNSt7__cxx1112basic_stringIcSt11char_traitsIcESaIcEE7reserveEm@plt>
    28d7:	48 c7 44 24 18 00 00 	movq   $0x0,0x18(%rsp)
    28de:	00 00 
    28e0:	48 8b 44 24 18       	mov    0x18(%rsp),%rax
    28e5:	48 3b 44 24 20       	cmp    0x20(%rsp),%rax
    28ea:	0f 83 95 00 00 00    	jae    2985 <_ZNSt6localeC1Ev@plt+0x895>
    28f0:	48 8b 54 24 18       	mov    0x18(%rsp),%rdx
    28f5:	48 8b 04 24          	mov    (%rsp),%rax
    28f9:	48 89 d6             	mov    %rdx,%rsi
    28fc:	48 89 c7             	mov    %rax,%rdi
    28ff:	e8 fc f5 ff ff       	callq  1f00 <_ZNKSt7__cxx1112basic_stringIcSt11char_traitsIcESaIcEEixEm@plt>
    2904:	0f b6 00             	movzbl (%rax),%eax
    2907:	88 44 24 17          	mov    %al,0x17(%rsp)
    290b:	0f b6 44 24 17       	movzbl 0x17(%rsp),%eax
    2910:	c1 f8 04             	sar    $0x4,%eax
    2913:	48 63 d0             	movslq %eax,%rdx
    2916:	48 8d 05 5b 51 00 00 	lea    0x515b(%rip),%rax        # 7a78 <_ZNSt6localeC1Ev@plt+0x5988>
    291d:	48 01 d0             	add    %rdx,%rax
    2920:	0f b6 00             	movzbl (%rax),%eax
    2923:	0f be d0             	movsbl %al,%edx
    2926:	48 8b 44 24 08       	mov    0x8(%rsp),%rax
    292b:	89 d6                	mov    %edx,%esi
    292d:	48 89 c7             	mov    %rax,%rdi
    2930:	e8 3b f5 ff ff       	callq  1e70 <_ZNSt7__cxx1112basic_stringIcSt11char_traitsIcESaIcEE9push_backEc@plt>
    2935:	0f b6 44 24 17       	movzbl 0x17(%rsp),%eax
    293a:	83 e0 0f             	and    $0xf,%eax
    293d:	48 89 c2             	mov    %rax,%rdx
    2940:	48 8d 05 31 51 00 00 	lea    0x5131(%rip),%rax        # 7a78 <_ZNSt6localeC1Ev@plt+0x5988>
    2947:	48 01 d0             	add    %rdx,%rax
    294a:	0f b6 00             	movzbl (%rax),%eax
    294d:	0f be d0             	movsbl %al,%edx
    2950:	48 8b 44 24 08       	mov    0x8(%rsp),%rax
    2955:	89 d6                	mov    %edx,%esi
    2957:	48 89 c7             	mov    %rax,%rdi
    295a:	e8 11 f5 ff ff       	callq  1e70 <_ZNSt7__cxx1112basic_stringIcSt11char_traitsIcESaIcEE9push_backEc@plt>
    295f:	48 83 44 24 18 01    	addq   $0x1,0x18(%rsp)
    2965:	e9 76 ff ff ff       	jmpq   28e0 <_ZNSt6localeC1Ev@plt+0x7f0>
    296a:	48 89 c3             	mov    %rax,%rbx
    296d:	48 8b 44 24 08       	mov    0x8(%rsp),%rax
    2972:	48 89 c7             	mov    %rax,%rdi
    2975:	e8 86 f4 ff ff       	callq  1e00 <_ZNSt7__cxx1112basic_stringIcSt11char_traitsIcESaIcEED1Ev@plt>
    297a:	48 89 d8             	mov    %rbx,%rax
    297d:	48 89 c7             	mov    %rax,%rdi
    2980:	e8 0b f7 ff ff       	callq  2090 <_Unwind_Resume@plt>
    2985:	90                   	nop
    2986:	48 8b 44 24 08       	mov    0x8(%rsp),%rax
    298b:	48 8b 4c 24 28       	mov    0x28(%rsp),%rcx
    2990:	64 48 33 0c 25 28 00 	xor    %fs:0x28,%rcx
    2997:	00 00 
    2999:	74 05                	je     29a0 <_ZNSt6localeC1Ev@plt+0x8b0>
    299b:	e8 70 f5 ff ff       	callq  1f10 <__stack_chk_fail@plt>
    29a0:	48 83 c4 30          	add    $0x30,%rsp
    29a4:	5b                   	pop    %rbx
    29a5:	c3                   	retq   
    29a6:	55                   	push   %rbp
    29a7:	53                   	push   %rbx
    29a8:	48 83 ec 48          	sub    $0x48,%rsp
    29ac:	48 89 7c 24 08       	mov    %rdi,0x8(%rsp)
    29b1:	48 89 34 24          	mov    %rsi,(%rsp)
    29b5:	64 48 8b 04 25 28 00 	mov    %fs:0x28,%rax
    29bc:	00 00 
    29be:	48 89 44 24 38       	mov    %rax,0x38(%rsp)
    29c3:	31 c0                	xor    %eax,%eax
    29c5:	48 8b 04 24          	mov    (%rsp),%rax
    29c9:	48 89 c7             	mov    %rax,%rdi
    29cc:	e8 1f f6 ff ff       	callq  1ff0 <_ZNKSt7__cxx1112basic_stringIcSt11char_traitsIcESaIcEE6lengthEv@plt>
    29d1:	48 89 44 24 20       	mov    %rax,0x20(%rsp)
    29d6:	48 8b 44 24 20       	mov    0x20(%rsp),%rax
    29db:	83 e0 01             	and    $0x1,%eax
    29de:	48 85 c0             	test   %rax,%rax
    29e1:	74 35                	je     2a18 <_ZNSt6localeC1Ev@plt+0x928>
    29e3:	bf 10 00 00 00       	mov    $0x10,%edi
    29e8:	e8 d3 f3 ff ff       	callq  1dc0 <__cxa_allocate_exception@plt>
    29ed:	48 89 c3             	mov    %rax,%rbx
    29f0:	48 8d 35 92 50 00 00 	lea    0x5092(%rip),%rsi        # 7a89 <_ZNSt6localeC1Ev@plt+0x5999>
    29f7:	48 89 df             	mov    %rbx,%rdi
    29fa:	e8 c1 f6 ff ff       	callq  20c0 <_ZNSt16invalid_argumentC1EPKc@plt>
    29ff:	48 8b 05 ca 75 20 00 	mov    0x2075ca(%rip),%rax        # 209fd0 <_ZTISt16invalid_argument@@GLIBCXX_3.4+0x460>
    2a06:	48 89 c2             	mov    %rax,%rdx
    2a09:	48 8d 35 60 71 20 00 	lea    0x207160(%rip),%rsi        # 209b70 <_ZTISt16invalid_argument@@GLIBCXX_3.4>
    2a10:	48 89 df             	mov    %rbx,%rdi
    2a13:	e8 68 f6 ff ff       	callq  2080 <__cxa_throw@plt>
    2a18:	48 8b 44 24 08       	mov    0x8(%rsp),%rax
    2a1d:	48 89 c7             	mov    %rax,%rdi
    2a20:	e8 7b f5 ff ff       	callq  1fa0 <_ZNSt7__cxx1112basic_stringIcSt11char_traitsIcESaIcEEC1Ev@plt>
    2a25:	48 8b 44 24 20       	mov    0x20(%rsp),%rax
    2a2a:	48 d1 e8             	shr    %rax
    2a2d:	48 89 c2             	mov    %rax,%rdx
    2a30:	48 8b 44 24 08       	mov    0x8(%rsp),%rax
    2a35:	48 89 d6             	mov    %rdx,%rsi
    2a38:	48 89 c7             	mov    %rax,%rdi
    2a3b:	e8 f0 f5 ff ff       	callq  2030 <_ZNSt7__cxx1112basic_stringIcSt11char_traitsIcESaIcEE7reserveEm@plt>
    2a40:	48 c7 44 24 18 00 00 	movq   $0x0,0x18(%rsp)
    2a47:	00 00 
    2a49:	48 8b 44 24 18       	mov    0x18(%rsp),%rax
    2a4e:	48 3b 44 24 20       	cmp    0x20(%rsp),%rax
    2a53:	0f 83 a0 01 00 00    	jae    2bf9 <_ZNSt6localeC1Ev@plt+0xb09>
    2a59:	48 8b 54 24 18       	mov    0x18(%rsp),%rdx
    2a5e:	48 8b 04 24          	mov    (%rsp),%rax
    2a62:	48 89 d6             	mov    %rdx,%rsi
    2a65:	48 89 c7             	mov    %rax,%rdi
    2a68:	e8 93 f4 ff ff       	callq  1f00 <_ZNKSt7__cxx1112basic_stringIcSt11char_traitsIcESaIcEEixEm@plt>
    2a6d:	0f b6 00             	movzbl (%rax),%eax
    2a70:	88 44 24 16          	mov    %al,0x16(%rsp)
    2a74:	48 8d 05 0d 50 00 00 	lea    0x500d(%rip),%rax        # 7a88 <_ZNSt6localeC1Ev@plt+0x5998>
    2a7b:	48 8d 54 24 16       	lea    0x16(%rsp),%rdx
    2a80:	48 89 c6             	mov    %rax,%rsi
    2a83:	48 8d 3d ee 4f 00 00 	lea    0x4fee(%rip),%rdi        # 7a78 <_ZNSt6localeC1Ev@plt+0x5988>
    2a8a:	e8 29 2f 00 00       	callq  59b8 <_ZNSt6localeC1Ev@plt+0x38c8>
    2a8f:	48 89 44 24 28       	mov    %rax,0x28(%rsp)
    2a94:	48 8b 44 24 28       	mov    0x28(%rsp),%rax
    2a99:	0f b6 10             	movzbl (%rax),%edx
    2a9c:	0f b6 44 24 16       	movzbl 0x16(%rsp),%eax
    2aa1:	38 c2                	cmp    %al,%dl
    2aa3:	74 35                	je     2ada <_ZNSt6localeC1Ev@plt+0x9ea>
    2aa5:	bf 10 00 00 00       	mov    $0x10,%edi
    2aaa:	e8 11 f3 ff ff       	callq  1dc0 <__cxa_allocate_exception@plt>
    2aaf:	48 89 c3             	mov    %rax,%rbx
    2ab2:	48 8d 35 db 4f 00 00 	lea    0x4fdb(%rip),%rsi        # 7a94 <_ZNSt6localeC1Ev@plt+0x59a4>
    2ab9:	48 89 df             	mov    %rbx,%rdi
    2abc:	e8 ff f5 ff ff       	callq  20c0 <_ZNSt16invalid_argumentC1EPKc@plt>
    2ac1:	48 8b 05 08 75 20 00 	mov    0x207508(%rip),%rax        # 209fd0 <_ZTISt16invalid_argument@@GLIBCXX_3.4+0x460>
    2ac8:	48 89 c2             	mov    %rax,%rdx
    2acb:	48 8d 35 9e 70 20 00 	lea    0x20709e(%rip),%rsi        # 209b70 <_ZTISt16invalid_argument@@GLIBCXX_3.4>
    2ad2:	48 89 df             	mov    %rbx,%rdi
    2ad5:	e8 a6 f5 ff ff       	callq  2080 <__cxa_throw@plt>
    2ada:	48 8b 44 24 18       	mov    0x18(%rsp),%rax
    2adf:	48 8d 50 01          	lea    0x1(%rax),%rdx
    2ae3:	48 8b 04 24          	mov    (%rsp),%rax
    2ae7:	48 89 d6             	mov    %rdx,%rsi
    2aea:	48 89 c7             	mov    %rax,%rdi
    2aed:	e8 0e f4 ff ff       	callq  1f00 <_ZNKSt7__cxx1112basic_stringIcSt11char_traitsIcESaIcEEixEm@plt>
    2af2:	0f b6 00             	movzbl (%rax),%eax
    2af5:	88 44 24 17          	mov    %al,0x17(%rsp)
    2af9:	48 8d 05 88 4f 00 00 	lea    0x4f88(%rip),%rax        # 7a88 <_ZNSt6localeC1Ev@plt+0x5998>
    2b00:	48 8d 54 24 17       	lea    0x17(%rsp),%rdx
    2b05:	48 89 c6             	mov    %rax,%rsi
    2b08:	48 8d 3d 69 4f 00 00 	lea    0x4f69(%rip),%rdi        # 7a78 <_ZNSt6localeC1Ev@plt+0x5988>
    2b0f:	e8 a4 2e 00 00       	callq  59b8 <_ZNSt6localeC1Ev@plt+0x38c8>
    2b14:	48 89 44 24 30       	mov    %rax,0x30(%rsp)
    2b19:	48 8b 44 24 30       	mov    0x30(%rsp),%rax
    2b1e:	0f b6 10             	movzbl (%rax),%edx
    2b21:	0f b6 44 24 17       	movzbl 0x17(%rsp),%eax
    2b26:	38 c2                	cmp    %al,%dl
    2b28:	74 35                	je     2b5f <_ZNSt6localeC1Ev@plt+0xa6f>
    2b2a:	bf 10 00 00 00       	mov    $0x10,%edi
    2b2f:	e8 8c f2 ff ff       	callq  1dc0 <__cxa_allocate_exception@plt>
    2b34:	48 89 c3             	mov    %rax,%rbx
    2b37:	48 8d 35 56 4f 00 00 	lea    0x4f56(%rip),%rsi        # 7a94 <_ZNSt6localeC1Ev@plt+0x59a4>
    2b3e:	48 89 df             	mov    %rbx,%rdi
    2b41:	e8 7a f5 ff ff       	callq  20c0 <_ZNSt16invalid_argumentC1EPKc@plt>
    2b46:	48 8b 05 83 74 20 00 	mov    0x207483(%rip),%rax        # 209fd0 <_ZTISt16invalid_argument@@GLIBCXX_3.4+0x460>
    2b4d:	48 89 c2             	mov    %rax,%rdx
    2b50:	48 8d 35 19 70 20 00 	lea    0x207019(%rip),%rsi        # 209b70 <_ZTISt16invalid_argument@@GLIBCXX_3.4>
    2b57:	48 89 df             	mov    %rbx,%rdi
    2b5a:	e8 21 f5 ff ff       	callq  2080 <__cxa_throw@plt>
    2b5f:	48 8b 54 24 28       	mov    0x28(%rsp),%rdx
    2b64:	48 8d 05 0d 4f 00 00 	lea    0x4f0d(%rip),%rax        # 7a78 <_ZNSt6localeC1Ev@plt+0x5988>
    2b6b:	48 29 c2             	sub    %rax,%rdx
    2b6e:	48 89 d0             	mov    %rdx,%rax
    2b71:	48 c1 e0 04          	shl    $0x4,%rax
    2b75:	89 c1                	mov    %eax,%ecx
    2b77:	48 8b 54 24 30       	mov    0x30(%rsp),%rdx
    2b7c:	48 8d 05 f5 4e 00 00 	lea    0x4ef5(%rip),%rax        # 7a78 <_ZNSt6localeC1Ev@plt+0x5988>
    2b83:	48 29 c2             	sub    %rax,%rdx
    2b86:	48 89 d0             	mov    %rdx,%rax
    2b89:	09 c8                	or     %ecx,%eax
    2b8b:	0f be d0             	movsbl %al,%edx
    2b8e:	48 8b 44 24 08       	mov    0x8(%rsp),%rax
    2b93:	89 d6                	mov    %edx,%esi
    2b95:	48 89 c7             	mov    %rax,%rdi
    2b98:	e8 d3 f2 ff ff       	callq  1e70 <_ZNSt7__cxx1112basic_stringIcSt11char_traitsIcESaIcEE9push_backEc@plt>
    2b9d:	48 83 44 24 18 02    	addq   $0x2,0x18(%rsp)
    2ba3:	e9 a1 fe ff ff       	jmpq   2a49 <_ZNSt6localeC1Ev@plt+0x959>
    2ba8:	48 89 c5             	mov    %rax,%rbp
    2bab:	48 89 df             	mov    %rbx,%rdi
    2bae:	e8 7d f2 ff ff       	callq  1e30 <__cxa_free_exception@plt>
    2bb3:	48 89 e8             	mov    %rbp,%rax
    2bb6:	48 89 c7             	mov    %rax,%rdi
    2bb9:	e8 d2 f4 ff ff       	callq  2090 <_Unwind_Resume@plt>
    2bbe:	48 89 c5             	mov    %rax,%rbp
    2bc1:	48 89 df             	mov    %rbx,%rdi
    2bc4:	e8 67 f2 ff ff       	callq  1e30 <__cxa_free_exception@plt>
    2bc9:	48 89 eb             	mov    %rbp,%rbx
    2bcc:	eb 13                	jmp    2be1 <_ZNSt6localeC1Ev@plt+0xaf1>
    2bce:	48 89 c5             	mov    %rax,%rbp
    2bd1:	48 89 df             	mov    %rbx,%rdi
    2bd4:	e8 57 f2 ff ff       	callq  1e30 <__cxa_free_exception@plt>
    2bd9:	48 89 eb             	mov    %rbp,%rbx
    2bdc:	eb 03                	jmp    2be1 <_ZNSt6localeC1Ev@plt+0xaf1>
    2bde:	48 89 c3             	mov    %rax,%rbx
    2be1:	48 8b 44 24 08       	mov    0x8(%rsp),%rax
    2be6:	48 89 c7             	mov    %rax,%rdi
    2be9:	e8 12 f2 ff ff       	callq  1e00 <_ZNSt7__cxx1112basic_stringIcSt11char_traitsIcESaIcEED1Ev@plt>
    2bee:	48 89 d8             	mov    %rbx,%rax
    2bf1:	48 89 c7             	mov    %rax,%rdi
    2bf4:	e8 97 f4 ff ff       	callq  2090 <_Unwind_Resume@plt>
    2bf9:	90                   	nop
    2bfa:	48 8b 44 24 08       	mov    0x8(%rsp),%rax
    2bff:	48 8b 4c 24 38       	mov    0x38(%rsp),%rcx
    2c04:	64 48 33 0c 25 28 00 	xor    %fs:0x28,%rcx
    2c0b:	00 00 
    2c0d:	74 05                	je     2c14 <_ZNSt6localeC1Ev@plt+0xb24>
    2c0f:	e8 fc f2 ff ff       	callq  1f10 <__stack_chk_fail@plt>
    2c14:	48 83 c4 48          	add    $0x48,%rsp
    2c18:	5b                   	pop    %rbx
    2c19:	5d                   	pop    %rbp
    2c1a:	c3                   	retq   
    2c1b:	41 57                	push   %r15
    2c1d:	41 56                	push   %r14
    2c1f:	41 55                	push   %r13
    2c21:	41 54                	push   %r12
    2c23:	55                   	push   %rbp
    2c24:	53                   	push   %rbx
    2c25:	48 81 ec 68 0c 00 00 	sub    $0xc68,%rsp
    2c2c:	64 48 8b 04 25 28 00 	mov    %fs:0x28,%rax
    2c33:	00 00 
    2c35:	48 89 84 24 58 0c 00 	mov    %rax,0xc58(%rsp)
    2c3c:	00 
    2c3d:	31 c0                	xor    %eax,%eax
    2c3f:	bf 00 00 00 00       	mov    $0x0,%edi
    2c44:	e8 27 f4 ff ff       	callq  2070 <times@plt>
    2c49:	48 89 44 24 18       	mov    %rax,0x18(%rsp)
    2c4e:	b9 00 00 00 00       	mov    $0x0,%ecx
    2c53:	ba 01 00 00 00       	mov    $0x1,%edx
    2c58:	be 00 00 00 00       	mov    $0x0,%esi
    2c5d:	bf 00 00 00 00       	mov    $0x0,%edi
    2c62:	b8 00 00 00 00       	mov    $0x0,%eax
    2c67:	e8 f4 f1 ff ff       	callq  1e60 <ptrace@plt>
    2c6c:	48 c1 e8 3f          	shr    $0x3f,%rax
    2c70:	84 c0                	test   %al,%al
    2c72:	74 05                	je     2c79 <_ZNSt6localeC1Ev@plt+0xb89>
    2c74:	e8 ef fb ff ff       	callq  2868 <_ZNSt6localeC1Ev@plt+0x778>
    2c79:	48 8d 05 d2 fb ff ff 	lea    -0x42e(%rip),%rax        # 2852 <_ZNSt6localeC1Ev@plt+0x762>
    2c80:	48 83 c0 04          	add    $0x4,%rax
    2c84:	8b 00                	mov    (%rax),%eax
    2c86:	0f b6 c0             	movzbl %al,%eax
    2c89:	3d cc 00 00 00       	cmp    $0xcc,%eax
    2c8e:	0f 94 c0             	sete   %al
    2c91:	84 c0                	test   %al,%al
    2c93:	74 05                	je     2c9a <_ZNSt6localeC1Ev@plt+0xbaa>
    2c95:	e8 ce fb ff ff       	callq  2868 <_ZNSt6localeC1Ev@plt+0x778>
    2c9a:	48 8d 05 30 fa ff ff 	lea    -0x5d0(%rip),%rax        # 26d1 <_ZNSt6localeC1Ev@plt+0x5e1>
    2ca1:	48 83 c0 04          	add    $0x4,%rax
    2ca5:	8b 00                	mov    (%rax),%eax
    2ca7:	0f b6 c0             	movzbl %al,%eax
    2caa:	3d cc 00 00 00       	cmp    $0xcc,%eax
    2caf:	0f 94 c0             	sete   %al
    2cb2:	84 c0                	test   %al,%al
    2cb4:	74 05                	je     2cbb <_ZNSt6localeC1Ev@plt+0xbcb>
    2cb6:	e8 ad fb ff ff       	callq  2868 <_ZNSt6localeC1Ev@plt+0x778>
    2cbb:	48 8d 05 a6 fb ff ff 	lea    -0x45a(%rip),%rax        # 2868 <_ZNSt6localeC1Ev@plt+0x778>
    2cc2:	48 83 c0 04          	add    $0x4,%rax
    2cc6:	8b 00                	mov    (%rax),%eax
    2cc8:	0f b6 c0             	movzbl %al,%eax
    2ccb:	3d cc 00 00 00       	cmp    $0xcc,%eax
    2cd0:	0f 94 c0             	sete   %al
    2cd3:	84 c0                	test   %al,%al
    2cd5:	74 05                	je     2cdc <_ZNSt6localeC1Ev@plt+0xbec>
    2cd7:	e8 8c fb ff ff       	callq  2868 <_ZNSt6localeC1Ev@plt+0x778>
    2cdc:	48 8d 05 38 ff ff ff 	lea    -0xc8(%rip),%rax        # 2c1b <_ZNSt6localeC1Ev@plt+0xb2b>
    2ce3:	48 83 c0 04          	add    $0x4,%rax
    2ce7:	8b 00                	mov    (%rax),%eax
    2ce9:	0f b6 c0             	movzbl %al,%eax
    2cec:	3d cc 00 00 00       	cmp    $0xcc,%eax
    2cf1:	0f 94 c0             	sete   %al
    2cf4:	84 c0                	test   %al,%al
    2cf6:	74 05                	je     2cfd <_ZNSt6localeC1Ev@plt+0xc0d>
    2cf8:	e8 6b fb ff ff       	callq  2868 <_ZNSt6localeC1Ev@plt+0x778>
    2cfd:	48 8d 05 fc f7 ff ff 	lea    -0x804(%rip),%rax        # 2500 <_ZNSt6localeC1Ev@plt+0x410>
    2d04:	48 83 c0 04          	add    $0x4,%rax
    2d08:	8b 00                	mov    (%rax),%eax
    2d0a:	0f b6 c0             	movzbl %al,%eax
    2d0d:	3d cc 00 00 00       	cmp    $0xcc,%eax
    2d12:	0f 94 c0             	sete   %al
    2d15:	84 c0                	test   %al,%al
    2d17:	74 05                	je     2d1e <_ZNSt6localeC1Ev@plt+0xc2e>
    2d19:	e8 4a fb ff ff       	callq  2868 <_ZNSt6localeC1Ev@plt+0x778>
    2d1e:	48 8d 05 f5 f4 ff ff 	lea    -0xb0b(%rip),%rax        # 221a <_ZNSt6localeC1Ev@plt+0x12a>
    2d25:	48 83 c0 04          	add    $0x4,%rax
    2d29:	8b 00                	mov    (%rax),%eax
    2d2b:	0f b6 c0             	movzbl %al,%eax
    2d2e:	3d cc 00 00 00       	cmp    $0xcc,%eax
    2d33:	0f 94 c0             	sete   %al
    2d36:	84 c0                	test   %al,%al
    2d38:	74 05                	je     2d3f <_ZNSt6localeC1Ev@plt+0xc4f>
    2d3a:	e8 29 fb ff ff       	callq  2868 <_ZNSt6localeC1Ev@plt+0x778>
    2d3f:	48 8d 05 5f f6 ff ff 	lea    -0x9a1(%rip),%rax        # 23a5 <_ZNSt6localeC1Ev@plt+0x2b5>
    2d46:	48 83 c0 04          	add    $0x4,%rax
    2d4a:	8b 00                	mov    (%rax),%eax
    2d4c:	0f b6 c0             	movzbl %al,%eax
    2d4f:	3d cc 00 00 00       	cmp    $0xcc,%eax
    2d54:	0f 94 c0             	sete   %al
    2d57:	84 c0                	test   %al,%al
    2d59:	74 05                	je     2d60 <_ZNSt6localeC1Ev@plt+0xc70>
    2d5b:	e8 08 fb ff ff       	callq  2868 <_ZNSt6localeC1Ev@plt+0x778>
    2d60:	48 8d 05 1b fb ff ff 	lea    -0x4e5(%rip),%rax        # 2882 <_ZNSt6localeC1Ev@plt+0x792>
    2d67:	48 83 c0 04          	add    $0x4,%rax
    2d6b:	8b 00                	mov    (%rax),%eax
    2d6d:	0f b6 c0             	movzbl %al,%eax
    2d70:	3d cc 00 00 00       	cmp    $0xcc,%eax
    2d75:	0f 94 c0             	sete   %al
    2d78:	84 c0                	test   %al,%al
    2d7a:	74 05                	je     2d81 <_ZNSt6localeC1Ev@plt+0xc91>
    2d7c:	e8 e7 fa ff ff       	callq  2868 <_ZNSt6localeC1Ev@plt+0x778>
    2d81:	48 8d 05 1e fc ff ff 	lea    -0x3e2(%rip),%rax        # 29a6 <_ZNSt6localeC1Ev@plt+0x8b6>
    2d88:	48 83 c0 04          	add    $0x4,%rax
    2d8c:	8b 00                	mov    (%rax),%eax
    2d8e:	0f b6 c0             	movzbl %al,%eax
    2d91:	3d cc 00 00 00       	cmp    $0xcc,%eax
    2d96:	0f 94 c0             	sete   %al
    2d99:	84 c0                	test   %al,%al
    2d9b:	74 05                	je     2da2 <_ZNSt6localeC1Ev@plt+0xcb2>
    2d9d:	e8 c6 fa ff ff       	callq  2868 <_ZNSt6localeC1Ev@plt+0x778>
    2da2:	e8 ab fa ff ff       	callq  2852 <_ZNSt6localeC1Ev@plt+0x762>
    2da7:	48 8d 44 24 20       	lea    0x20(%rsp),%rax
    2dac:	48 89 c7             	mov    %rax,%rdi
    2daf:	e8 ec f1 ff ff       	callq  1fa0 <_ZNSt7__cxx1112basic_stringIcSt11char_traitsIcESaIcEEC1Ev@plt>
    2db4:	48 8d 44 24 40       	lea    0x40(%rsp),%rax
    2db9:	48 89 c7             	mov    %rax,%rdi
    2dbc:	e8 df f1 ff ff       	callq  1fa0 <_ZNSt7__cxx1112basic_stringIcSt11char_traitsIcESaIcEEC1Ev@plt>
    2dc1:	48 8d 44 24 60       	lea    0x60(%rsp),%rax
    2dc6:	48 89 c7             	mov    %rax,%rdi
    2dc9:	e8 d2 f1 ff ff       	callq  1fa0 <_ZNSt7__cxx1112basic_stringIcSt11char_traitsIcESaIcEEC1Ev@plt>
    2dce:	48 8d 84 24 80 01 00 	lea    0x180(%rsp),%rax
    2dd5:	00 
    2dd6:	ba 08 00 00 00       	mov    $0x8,%edx
    2ddb:	48 8d 35 c2 4c 00 00 	lea    0x4cc2(%rip),%rsi        # 7aa4 <_ZNSt6localeC1Ev@plt+0x59b4>
    2de2:	48 89 c7             	mov    %rax,%rdi
    2de5:	e8 c6 f2 ff ff       	callq  20b0 <_ZNSt14basic_ifstreamIcSt11char_traitsIcEEC1EPKcSt13_Ios_Openmode@plt>
    2dea:	48 8d 84 24 80 01 00 	lea    0x180(%rsp),%rax
    2df1:	00 
    2df2:	48 89 c7             	mov    %rax,%rdi
    2df5:	e8 56 f2 ff ff       	callq  2050 <_ZNSt14basic_ifstreamIcSt11char_traitsIcEE7is_openEv@plt>
    2dfa:	84 c0                	test   %al,%al
    2dfc:	0f 84 c6 1d 00 00    	je     4bc8 <_ZNSt6localeC1Ev@plt+0x2ad8>
    2e02:	48 8d 54 24 20       	lea    0x20(%rsp),%rdx
    2e07:	48 8d 84 24 80 01 00 	lea    0x180(%rsp),%rax
    2e0e:	00 
    2e0f:	48 89 d6             	mov    %rdx,%rsi
    2e12:	48 89 c7             	mov    %rax,%rdi
    2e15:	e8 16 ef ff ff       	callq  1d30 <_ZSt7getlineIcSt11char_traitsIcESaIcEERSt13basic_istreamIT_T0_ES7_RNSt7__cxx1112basic_stringIS4_S5_T1_EE@plt>
    2e1a:	48 8d 54 24 20       	lea    0x20(%rsp),%rdx
    2e1f:	48 8d 84 24 60 01 00 	lea    0x160(%rsp),%rax
    2e26:	00 
    2e27:	48 89 d6             	mov    %rdx,%rsi
    2e2a:	48 89 c7             	mov    %rax,%rdi
    2e2d:	e8 6e ef ff ff       	callq  1da0 <_ZNSt7__cxx1112basic_stringIcSt11char_traitsIcESaIcEEC1ERKS4_@plt>
    2e32:	48 8d 84 24 90 03 00 	lea    0x390(%rsp),%rax
    2e39:	00 
    2e3a:	48 8d 94 24 60 01 00 	lea    0x160(%rsp),%rdx
    2e41:	00 
    2e42:	48 89 d6             	mov    %rdx,%rsi
    2e45:	48 89 c7             	mov    %rax,%rdi
    2e48:	e8 84 f8 ff ff       	callq  26d1 <_ZNSt6localeC1Ev@plt+0x5e1>
    2e4d:	48 8d 94 24 90 03 00 	lea    0x390(%rsp),%rdx
    2e54:	00 
    2e55:	48 8d 44 24 40       	lea    0x40(%rsp),%rax
    2e5a:	48 89 d6             	mov    %rdx,%rsi
    2e5d:	48 89 c7             	mov    %rax,%rdi
    2e60:	e8 fb f0 ff ff       	callq  1f60 <_ZNSt7__cxx1112basic_stringIcSt11char_traitsIcESaIcEEaSEOS4_@plt>
    2e65:	48 8d 84 24 90 03 00 	lea    0x390(%rsp),%rax
    2e6c:	00 
    2e6d:	48 89 c7             	mov    %rax,%rdi
    2e70:	e8 8b ef ff ff       	callq  1e00 <_ZNSt7__cxx1112basic_stringIcSt11char_traitsIcESaIcEED1Ev@plt>
    2e75:	48 8d 84 24 60 01 00 	lea    0x160(%rsp),%rax
    2e7c:	00 
    2e7d:	48 89 c7             	mov    %rax,%rdi
    2e80:	e8 7b ef ff ff       	callq  1e00 <_ZNSt7__cxx1112basic_stringIcSt11char_traitsIcESaIcEED1Ev@plt>
    2e85:	bf 00 00 00 00       	mov    $0x0,%edi
    2e8a:	e8 e1 f1 ff ff       	callq  2070 <times@plt>
    2e8f:	89 c2                	mov    %eax,%edx
    2e91:	48 8b 44 24 18       	mov    0x18(%rsp),%rax
    2e96:	39 c2                	cmp    %eax,%edx
    2e98:	0f 95 c0             	setne  %al
    2e9b:	84 c0                	test   %al,%al
    2e9d:	74 05                	je     2ea4 <_ZNSt6localeC1Ev@plt+0xdb4>
    2e9f:	e8 c4 f9 ff ff       	callq  2868 <_ZNSt6localeC1Ev@plt+0x778>
    2ea4:	4c 8d a4 24 90 03 00 	lea    0x390(%rsp),%r12
    2eab:	00 
    2eac:	bb 45 00 00 00       	mov    $0x45,%ebx
    2eb1:	48 8d 44 24 10       	lea    0x10(%rsp),%rax
    2eb6:	48 89 c7             	mov    %rax,%rdi
    2eb9:	e8 e2 f1 ff ff       	callq  20a0 <_ZNSaIcEC1Ev@plt>
    2ebe:	48 8d 54 24 10       	lea    0x10(%rsp),%rdx
    2ec3:	48 8d 84 24 60 01 00 	lea    0x160(%rsp),%rax
    2eca:	00 
    2ecb:	48 8d 35 e9 4b 00 00 	lea    0x4be9(%rip),%rsi        # 7abb <_ZNSt6localeC1Ev@plt+0x59cb>
    2ed2:	48 89 c7             	mov    %rax,%rdi
    2ed5:	e8 b6 f0 ff ff       	callq  1f90 <_ZNSt7__cxx1112basic_stringIcSt11char_traitsIcESaIcEEC1EPKcRKS3_@plt>
    2eda:	48 8d 84 24 60 01 00 	lea    0x160(%rsp),%rax
    2ee1:	00 
    2ee2:	48 89 c6             	mov    %rax,%rsi
    2ee5:	4c 89 e7             	mov    %r12,%rdi
    2ee8:	e8 95 f9 ff ff       	callq  2882 <_ZNSt6localeC1Ev@plt+0x792>
    2eed:	48 8d 84 24 60 01 00 	lea    0x160(%rsp),%rax
    2ef4:	00 
    2ef5:	48 89 c7             	mov    %rax,%rdi
    2ef8:	e8 03 ef ff ff       	callq  1e00 <_ZNSt7__cxx1112basic_stringIcSt11char_traitsIcESaIcEED1Ev@plt>
    2efd:	48 8d 44 24 10       	lea    0x10(%rsp),%rax
    2f02:	48 89 c7             	mov    %rax,%rdi
    2f05:	e8 e6 ef ff ff       	callq  1ef0 <_ZNSaIcED1Ev@plt>
    2f0a:	49 8d 6c 24 20       	lea    0x20(%r12),%rbp
    2f0f:	48 83 eb 01          	sub    $0x1,%rbx
    2f13:	48 8d 44 24 10       	lea    0x10(%rsp),%rax
    2f18:	48 89 c7             	mov    %rax,%rdi
    2f1b:	e8 80 f1 ff ff       	callq  20a0 <_ZNSaIcEC1Ev@plt>
    2f20:	48 8d 54 24 10       	lea    0x10(%rsp),%rdx
    2f25:	48 8d 84 24 60 01 00 	lea    0x160(%rsp),%rax
    2f2c:	00 
    2f2d:	48 8d 35 98 4b 00 00 	lea    0x4b98(%rip),%rsi        # 7acc <_ZNSt6localeC1Ev@plt+0x59dc>
    2f34:	48 89 c7             	mov    %rax,%rdi
    2f37:	e8 54 f0 ff ff       	callq  1f90 <_ZNSt7__cxx1112basic_stringIcSt11char_traitsIcESaIcEEC1EPKcRKS3_@plt>
    2f3c:	48 8d 84 24 60 01 00 	lea    0x160(%rsp),%rax
    2f43:	00 
    2f44:	48 89 c6             	mov    %rax,%rsi
    2f47:	48 89 ef             	mov    %rbp,%rdi
    2f4a:	e8 33 f9 ff ff       	callq  2882 <_ZNSt6localeC1Ev@plt+0x792>
    2f4f:	48 8d 84 24 60 01 00 	lea    0x160(%rsp),%rax
    2f56:	00 
    2f57:	48 89 c7             	mov    %rax,%rdi
    2f5a:	e8 a1 ee ff ff       	callq  1e00 <_ZNSt7__cxx1112basic_stringIcSt11char_traitsIcESaIcEED1Ev@plt>
    2f5f:	48 8d 44 24 10       	lea    0x10(%rsp),%rax
    2f64:	48 89 c7             	mov    %rax,%rdi
    2f67:	e8 84 ef ff ff       	callq  1ef0 <_ZNSaIcED1Ev@plt>
    2f6c:	48 83 c5 20          	add    $0x20,%rbp
    2f70:	48 83 eb 01          	sub    $0x1,%rbx
    2f74:	48 8d 44 24 10       	lea    0x10(%rsp),%rax
    2f79:	48 89 c7             	mov    %rax,%rdi
    2f7c:	e8 1f f1 ff ff       	callq  20a0 <_ZNSaIcEC1Ev@plt>
    2f81:	48 8d 54 24 10       	lea    0x10(%rsp),%rdx
    2f86:	48 8d 84 24 60 01 00 	lea    0x160(%rsp),%rax
    2f8d:	00 
    2f8e:	48 8d 35 48 4b 00 00 	lea    0x4b48(%rip),%rsi        # 7add <_ZNSt6localeC1Ev@plt+0x59ed>
    2f95:	48 89 c7             	mov    %rax,%rdi
    2f98:	e8 f3 ef ff ff       	callq  1f90 <_ZNSt7__cxx1112basic_stringIcSt11char_traitsIcESaIcEEC1EPKcRKS3_@plt>
    2f9d:	48 8d 84 24 60 01 00 	lea    0x160(%rsp),%rax
    2fa4:	00 
    2fa5:	48 89 c6             	mov    %rax,%rsi
    2fa8:	48 89 ef             	mov    %rbp,%rdi
    2fab:	e8 d2 f8 ff ff       	callq  2882 <_ZNSt6localeC1Ev@plt+0x792>
    2fb0:	48 8d 84 24 60 01 00 	lea    0x160(%rsp),%rax
    2fb7:	00 
    2fb8:	48 89 c7             	mov    %rax,%rdi
    2fbb:	e8 40 ee ff ff       	callq  1e00 <_ZNSt7__cxx1112basic_stringIcSt11char_traitsIcESaIcEED1Ev@plt>
    2fc0:	48 8d 44 24 10       	lea    0x10(%rsp),%rax
    2fc5:	48 89 c7             	mov    %rax,%rdi
    2fc8:	e8 23 ef ff ff       	callq  1ef0 <_ZNSaIcED1Ev@plt>
    2fcd:	48 83 c5 20          	add    $0x20,%rbp
    2fd1:	48 83 eb 01          	sub    $0x1,%rbx
    2fd5:	48 8d 44 24 10       	lea    0x10(%rsp),%rax
    2fda:	48 89 c7             	mov    %rax,%rdi
    2fdd:	e8 be f0 ff ff       	callq  20a0 <_ZNSaIcEC1Ev@plt>
    2fe2:	48 8d 54 24 10       	lea    0x10(%rsp),%rdx
    2fe7:	48 8d 84 24 60 01 00 	lea    0x160(%rsp),%rax
    2fee:	00 
    2fef:	48 8d 35 f8 4a 00 00 	lea    0x4af8(%rip),%rsi        # 7aee <_ZNSt6localeC1Ev@plt+0x59fe>
    2ff6:	48 89 c7             	mov    %rax,%rdi
    2ff9:	e8 92 ef ff ff       	callq  1f90 <_ZNSt7__cxx1112basic_stringIcSt11char_traitsIcESaIcEEC1EPKcRKS3_@plt>
    2ffe:	48 8d 84 24 60 01 00 	lea    0x160(%rsp),%rax
    3005:	00 
    3006:	48 89 c6             	mov    %rax,%rsi
    3009:	48 89 ef             	mov    %rbp,%rdi
    300c:	e8 71 f8 ff ff       	callq  2882 <_ZNSt6localeC1Ev@plt+0x792>
    3011:	48 8d 84 24 60 01 00 	lea    0x160(%rsp),%rax
    3018:	00 
    3019:	48 89 c7             	mov    %rax,%rdi
    301c:	e8 df ed ff ff       	callq  1e00 <_ZNSt7__cxx1112basic_stringIcSt11char_traitsIcESaIcEED1Ev@plt>
    3021:	48 8d 44 24 10       	lea    0x10(%rsp),%rax
    3026:	48 89 c7             	mov    %rax,%rdi
    3029:	e8 c2 ee ff ff       	callq  1ef0 <_ZNSaIcED1Ev@plt>
    302e:	48 83 c5 20          	add    $0x20,%rbp
    3032:	48 83 eb 01          	sub    $0x1,%rbx
    3036:	48 8d 44 24 10       	lea    0x10(%rsp),%rax
    303b:	48 89 c7             	mov    %rax,%rdi
    303e:	e8 5d f0 ff ff       	callq  20a0 <_ZNSaIcEC1Ev@plt>
    3043:	48 8d 54 24 10       	lea    0x10(%rsp),%rdx
    3048:	48 8d 84 24 60 01 00 	lea    0x160(%rsp),%rax
    304f:	00 
    3050:	48 8d 35 a8 4a 00 00 	lea    0x4aa8(%rip),%rsi        # 7aff <_ZNSt6localeC1Ev@plt+0x5a0f>
    3057:	48 89 c7             	mov    %rax,%rdi
    305a:	e8 31 ef ff ff       	callq  1f90 <_ZNSt7__cxx1112basic_stringIcSt11char_traitsIcESaIcEEC1EPKcRKS3_@plt>
    305f:	48 8d 84 24 60 01 00 	lea    0x160(%rsp),%rax
    3066:	00 
    3067:	48 89 c6             	mov    %rax,%rsi
    306a:	48 89 ef             	mov    %rbp,%rdi
    306d:	e8 10 f8 ff ff       	callq  2882 <_ZNSt6localeC1Ev@plt+0x792>
    3072:	48 8d 84 24 60 01 00 	lea    0x160(%rsp),%rax
    3079:	00 
    307a:	48 89 c7             	mov    %rax,%rdi
    307d:	e8 7e ed ff ff       	callq  1e00 <_ZNSt7__cxx1112basic_stringIcSt11char_traitsIcESaIcEED1Ev@plt>
    3082:	48 8d 44 24 10       	lea    0x10(%rsp),%rax
    3087:	48 89 c7             	mov    %rax,%rdi
    308a:	e8 61 ee ff ff       	callq  1ef0 <_ZNSaIcED1Ev@plt>
    308f:	48 83 c5 20          	add    $0x20,%rbp
    3093:	48 83 eb 01          	sub    $0x1,%rbx
    3097:	48 8d 44 24 10       	lea    0x10(%rsp),%rax
    309c:	48 89 c7             	mov    %rax,%rdi
    309f:	e8 fc ef ff ff       	callq  20a0 <_ZNSaIcEC1Ev@plt>
    30a4:	48 8d 54 24 10       	lea    0x10(%rsp),%rdx
    30a9:	48 8d 84 24 60 01 00 	lea    0x160(%rsp),%rax
    30b0:	00 
    30b1:	48 8d 35 58 4a 00 00 	lea    0x4a58(%rip),%rsi        # 7b10 <_ZNSt6localeC1Ev@plt+0x5a20>
    30b8:	48 89 c7             	mov    %rax,%rdi
    30bb:	e8 d0 ee ff ff       	callq  1f90 <_ZNSt7__cxx1112basic_stringIcSt11char_traitsIcESaIcEEC1EPKcRKS3_@plt>
    30c0:	48 8d 84 24 60 01 00 	lea    0x160(%rsp),%rax
    30c7:	00 
    30c8:	48 89 c6             	mov    %rax,%rsi
    30cb:	48 89 ef             	mov    %rbp,%rdi
    30ce:	e8 af f7 ff ff       	callq  2882 <_ZNSt6localeC1Ev@plt+0x792>
    30d3:	48 8d 84 24 60 01 00 	lea    0x160(%rsp),%rax
    30da:	00 
    30db:	48 89 c7             	mov    %rax,%rdi
    30de:	e8 1d ed ff ff       	callq  1e00 <_ZNSt7__cxx1112basic_stringIcSt11char_traitsIcESaIcEED1Ev@plt>
    30e3:	48 8d 44 24 10       	lea    0x10(%rsp),%rax
    30e8:	48 89 c7             	mov    %rax,%rdi
    30eb:	e8 00 ee ff ff       	callq  1ef0 <_ZNSaIcED1Ev@plt>
    30f0:	48 83 c5 20          	add    $0x20,%rbp
    30f4:	48 83 eb 01          	sub    $0x1,%rbx
    30f8:	48 8d 44 24 10       	lea    0x10(%rsp),%rax
    30fd:	48 89 c7             	mov    %rax,%rdi
    3100:	e8 9b ef ff ff       	callq  20a0 <_ZNSaIcEC1Ev@plt>
    3105:	48 8d 54 24 10       	lea    0x10(%rsp),%rdx
    310a:	48 8d 84 24 60 01 00 	lea    0x160(%rsp),%rax
    3111:	00 
    3112:	48 8d 35 08 4a 00 00 	lea    0x4a08(%rip),%rsi        # 7b21 <_ZNSt6localeC1Ev@plt+0x5a31>
    3119:	48 89 c7             	mov    %rax,%rdi
    311c:	e8 6f ee ff ff       	callq  1f90 <_ZNSt7__cxx1112basic_stringIcSt11char_traitsIcESaIcEEC1EPKcRKS3_@plt>
    3121:	48 8d 84 24 60 01 00 	lea    0x160(%rsp),%rax
    3128:	00 
    3129:	48 89 c6             	mov    %rax,%rsi
    312c:	48 89 ef             	mov    %rbp,%rdi
    312f:	e8 4e f7 ff ff       	callq  2882 <_ZNSt6localeC1Ev@plt+0x792>
    3134:	48 8d 84 24 60 01 00 	lea    0x160(%rsp),%rax
    313b:	00 
    313c:	48 89 c7             	mov    %rax,%rdi
    313f:	e8 bc ec ff ff       	callq  1e00 <_ZNSt7__cxx1112basic_stringIcSt11char_traitsIcESaIcEED1Ev@plt>
    3144:	48 8d 44 24 10       	lea    0x10(%rsp),%rax
    3149:	48 89 c7             	mov    %rax,%rdi
    314c:	e8 9f ed ff ff       	callq  1ef0 <_ZNSaIcED1Ev@plt>
    3151:	48 83 c5 20          	add    $0x20,%rbp
    3155:	48 83 eb 01          	sub    $0x1,%rbx
    3159:	48 8d 44 24 10       	lea    0x10(%rsp),%rax
    315e:	48 89 c7             	mov    %rax,%rdi
    3161:	e8 3a ef ff ff       	callq  20a0 <_ZNSaIcEC1Ev@plt>
    3166:	48 8d 54 24 10       	lea    0x10(%rsp),%rdx
    316b:	48 8d 84 24 60 01 00 	lea    0x160(%rsp),%rax
    3172:	00 
    3173:	48 8d 35 a7 49 00 00 	lea    0x49a7(%rip),%rsi        # 7b21 <_ZNSt6localeC1Ev@plt+0x5a31>
    317a:	48 89 c7             	mov    %rax,%rdi
    317d:	e8 0e ee ff ff       	callq  1f90 <_ZNSt7__cxx1112basic_stringIcSt11char_traitsIcESaIcEEC1EPKcRKS3_@plt>
    3182:	48 8d 84 24 60 01 00 	lea    0x160(%rsp),%rax
    3189:	00 
    318a:	48 89 c6             	mov    %rax,%rsi
    318d:	48 89 ef             	mov    %rbp,%rdi
    3190:	e8 ed f6 ff ff       	callq  2882 <_ZNSt6localeC1Ev@plt+0x792>
    3195:	48 8d 84 24 60 01 00 	lea    0x160(%rsp),%rax
    319c:	00 
    319d:	48 89 c7             	mov    %rax,%rdi
    31a0:	e8 5b ec ff ff       	callq  1e00 <_ZNSt7__cxx1112basic_stringIcSt11char_traitsIcESaIcEED1Ev@plt>
    31a5:	48 8d 44 24 10       	lea    0x10(%rsp),%rax
    31aa:	48 89 c7             	mov    %rax,%rdi
    31ad:	e8 3e ed ff ff       	callq  1ef0 <_ZNSaIcED1Ev@plt>
    31b2:	48 83 c5 20          	add    $0x20,%rbp
    31b6:	48 83 eb 01          	sub    $0x1,%rbx
    31ba:	48 8d 44 24 10       	lea    0x10(%rsp),%rax
    31bf:	48 89 c7             	mov    %rax,%rdi
    31c2:	e8 d9 ee ff ff       	callq  20a0 <_ZNSaIcEC1Ev@plt>
    31c7:	48 8d 44 24 10       	lea    0x10(%rsp),%rax
    31cc:	48 89 c2             	mov    %rax,%rdx
    31cf:	48 8d 35 62 49 00 00 	lea    0x4962(%rip),%rsi        # 7b38 <_ZNSt6localeC1Ev@plt+0x5a48>
    31d6:	48 89 ef             	mov    %rbp,%rdi
    31d9:	e8 b2 ed ff ff       	callq  1f90 <_ZNSt7__cxx1112basic_stringIcSt11char_traitsIcESaIcEEC1EPKcRKS3_@plt>
    31de:	48 8d 44 24 10       	lea    0x10(%rsp),%rax
    31e3:	48 89 c7             	mov    %rax,%rdi
    31e6:	e8 05 ed ff ff       	callq  1ef0 <_ZNSaIcED1Ev@plt>
    31eb:	48 83 c5 20          	add    $0x20,%rbp
    31ef:	48 83 eb 01          	sub    $0x1,%rbx
    31f3:	48 8d 44 24 10       	lea    0x10(%rsp),%rax
    31f8:	48 89 c7             	mov    %rax,%rdi
    31fb:	e8 a0 ee ff ff       	callq  20a0 <_ZNSaIcEC1Ev@plt>
    3200:	48 8d 54 24 10       	lea    0x10(%rsp),%rdx
    3205:	48 8d 84 24 60 01 00 	lea    0x160(%rsp),%rax
    320c:	00 
    320d:	48 8d 35 45 49 00 00 	lea    0x4945(%rip),%rsi        # 7b59 <_ZNSt6localeC1Ev@plt+0x5a69>
    3214:	48 89 c7             	mov    %rax,%rdi
    3217:	e8 74 ed ff ff       	callq  1f90 <_ZNSt7__cxx1112basic_stringIcSt11char_traitsIcESaIcEEC1EPKcRKS3_@plt>
    321c:	48 8d 84 24 60 01 00 	lea    0x160(%rsp),%rax
    3223:	00 
    3224:	48 89 c6             	mov    %rax,%rsi
    3227:	48 89 ef             	mov    %rbp,%rdi
    322a:	e8 53 f6 ff ff       	callq  2882 <_ZNSt6localeC1Ev@plt+0x792>
    322f:	48 8d 84 24 60 01 00 	lea    0x160(%rsp),%rax
    3236:	00 
    3237:	48 89 c7             	mov    %rax,%rdi
    323a:	e8 c1 eb ff ff       	callq  1e00 <_ZNSt7__cxx1112basic_stringIcSt11char_traitsIcESaIcEED1Ev@plt>
    323f:	48 8d 44 24 10       	lea    0x10(%rsp),%rax
    3244:	48 89 c7             	mov    %rax,%rdi
    3247:	e8 a4 ec ff ff       	callq  1ef0 <_ZNSaIcED1Ev@plt>
    324c:	48 83 c5 20          	add    $0x20,%rbp
    3250:	48 83 eb 01          	sub    $0x1,%rbx
    3254:	48 8d 44 24 10       	lea    0x10(%rsp),%rax
    3259:	48 89 c7             	mov    %rax,%rdi
    325c:	e8 3f ee ff ff       	callq  20a0 <_ZNSaIcEC1Ev@plt>
    3261:	48 8d 54 24 10       	lea    0x10(%rsp),%rdx
    3266:	48 8d 84 24 60 01 00 	lea    0x160(%rsp),%rax
    326d:	00 
    326e:	48 8d 35 9b 48 00 00 	lea    0x489b(%rip),%rsi        # 7b10 <_ZNSt6localeC1Ev@plt+0x5a20>
    3275:	48 89 c7             	mov    %rax,%rdi
    3278:	e8 13 ed ff ff       	callq  1f90 <_ZNSt7__cxx1112basic_stringIcSt11char_traitsIcESaIcEEC1EPKcRKS3_@plt>
    327d:	48 8d 84 24 60 01 00 	lea    0x160(%rsp),%rax
    3284:	00 
    3285:	48 89 c6             	mov    %rax,%rsi
    3288:	48 89 ef             	mov    %rbp,%rdi
    328b:	e8 f2 f5 ff ff       	callq  2882 <_ZNSt6localeC1Ev@plt+0x792>
    3290:	48 8d 84 24 60 01 00 	lea    0x160(%rsp),%rax
    3297:	00 
    3298:	48 89 c7             	mov    %rax,%rdi
    329b:	e8 60 eb ff ff       	callq  1e00 <_ZNSt7__cxx1112basic_stringIcSt11char_traitsIcESaIcEED1Ev@plt>
    32a0:	48 8d 44 24 10       	lea    0x10(%rsp),%rax
    32a5:	48 89 c7             	mov    %rax,%rdi
    32a8:	e8 43 ec ff ff       	callq  1ef0 <_ZNSaIcED1Ev@plt>
    32ad:	48 83 c5 20          	add    $0x20,%rbp
    32b1:	48 83 eb 01          	sub    $0x1,%rbx
    32b5:	48 8d 44 24 10       	lea    0x10(%rsp),%rax
    32ba:	48 89 c7             	mov    %rax,%rdi
    32bd:	e8 de ed ff ff       	callq  20a0 <_ZNSaIcEC1Ev@plt>
    32c2:	48 8d 54 24 10       	lea    0x10(%rsp),%rdx
    32c7:	48 8d 84 24 60 01 00 	lea    0x160(%rsp),%rax
    32ce:	00 
    32cf:	48 8d 35 94 48 00 00 	lea    0x4894(%rip),%rsi        # 7b6a <_ZNSt6localeC1Ev@plt+0x5a7a>
    32d6:	48 89 c7             	mov    %rax,%rdi
    32d9:	e8 b2 ec ff ff       	callq  1f90 <_ZNSt7__cxx1112basic_stringIcSt11char_traitsIcESaIcEEC1EPKcRKS3_@plt>
    32de:	48 8d 84 24 60 01 00 	lea    0x160(%rsp),%rax
    32e5:	00 
    32e6:	48 89 c6             	mov    %rax,%rsi
    32e9:	48 89 ef             	mov    %rbp,%rdi
    32ec:	e8 91 f5 ff ff       	callq  2882 <_ZNSt6localeC1Ev@plt+0x792>
    32f1:	48 8d 84 24 60 01 00 	lea    0x160(%rsp),%rax
    32f8:	00 
    32f9:	48 89 c7             	mov    %rax,%rdi
    32fc:	e8 ff ea ff ff       	callq  1e00 <_ZNSt7__cxx1112basic_stringIcSt11char_traitsIcESaIcEED1Ev@plt>
    3301:	48 8d 44 24 10       	lea    0x10(%rsp),%rax
    3306:	48 89 c7             	mov    %rax,%rdi
    3309:	e8 e2 eb ff ff       	callq  1ef0 <_ZNSaIcED1Ev@plt>
    330e:	48 83 c5 20          	add    $0x20,%rbp
    3312:	48 83 eb 01          	sub    $0x1,%rbx
    3316:	48 8d 44 24 10       	lea    0x10(%rsp),%rax
    331b:	48 89 c7             	mov    %rax,%rdi
    331e:	e8 7d ed ff ff       	callq  20a0 <_ZNSaIcEC1Ev@plt>
    3323:	48 8d 44 24 10       	lea    0x10(%rsp),%rax
    3328:	48 89 c2             	mov    %rax,%rdx
    332b:	48 8d 35 06 48 00 00 	lea    0x4806(%rip),%rsi        # 7b38 <_ZNSt6localeC1Ev@plt+0x5a48>
    3332:	48 89 ef             	mov    %rbp,%rdi
    3335:	e8 56 ec ff ff       	callq  1f90 <_ZNSt7__cxx1112basic_stringIcSt11char_traitsIcESaIcEEC1EPKcRKS3_@plt>
    333a:	48 8d 44 24 10       	lea    0x10(%rsp),%rax
    333f:	48 89 c7             	mov    %rax,%rdi
    3342:	e8 a9 eb ff ff       	callq  1ef0 <_ZNSaIcED1Ev@plt>
    3347:	48 83 c5 20          	add    $0x20,%rbp
    334b:	48 83 eb 01          	sub    $0x1,%rbx
    334f:	48 8d 44 24 10       	lea    0x10(%rsp),%rax
    3354:	48 89 c7             	mov    %rax,%rdi
    3357:	e8 44 ed ff ff       	callq  20a0 <_ZNSaIcEC1Ev@plt>
    335c:	48 8d 54 24 10       	lea    0x10(%rsp),%rdx
    3361:	48 8d 84 24 60 01 00 	lea    0x160(%rsp),%rax
    3368:	00 
    3369:	48 8d 35 b1 47 00 00 	lea    0x47b1(%rip),%rsi        # 7b21 <_ZNSt6localeC1Ev@plt+0x5a31>
    3370:	48 89 c7             	mov    %rax,%rdi
    3373:	e8 18 ec ff ff       	callq  1f90 <_ZNSt7__cxx1112basic_stringIcSt11char_traitsIcESaIcEEC1EPKcRKS3_@plt>
    3378:	48 8d 84 24 60 01 00 	lea    0x160(%rsp),%rax
    337f:	00 
    3380:	48 89 c6             	mov    %rax,%rsi
    3383:	48 89 ef             	mov    %rbp,%rdi
    3386:	e8 f7 f4 ff ff       	callq  2882 <_ZNSt6localeC1Ev@plt+0x792>
    338b:	48 8d 84 24 60 01 00 	lea    0x160(%rsp),%rax
    3392:	00 
    3393:	48 89 c7             	mov    %rax,%rdi
    3396:	e8 65 ea ff ff       	callq  1e00 <_ZNSt7__cxx1112basic_stringIcSt11char_traitsIcESaIcEED1Ev@plt>
    339b:	48 8d 44 24 10       	lea    0x10(%rsp),%rax
    33a0:	48 89 c7             	mov    %rax,%rdi
    33a3:	e8 48 eb ff ff       	callq  1ef0 <_ZNSaIcED1Ev@plt>
    33a8:	48 83 c5 20          	add    $0x20,%rbp
    33ac:	48 83 eb 01          	sub    $0x1,%rbx
    33b0:	48 8d 44 24 10       	lea    0x10(%rsp),%rax
    33b5:	48 89 c7             	mov    %rax,%rdi
    33b8:	e8 e3 ec ff ff       	callq  20a0 <_ZNSaIcEC1Ev@plt>
    33bd:	48 8d 44 24 10       	lea    0x10(%rsp),%rax
    33c2:	48 89 c2             	mov    %rax,%rdx
    33c5:	48 8d 35 b4 47 00 00 	lea    0x47b4(%rip),%rsi        # 7b80 <_ZNSt6localeC1Ev@plt+0x5a90>
    33cc:	48 89 ef             	mov    %rbp,%rdi
    33cf:	e8 bc eb ff ff       	callq  1f90 <_ZNSt7__cxx1112basic_stringIcSt11char_traitsIcESaIcEEC1EPKcRKS3_@plt>
    33d4:	48 8d 44 24 10       	lea    0x10(%rsp),%rax
    33d9:	48 89 c7             	mov    %rax,%rdi
    33dc:	e8 0f eb ff ff       	callq  1ef0 <_ZNSaIcED1Ev@plt>
    33e1:	48 83 c5 20          	add    $0x20,%rbp
    33e5:	48 83 eb 01          	sub    $0x1,%rbx
    33e9:	48 8d 44 24 10       	lea    0x10(%rsp),%rax
    33ee:	48 89 c7             	mov    %rax,%rdi
    33f1:	e8 aa ec ff ff       	callq  20a0 <_ZNSaIcEC1Ev@plt>
    33f6:	48 8d 54 24 10       	lea    0x10(%rsp),%rdx
    33fb:	48 8d 84 24 60 01 00 	lea    0x160(%rsp),%rax
    3402:	00 
    3403:	48 8d 35 17 47 00 00 	lea    0x4717(%rip),%rsi        # 7b21 <_ZNSt6localeC1Ev@plt+0x5a31>
    340a:	48 89 c7             	mov    %rax,%rdi
    340d:	e8 7e eb ff ff       	callq  1f90 <_ZNSt7__cxx1112basic_stringIcSt11char_traitsIcESaIcEEC1EPKcRKS3_@plt>
    3412:	48 8d 84 24 60 01 00 	lea    0x160(%rsp),%rax
    3419:	00 
    341a:	48 89 c6             	mov    %rax,%rsi
    341d:	48 89 ef             	mov    %rbp,%rdi
    3420:	e8 5d f4 ff ff       	callq  2882 <_ZNSt6localeC1Ev@plt+0x792>
    3425:	48 8d 84 24 60 01 00 	lea    0x160(%rsp),%rax
    342c:	00 
    342d:	48 89 c7             	mov    %rax,%rdi
    3430:	e8 cb e9 ff ff       	callq  1e00 <_ZNSt7__cxx1112basic_stringIcSt11char_traitsIcESaIcEED1Ev@plt>
    3435:	48 8d 44 24 10       	lea    0x10(%rsp),%rax
    343a:	48 89 c7             	mov    %rax,%rdi
    343d:	e8 ae ea ff ff       	callq  1ef0 <_ZNSaIcED1Ev@plt>
    3442:	48 83 c5 20          	add    $0x20,%rbp
    3446:	48 83 eb 01          	sub    $0x1,%rbx
    344a:	48 8d 44 24 10       	lea    0x10(%rsp),%rax
    344f:	48 89 c7             	mov    %rax,%rdi
    3452:	e8 49 ec ff ff       	callq  20a0 <_ZNSaIcEC1Ev@plt>
    3457:	48 8d 44 24 10       	lea    0x10(%rsp),%rax
    345c:	48 89 c2             	mov    %rax,%rdx
    345f:	48 8d 35 1a 47 00 00 	lea    0x471a(%rip),%rsi        # 7b80 <_ZNSt6localeC1Ev@plt+0x5a90>
    3466:	48 89 ef             	mov    %rbp,%rdi
    3469:	e8 22 eb ff ff       	callq  1f90 <_ZNSt7__cxx1112basic_stringIcSt11char_traitsIcESaIcEEC1EPKcRKS3_@plt>
    346e:	48 8d 44 24 10       	lea    0x10(%rsp),%rax
    3473:	48 89 c7             	mov    %rax,%rdi
    3476:	e8 75 ea ff ff       	callq  1ef0 <_ZNSaIcED1Ev@plt>
    347b:	48 83 c5 20          	add    $0x20,%rbp
    347f:	48 83 eb 01          	sub    $0x1,%rbx
    3483:	48 8d 44 24 10       	lea    0x10(%rsp),%rax
    3488:	48 89 c7             	mov    %rax,%rdi
    348b:	e8 10 ec ff ff       	callq  20a0 <_ZNSaIcEC1Ev@plt>
    3490:	48 8d 54 24 10       	lea    0x10(%rsp),%rdx
    3495:	48 8d 84 24 60 01 00 	lea    0x160(%rsp),%rax
    349c:	00 
    349d:	48 8d 35 fd 46 00 00 	lea    0x46fd(%rip),%rsi        # 7ba1 <_ZNSt6localeC1Ev@plt+0x5ab1>
    34a4:	48 89 c7             	mov    %rax,%rdi
    34a7:	e8 e4 ea ff ff       	callq  1f90 <_ZNSt7__cxx1112basic_stringIcSt11char_traitsIcESaIcEEC1EPKcRKS3_@plt>
    34ac:	48 8d 84 24 60 01 00 	lea    0x160(%rsp),%rax
    34b3:	00 
    34b4:	48 89 c6             	mov    %rax,%rsi
    34b7:	48 89 ef             	mov    %rbp,%rdi
    34ba:	e8 c3 f3 ff ff       	callq  2882 <_ZNSt6localeC1Ev@plt+0x792>
    34bf:	48 8d 84 24 60 01 00 	lea    0x160(%rsp),%rax
    34c6:	00 
    34c7:	48 89 c7             	mov    %rax,%rdi
    34ca:	e8 31 e9 ff ff       	callq  1e00 <_ZNSt7__cxx1112basic_stringIcSt11char_traitsIcESaIcEED1Ev@plt>
    34cf:	48 8d 44 24 10       	lea    0x10(%rsp),%rax
    34d4:	48 89 c7             	mov    %rax,%rdi
    34d7:	e8 14 ea ff ff       	callq  1ef0 <_ZNSaIcED1Ev@plt>
    34dc:	48 83 c5 20          	add    $0x20,%rbp
    34e0:	48 83 eb 01          	sub    $0x1,%rbx
    34e4:	48 8d 44 24 10       	lea    0x10(%rsp),%rax
    34e9:	48 89 c7             	mov    %rax,%rdi
    34ec:	e8 af eb ff ff       	callq  20a0 <_ZNSaIcEC1Ev@plt>
    34f1:	48 8d 54 24 10       	lea    0x10(%rsp),%rdx
    34f6:	48 8d 84 24 60 01 00 	lea    0x160(%rsp),%rax
    34fd:	00 
    34fe:	48 8d 35 ad 46 00 00 	lea    0x46ad(%rip),%rsi        # 7bb2 <_ZNSt6localeC1Ev@plt+0x5ac2>
    3505:	48 89 c7             	mov    %rax,%rdi
    3508:	e8 83 ea ff ff       	callq  1f90 <_ZNSt7__cxx1112basic_stringIcSt11char_traitsIcESaIcEEC1EPKcRKS3_@plt>
    350d:	48 8d 84 24 60 01 00 	lea    0x160(%rsp),%rax
    3514:	00 
    3515:	48 89 c6             	mov    %rax,%rsi
    3518:	48 89 ef             	mov    %rbp,%rdi
    351b:	e8 62 f3 ff ff       	callq  2882 <_ZNSt6localeC1Ev@plt+0x792>
    3520:	48 8d 84 24 60 01 00 	lea    0x160(%rsp),%rax
    3527:	00 
    3528:	48 89 c7             	mov    %rax,%rdi
    352b:	e8 d0 e8 ff ff       	callq  1e00 <_ZNSt7__cxx1112basic_stringIcSt11char_traitsIcESaIcEED1Ev@plt>
    3530:	48 8d 44 24 10       	lea    0x10(%rsp),%rax
    3535:	48 89 c7             	mov    %rax,%rdi
    3538:	e8 b3 e9 ff ff       	callq  1ef0 <_ZNSaIcED1Ev@plt>
    353d:	48 83 c5 20          	add    $0x20,%rbp
    3541:	48 83 eb 01          	sub    $0x1,%rbx
    3545:	48 8d 44 24 10       	lea    0x10(%rsp),%rax
    354a:	48 89 c7             	mov    %rax,%rdi
    354d:	e8 4e eb ff ff       	callq  20a0 <_ZNSaIcEC1Ev@plt>
    3552:	48 8d 54 24 10       	lea    0x10(%rsp),%rdx
    3557:	48 8d 84 24 60 01 00 	lea    0x160(%rsp),%rax
    355e:	00 
    355f:	48 8d 35 5d 46 00 00 	lea    0x465d(%rip),%rsi        # 7bc3 <_ZNSt6localeC1Ev@plt+0x5ad3>
    3566:	48 89 c7             	mov    %rax,%rdi
    3569:	e8 22 ea ff ff       	callq  1f90 <_ZNSt7__cxx1112basic_stringIcSt11char_traitsIcESaIcEEC1EPKcRKS3_@plt>
    356e:	48 8d 84 24 60 01 00 	lea    0x160(%rsp),%rax
    3575:	00 
    3576:	48 89 c6             	mov    %rax,%rsi
    3579:	48 89 ef             	mov    %rbp,%rdi
    357c:	e8 01 f3 ff ff       	callq  2882 <_ZNSt6localeC1Ev@plt+0x792>
    3581:	48 8d 84 24 60 01 00 	lea    0x160(%rsp),%rax
    3588:	00 
    3589:	48 89 c7             	mov    %rax,%rdi
    358c:	e8 6f e8 ff ff       	callq  1e00 <_ZNSt7__cxx1112basic_stringIcSt11char_traitsIcESaIcEED1Ev@plt>
    3591:	48 8d 44 24 10       	lea    0x10(%rsp),%rax
    3596:	48 89 c7             	mov    %rax,%rdi
    3599:	e8 52 e9 ff ff       	callq  1ef0 <_ZNSaIcED1Ev@plt>
    359e:	48 83 c5 20          	add    $0x20,%rbp
    35a2:	48 83 eb 01          	sub    $0x1,%rbx
    35a6:	48 8d 44 24 10       	lea    0x10(%rsp),%rax
    35ab:	48 89 c7             	mov    %rax,%rdi
    35ae:	e8 ed ea ff ff       	callq  20a0 <_ZNSaIcEC1Ev@plt>
    35b3:	48 8d 54 24 10       	lea    0x10(%rsp),%rdx
    35b8:	48 8d 84 24 60 01 00 	lea    0x160(%rsp),%rax
    35bf:	00 
    35c0:	48 8d 35 eb 45 00 00 	lea    0x45eb(%rip),%rsi        # 7bb2 <_ZNSt6localeC1Ev@plt+0x5ac2>
    35c7:	48 89 c7             	mov    %rax,%rdi
    35ca:	e8 c1 e9 ff ff       	callq  1f90 <_ZNSt7__cxx1112basic_stringIcSt11char_traitsIcESaIcEEC1EPKcRKS3_@plt>
    35cf:	48 8d 84 24 60 01 00 	lea    0x160(%rsp),%rax
    35d6:	00 
    35d7:	48 89 c6             	mov    %rax,%rsi
    35da:	48 89 ef             	mov    %rbp,%rdi
    35dd:	e8 a0 f2 ff ff       	callq  2882 <_ZNSt6localeC1Ev@plt+0x792>
    35e2:	48 8d 84 24 60 01 00 	lea    0x160(%rsp),%rax
    35e9:	00 
    35ea:	48 89 c7             	mov    %rax,%rdi
    35ed:	e8 0e e8 ff ff       	callq  1e00 <_ZNSt7__cxx1112basic_stringIcSt11char_traitsIcESaIcEED1Ev@plt>
    35f2:	48 8d 44 24 10       	lea    0x10(%rsp),%rax
    35f7:	48 89 c7             	mov    %rax,%rdi
    35fa:	e8 f1 e8 ff ff       	callq  1ef0 <_ZNSaIcED1Ev@plt>
    35ff:	48 83 c5 20          	add    $0x20,%rbp
    3603:	48 83 eb 01          	sub    $0x1,%rbx
    3607:	48 8d 44 24 10       	lea    0x10(%rsp),%rax
    360c:	48 89 c7             	mov    %rax,%rdi
    360f:	e8 8c ea ff ff       	callq  20a0 <_ZNSaIcEC1Ev@plt>
    3614:	48 8d 44 24 10       	lea    0x10(%rsp),%rax
    3619:	48 89 c2             	mov    %rax,%rdx
    361c:	48 8d 35 5d 45 00 00 	lea    0x455d(%rip),%rsi        # 7b80 <_ZNSt6localeC1Ev@plt+0x5a90>
    3623:	48 89 ef             	mov    %rbp,%rdi
    3626:	e8 65 e9 ff ff       	callq  1f90 <_ZNSt7__cxx1112basic_stringIcSt11char_traitsIcESaIcEEC1EPKcRKS3_@plt>
    362b:	48 8d 44 24 10       	lea    0x10(%rsp),%rax
    3630:	48 89 c7             	mov    %rax,%rdi
    3633:	e8 b8 e8 ff ff       	callq  1ef0 <_ZNSaIcED1Ev@plt>
    3638:	48 83 c5 20          	add    $0x20,%rbp
    363c:	48 83 eb 01          	sub    $0x1,%rbx
    3640:	48 8d 44 24 10       	lea    0x10(%rsp),%rax
    3645:	48 89 c7             	mov    %rax,%rdi
    3648:	e8 53 ea ff ff       	callq  20a0 <_ZNSaIcEC1Ev@plt>
    364d:	48 8d 54 24 10       	lea    0x10(%rsp),%rdx
    3652:	48 8d 84 24 60 01 00 	lea    0x160(%rsp),%rax
    3659:	00 
    365a:	48 8d 35 40 45 00 00 	lea    0x4540(%rip),%rsi        # 7ba1 <_ZNSt6localeC1Ev@plt+0x5ab1>
    3661:	48 89 c7             	mov    %rax,%rdi
    3664:	e8 27 e9 ff ff       	callq  1f90 <_ZNSt7__cxx1112basic_stringIcSt11char_traitsIcESaIcEEC1EPKcRKS3_@plt>
    3669:	48 8d 84 24 60 01 00 	lea    0x160(%rsp),%rax
    3670:	00 
    3671:	48 89 c6             	mov    %rax,%rsi
    3674:	48 89 ef             	mov    %rbp,%rdi
    3677:	e8 06 f2 ff ff       	callq  2882 <_ZNSt6localeC1Ev@plt+0x792>
    367c:	48 8d 84 24 60 01 00 	lea    0x160(%rsp),%rax
    3683:	00 
    3684:	48 89 c7             	mov    %rax,%rdi
    3687:	e8 74 e7 ff ff       	callq  1e00 <_ZNSt7__cxx1112basic_stringIcSt11char_traitsIcESaIcEED1Ev@plt>
    368c:	48 8d 44 24 10       	lea    0x10(%rsp),%rax
    3691:	48 89 c7             	mov    %rax,%rdi
    3694:	e8 57 e8 ff ff       	callq  1ef0 <_ZNSaIcED1Ev@plt>
    3699:	48 83 c5 20          	add    $0x20,%rbp
    369d:	48 83 eb 01          	sub    $0x1,%rbx
    36a1:	48 8d 44 24 10       	lea    0x10(%rsp),%rax
    36a6:	48 89 c7             	mov    %rax,%rdi
    36a9:	e8 f2 e9 ff ff       	callq  20a0 <_ZNSaIcEC1Ev@plt>
    36ae:	48 8d 54 24 10       	lea    0x10(%rsp),%rdx
    36b3:	48 8d 84 24 60 01 00 	lea    0x160(%rsp),%rax
    36ba:	00 
    36bb:	48 8d 35 01 45 00 00 	lea    0x4501(%rip),%rsi        # 7bc3 <_ZNSt6localeC1Ev@plt+0x5ad3>
    36c2:	48 89 c7             	mov    %rax,%rdi
    36c5:	e8 c6 e8 ff ff       	callq  1f90 <_ZNSt7__cxx1112basic_stringIcSt11char_traitsIcESaIcEEC1EPKcRKS3_@plt>
    36ca:	48 8d 84 24 60 01 00 	lea    0x160(%rsp),%rax
    36d1:	00 
    36d2:	48 89 c6             	mov    %rax,%rsi
    36d5:	48 89 ef             	mov    %rbp,%rdi
    36d8:	e8 a5 f1 ff ff       	callq  2882 <_ZNSt6localeC1Ev@plt+0x792>
    36dd:	48 8d 84 24 60 01 00 	lea    0x160(%rsp),%rax
    36e4:	00 
    36e5:	48 89 c7             	mov    %rax,%rdi
    36e8:	e8 13 e7 ff ff       	callq  1e00 <_ZNSt7__cxx1112basic_stringIcSt11char_traitsIcESaIcEED1Ev@plt>
    36ed:	48 8d 44 24 10       	lea    0x10(%rsp),%rax
    36f2:	48 89 c7             	mov    %rax,%rdi
    36f5:	e8 f6 e7 ff ff       	callq  1ef0 <_ZNSaIcED1Ev@plt>
    36fa:	48 83 c5 20          	add    $0x20,%rbp
    36fe:	48 83 eb 01          	sub    $0x1,%rbx
    3702:	48 8d 44 24 10       	lea    0x10(%rsp),%rax
    3707:	48 89 c7             	mov    %rax,%rdi
    370a:	e8 91 e9 ff ff       	callq  20a0 <_ZNSaIcEC1Ev@plt>
    370f:	48 8d 54 24 10       	lea    0x10(%rsp),%rdx
    3714:	48 8d 84 24 60 01 00 	lea    0x160(%rsp),%rax
    371b:	00 
    371c:	48 8d 35 fe 43 00 00 	lea    0x43fe(%rip),%rsi        # 7b21 <_ZNSt6localeC1Ev@plt+0x5a31>
    3723:	48 89 c7             	mov    %rax,%rdi
    3726:	e8 65 e8 ff ff       	callq  1f90 <_ZNSt7__cxx1112basic_stringIcSt11char_traitsIcESaIcEEC1EPKcRKS3_@plt>
    372b:	48 8d 84 24 60 01 00 	lea    0x160(%rsp),%rax
    3732:	00 
    3733:	48 89 c6             	mov    %rax,%rsi
    3736:	48 89 ef             	mov    %rbp,%rdi
    3739:	e8 44 f1 ff ff       	callq  2882 <_ZNSt6localeC1Ev@plt+0x792>
    373e:	48 8d 84 24 60 01 00 	lea    0x160(%rsp),%rax
    3745:	00 
    3746:	48 89 c7             	mov    %rax,%rdi
    3749:	e8 b2 e6 ff ff       	callq  1e00 <_ZNSt7__cxx1112basic_stringIcSt11char_traitsIcESaIcEED1Ev@plt>
    374e:	48 8d 44 24 10       	lea    0x10(%rsp),%rax
    3753:	48 89 c7             	mov    %rax,%rdi
    3756:	e8 95 e7 ff ff       	callq  1ef0 <_ZNSaIcED1Ev@plt>
    375b:	48 83 c5 20          	add    $0x20,%rbp
    375f:	48 83 eb 01          	sub    $0x1,%rbx
    3763:	48 8d 44 24 10       	lea    0x10(%rsp),%rax
    3768:	48 89 c7             	mov    %rax,%rdi
    376b:	e8 30 e9 ff ff       	callq  20a0 <_ZNSaIcEC1Ev@plt>
    3770:	48 8d 54 24 10       	lea    0x10(%rsp),%rdx
    3775:	48 8d 84 24 60 01 00 	lea    0x160(%rsp),%rax
    377c:	00 
    377d:	48 8d 35 50 44 00 00 	lea    0x4450(%rip),%rsi        # 7bd4 <_ZNSt6localeC1Ev@plt+0x5ae4>
    3784:	48 89 c7             	mov    %rax,%rdi
    3787:	e8 04 e8 ff ff       	callq  1f90 <_ZNSt7__cxx1112basic_stringIcSt11char_traitsIcESaIcEEC1EPKcRKS3_@plt>
    378c:	48 8d 84 24 60 01 00 	lea    0x160(%rsp),%rax
    3793:	00 
    3794:	48 89 c6             	mov    %rax,%rsi
    3797:	48 89 ef             	mov    %rbp,%rdi
    379a:	e8 e3 f0 ff ff       	callq  2882 <_ZNSt6localeC1Ev@plt+0x792>
    379f:	48 8d 84 24 60 01 00 	lea    0x160(%rsp),%rax
    37a6:	00 
    37a7:	48 89 c7             	mov    %rax,%rdi
    37aa:	e8 51 e6 ff ff       	callq  1e00 <_ZNSt7__cxx1112basic_stringIcSt11char_traitsIcESaIcEED1Ev@plt>
    37af:	48 8d 44 24 10       	lea    0x10(%rsp),%rax
    37b4:	48 89 c7             	mov    %rax,%rdi
    37b7:	e8 34 e7 ff ff       	callq  1ef0 <_ZNSaIcED1Ev@plt>
    37bc:	48 83 c5 20          	add    $0x20,%rbp
    37c0:	48 83 eb 01          	sub    $0x1,%rbx
    37c4:	48 8d 44 24 10       	lea    0x10(%rsp),%rax
    37c9:	48 89 c7             	mov    %rax,%rdi
    37cc:	e8 cf e8 ff ff       	callq  20a0 <_ZNSaIcEC1Ev@plt>
    37d1:	48 8d 54 24 10       	lea    0x10(%rsp),%rdx
    37d6:	48 8d 84 24 60 01 00 	lea    0x160(%rsp),%rax
    37dd:	00 
    37de:	48 8d 35 00 44 00 00 	lea    0x4400(%rip),%rsi        # 7be5 <_ZNSt6localeC1Ev@plt+0x5af5>
    37e5:	48 89 c7             	mov    %rax,%rdi
    37e8:	e8 a3 e7 ff ff       	callq  1f90 <_ZNSt7__cxx1112basic_stringIcSt11char_traitsIcESaIcEEC1EPKcRKS3_@plt>
    37ed:	48 8d 84 24 60 01 00 	lea    0x160(%rsp),%rax
    37f4:	00 
    37f5:	48 89 c6             	mov    %rax,%rsi
    37f8:	48 89 ef             	mov    %rbp,%rdi
    37fb:	e8 82 f0 ff ff       	callq  2882 <_ZNSt6localeC1Ev@plt+0x792>
    3800:	48 8d 84 24 60 01 00 	lea    0x160(%rsp),%rax
    3807:	00 
    3808:	48 89 c7             	mov    %rax,%rdi
    380b:	e8 f0 e5 ff ff       	callq  1e00 <_ZNSt7__cxx1112basic_stringIcSt11char_traitsIcESaIcEED1Ev@plt>
    3810:	48 8d 44 24 10       	lea    0x10(%rsp),%rax
    3815:	48 89 c7             	mov    %rax,%rdi
    3818:	e8 d3 e6 ff ff       	callq  1ef0 <_ZNSaIcED1Ev@plt>
    381d:	48 83 c5 20          	add    $0x20,%rbp
    3821:	48 83 eb 01          	sub    $0x1,%rbx
    3825:	48 8d 44 24 10       	lea    0x10(%rsp),%rax
    382a:	48 89 c7             	mov    %rax,%rdi
    382d:	e8 6e e8 ff ff       	callq  20a0 <_ZNSaIcEC1Ev@plt>
    3832:	48 8d 44 24 10       	lea    0x10(%rsp),%rax
    3837:	48 89 c2             	mov    %rax,%rdx
    383a:	48 8d 35 3f 43 00 00 	lea    0x433f(%rip),%rsi        # 7b80 <_ZNSt6localeC1Ev@plt+0x5a90>
    3841:	48 89 ef             	mov    %rbp,%rdi
    3844:	e8 47 e7 ff ff       	callq  1f90 <_ZNSt7__cxx1112basic_stringIcSt11char_traitsIcESaIcEEC1EPKcRKS3_@plt>
    3849:	48 8d 44 24 10       	lea    0x10(%rsp),%rax
    384e:	48 89 c7             	mov    %rax,%rdi
    3851:	e8 9a e6 ff ff       	callq  1ef0 <_ZNSaIcED1Ev@plt>
    3856:	48 83 c5 20          	add    $0x20,%rbp
    385a:	48 83 eb 01          	sub    $0x1,%rbx
    385e:	48 8d 44 24 10       	lea    0x10(%rsp),%rax
    3863:	48 89 c7             	mov    %rax,%rdi
    3866:	e8 35 e8 ff ff       	callq  20a0 <_ZNSaIcEC1Ev@plt>
    386b:	48 8d 54 24 10       	lea    0x10(%rsp),%rdx
    3870:	48 8d 84 24 60 01 00 	lea    0x160(%rsp),%rax
    3877:	00 
    3878:	48 8d 35 da 42 00 00 	lea    0x42da(%rip),%rsi        # 7b59 <_ZNSt6localeC1Ev@plt+0x5a69>
    387f:	48 89 c7             	mov    %rax,%rdi
    3882:	e8 09 e7 ff ff       	callq  1f90 <_ZNSt7__cxx1112basic_stringIcSt11char_traitsIcESaIcEEC1EPKcRKS3_@plt>
    3887:	48 8d 84 24 60 01 00 	lea    0x160(%rsp),%rax
    388e:	00 
    388f:	48 89 c6             	mov    %rax,%rsi
    3892:	48 89 ef             	mov    %rbp,%rdi
    3895:	e8 e8 ef ff ff       	callq  2882 <_ZNSt6localeC1Ev@plt+0x792>
    389a:	48 8d 84 24 60 01 00 	lea    0x160(%rsp),%rax
    38a1:	00 
    38a2:	48 89 c7             	mov    %rax,%rdi
    38a5:	e8 56 e5 ff ff       	callq  1e00 <_ZNSt7__cxx1112basic_stringIcSt11char_traitsIcESaIcEED1Ev@plt>
    38aa:	48 8d 44 24 10       	lea    0x10(%rsp),%rax
    38af:	48 89 c7             	mov    %rax,%rdi
    38b2:	e8 39 e6 ff ff       	callq  1ef0 <_ZNSaIcED1Ev@plt>
    38b7:	48 83 c5 20          	add    $0x20,%rbp
    38bb:	48 83 eb 01          	sub    $0x1,%rbx
    38bf:	48 8d 44 24 10       	lea    0x10(%rsp),%rax
    38c4:	48 89 c7             	mov    %rax,%rdi
    38c7:	e8 d4 e7 ff ff       	callq  20a0 <_ZNSaIcEC1Ev@plt>
    38cc:	48 8d 54 24 10       	lea    0x10(%rsp),%rdx
    38d1:	48 8d 84 24 60 01 00 	lea    0x160(%rsp),%rax
    38d8:	00 
    38d9:	48 8d 35 f4 42 00 00 	lea    0x42f4(%rip),%rsi        # 7bd4 <_ZNSt6localeC1Ev@plt+0x5ae4>
    38e0:	48 89 c7             	mov    %rax,%rdi
    38e3:	e8 a8 e6 ff ff       	callq  1f90 <_ZNSt7__cxx1112basic_stringIcSt11char_traitsIcESaIcEEC1EPKcRKS3_@plt>
    38e8:	48 8d 84 24 60 01 00 	lea    0x160(%rsp),%rax
    38ef:	00 
    38f0:	48 89 c6             	mov    %rax,%rsi
    38f3:	48 89 ef             	mov    %rbp,%rdi
    38f6:	e8 87 ef ff ff       	callq  2882 <_ZNSt6localeC1Ev@plt+0x792>
    38fb:	48 8d 84 24 60 01 00 	lea    0x160(%rsp),%rax
    3902:	00 
    3903:	48 89 c7             	mov    %rax,%rdi
    3906:	e8 f5 e4 ff ff       	callq  1e00 <_ZNSt7__cxx1112basic_stringIcSt11char_traitsIcESaIcEED1Ev@plt>
    390b:	48 8d 44 24 10       	lea    0x10(%rsp),%rax
    3910:	48 89 c7             	mov    %rax,%rdi
    3913:	e8 d8 e5 ff ff       	callq  1ef0 <_ZNSaIcED1Ev@plt>
    3918:	48 83 c5 20          	add    $0x20,%rbp
    391c:	48 83 eb 01          	sub    $0x1,%rbx
    3920:	48 8d 44 24 10       	lea    0x10(%rsp),%rax
    3925:	48 89 c7             	mov    %rax,%rdi
    3928:	e8 73 e7 ff ff       	callq  20a0 <_ZNSaIcEC1Ev@plt>
    392d:	48 8d 44 24 10       	lea    0x10(%rsp),%rax
    3932:	48 89 c2             	mov    %rax,%rdx
    3935:	48 8d 35 fc 41 00 00 	lea    0x41fc(%rip),%rsi        # 7b38 <_ZNSt6localeC1Ev@plt+0x5a48>
    393c:	48 89 ef             	mov    %rbp,%rdi
    393f:	e8 4c e6 ff ff       	callq  1f90 <_ZNSt7__cxx1112basic_stringIcSt11char_traitsIcESaIcEEC1EPKcRKS3_@plt>
    3944:	48 8d 44 24 10       	lea    0x10(%rsp),%rax
    3949:	48 89 c7             	mov    %rax,%rdi
    394c:	e8 9f e5 ff ff       	callq  1ef0 <_ZNSaIcED1Ev@plt>
    3951:	48 83 c5 20          	add    $0x20,%rbp
    3955:	48 83 eb 01          	sub    $0x1,%rbx
    3959:	48 8d 44 24 10       	lea    0x10(%rsp),%rax
    395e:	48 89 c7             	mov    %rax,%rdi
    3961:	e8 3a e7 ff ff       	callq  20a0 <_ZNSaIcEC1Ev@plt>
    3966:	48 8d 54 24 10       	lea    0x10(%rsp),%rdx
    396b:	48 8d 84 24 60 01 00 	lea    0x160(%rsp),%rax
    3972:	00 
    3973:	48 8d 35 7c 42 00 00 	lea    0x427c(%rip),%rsi        # 7bf6 <_ZNSt6localeC1Ev@plt+0x5b06>
    397a:	48 89 c7             	mov    %rax,%rdi
    397d:	e8 0e e6 ff ff       	callq  1f90 <_ZNSt7__cxx1112basic_stringIcSt11char_traitsIcESaIcEEC1EPKcRKS3_@plt>
    3982:	48 8d 84 24 60 01 00 	lea    0x160(%rsp),%rax
    3989:	00 
    398a:	48 89 c6             	mov    %rax,%rsi
    398d:	48 89 ef             	mov    %rbp,%rdi
    3990:	e8 ed ee ff ff       	callq  2882 <_ZNSt6localeC1Ev@plt+0x792>
    3995:	48 8d 84 24 60 01 00 	lea    0x160(%rsp),%rax
    399c:	00 
    399d:	48 89 c7             	mov    %rax,%rdi
    39a0:	e8 5b e4 ff ff       	callq  1e00 <_ZNSt7__cxx1112basic_stringIcSt11char_traitsIcESaIcEED1Ev@plt>
    39a5:	48 8d 44 24 10       	lea    0x10(%rsp),%rax
    39aa:	48 89 c7             	mov    %rax,%rdi
    39ad:	e8 3e e5 ff ff       	callq  1ef0 <_ZNSaIcED1Ev@plt>
    39b2:	48 83 c5 20          	add    $0x20,%rbp
    39b6:	48 83 eb 01          	sub    $0x1,%rbx
    39ba:	48 8d 44 24 10       	lea    0x10(%rsp),%rax
    39bf:	48 89 c7             	mov    %rax,%rdi
    39c2:	e8 d9 e6 ff ff       	callq  20a0 <_ZNSaIcEC1Ev@plt>
    39c7:	48 8d 54 24 10       	lea    0x10(%rsp),%rdx
    39cc:	48 8d 84 24 60 01 00 	lea    0x160(%rsp),%rax
    39d3:	00 
    39d4:	48 8d 35 2c 42 00 00 	lea    0x422c(%rip),%rsi        # 7c07 <_ZNSt6localeC1Ev@plt+0x5b17>
    39db:	48 89 c7             	mov    %rax,%rdi
    39de:	e8 ad e5 ff ff       	callq  1f90 <_ZNSt7__cxx1112basic_stringIcSt11char_traitsIcESaIcEEC1EPKcRKS3_@plt>
    39e3:	48 8d 84 24 60 01 00 	lea    0x160(%rsp),%rax
    39ea:	00 
    39eb:	48 89 c6             	mov    %rax,%rsi
    39ee:	48 89 ef             	mov    %rbp,%rdi
    39f1:	e8 8c ee ff ff       	callq  2882 <_ZNSt6localeC1Ev@plt+0x792>
    39f6:	48 8d 84 24 60 01 00 	lea    0x160(%rsp),%rax
    39fd:	00 
    39fe:	48 89 c7             	mov    %rax,%rdi
    3a01:	e8 fa e3 ff ff       	callq  1e00 <_ZNSt7__cxx1112basic_stringIcSt11char_traitsIcESaIcEED1Ev@plt>
    3a06:	48 8d 44 24 10       	lea    0x10(%rsp),%rax
    3a0b:	48 89 c7             	mov    %rax,%rdi
    3a0e:	e8 dd e4 ff ff       	callq  1ef0 <_ZNSaIcED1Ev@plt>
    3a13:	48 83 c5 20          	add    $0x20,%rbp
    3a17:	48 83 eb 01          	sub    $0x1,%rbx
    3a1b:	48 8d 44 24 10       	lea    0x10(%rsp),%rax
    3a20:	48 89 c7             	mov    %rax,%rdi
    3a23:	e8 78 e6 ff ff       	callq  20a0 <_ZNSaIcEC1Ev@plt>
    3a28:	48 8d 54 24 10       	lea    0x10(%rsp),%rdx
    3a2d:	48 8d 84 24 60 01 00 	lea    0x160(%rsp),%rax
    3a34:	00 
    3a35:	48 8d 35 e5 40 00 00 	lea    0x40e5(%rip),%rsi        # 7b21 <_ZNSt6localeC1Ev@plt+0x5a31>
    3a3c:	48 89 c7             	mov    %rax,%rdi
    3a3f:	e8 4c e5 ff ff       	callq  1f90 <_ZNSt7__cxx1112basic_stringIcSt11char_traitsIcESaIcEEC1EPKcRKS3_@plt>
    3a44:	48 8d 84 24 60 01 00 	lea    0x160(%rsp),%rax
    3a4b:	00 
    3a4c:	48 89 c6             	mov    %rax,%rsi
    3a4f:	48 89 ef             	mov    %rbp,%rdi
    3a52:	e8 2b ee ff ff       	callq  2882 <_ZNSt6localeC1Ev@plt+0x792>
    3a57:	48 8d 84 24 60 01 00 	lea    0x160(%rsp),%rax
    3a5e:	00 
    3a5f:	48 89 c7             	mov    %rax,%rdi
    3a62:	e8 99 e3 ff ff       	callq  1e00 <_ZNSt7__cxx1112basic_stringIcSt11char_traitsIcESaIcEED1Ev@plt>
    3a67:	48 8d 44 24 10       	lea    0x10(%rsp),%rax
    3a6c:	48 89 c7             	mov    %rax,%rdi
    3a6f:	e8 7c e4 ff ff       	callq  1ef0 <_ZNSaIcED1Ev@plt>
    3a74:	48 83 c5 20          	add    $0x20,%rbp
    3a78:	48 83 eb 01          	sub    $0x1,%rbx
    3a7c:	48 8d 44 24 10       	lea    0x10(%rsp),%rax
    3a81:	48 89 c7             	mov    %rax,%rdi
    3a84:	e8 17 e6 ff ff       	callq  20a0 <_ZNSaIcEC1Ev@plt>
    3a89:	48 8d 54 24 10       	lea    0x10(%rsp),%rdx
    3a8e:	48 8d 84 24 60 01 00 	lea    0x160(%rsp),%rax
    3a95:	00 
    3a96:	48 8d 35 48 41 00 00 	lea    0x4148(%rip),%rsi        # 7be5 <_ZNSt6localeC1Ev@plt+0x5af5>
    3a9d:	48 89 c7             	mov    %rax,%rdi
    3aa0:	e8 eb e4 ff ff       	callq  1f90 <_ZNSt7__cxx1112basic_stringIcSt11char_traitsIcESaIcEEC1EPKcRKS3_@plt>
    3aa5:	48 8d 84 24 60 01 00 	lea    0x160(%rsp),%rax
    3aac:	00 
    3aad:	48 89 c6             	mov    %rax,%rsi
    3ab0:	48 89 ef             	mov    %rbp,%rdi
    3ab3:	e8 ca ed ff ff       	callq  2882 <_ZNSt6localeC1Ev@plt+0x792>
    3ab8:	48 8d 84 24 60 01 00 	lea    0x160(%rsp),%rax
    3abf:	00 
    3ac0:	48 89 c7             	mov    %rax,%rdi
    3ac3:	e8 38 e3 ff ff       	callq  1e00 <_ZNSt7__cxx1112basic_stringIcSt11char_traitsIcESaIcEED1Ev@plt>
    3ac8:	48 8d 44 24 10       	lea    0x10(%rsp),%rax
    3acd:	48 89 c7             	mov    %rax,%rdi
    3ad0:	e8 1b e4 ff ff       	callq  1ef0 <_ZNSaIcED1Ev@plt>
    3ad5:	48 83 c5 20          	add    $0x20,%rbp
    3ad9:	48 83 eb 01          	sub    $0x1,%rbx
    3add:	48 8d 44 24 10       	lea    0x10(%rsp),%rax
    3ae2:	48 89 c7             	mov    %rax,%rdi
    3ae5:	e8 b6 e5 ff ff       	callq  20a0 <_ZNSaIcEC1Ev@plt>
    3aea:	48 8d 54 24 10       	lea    0x10(%rsp),%rdx
    3aef:	48 8d 84 24 60 01 00 	lea    0x160(%rsp),%rax
    3af6:	00 
    3af7:	48 8d 35 5b 40 00 00 	lea    0x405b(%rip),%rsi        # 7b59 <_ZNSt6localeC1Ev@plt+0x5a69>
    3afe:	48 89 c7             	mov    %rax,%rdi
    3b01:	e8 8a e4 ff ff       	callq  1f90 <_ZNSt7__cxx1112basic_stringIcSt11char_traitsIcESaIcEEC1EPKcRKS3_@plt>
    3b06:	48 8d 84 24 60 01 00 	lea    0x160(%rsp),%rax
    3b0d:	00 
    3b0e:	48 89 c6             	mov    %rax,%rsi
    3b11:	48 89 ef             	mov    %rbp,%rdi
    3b14:	e8 69 ed ff ff       	callq  2882 <_ZNSt6localeC1Ev@plt+0x792>
    3b19:	48 8d 84 24 60 01 00 	lea    0x160(%rsp),%rax
    3b20:	00 
    3b21:	48 89 c7             	mov    %rax,%rdi
    3b24:	e8 d7 e2 ff ff       	callq  1e00 <_ZNSt7__cxx1112basic_stringIcSt11char_traitsIcESaIcEED1Ev@plt>
    3b29:	48 8d 44 24 10       	lea    0x10(%rsp),%rax
    3b2e:	48 89 c7             	mov    %rax,%rdi
    3b31:	e8 ba e3 ff ff       	callq  1ef0 <_ZNSaIcED1Ev@plt>
    3b36:	48 83 c5 20          	add    $0x20,%rbp
    3b3a:	48 83 eb 01          	sub    $0x1,%rbx
    3b3e:	48 8d 44 24 10       	lea    0x10(%rsp),%rax
    3b43:	48 89 c7             	mov    %rax,%rdi
    3b46:	e8 55 e5 ff ff       	callq  20a0 <_ZNSaIcEC1Ev@plt>
    3b4b:	48 8d 54 24 10       	lea    0x10(%rsp),%rdx
    3b50:	48 8d 84 24 60 01 00 	lea    0x160(%rsp),%rax
    3b57:	00 
    3b58:	48 8d 35 b9 40 00 00 	lea    0x40b9(%rip),%rsi        # 7c18 <_ZNSt6localeC1Ev@plt+0x5b28>
    3b5f:	48 89 c7             	mov    %rax,%rdi
    3b62:	e8 29 e4 ff ff       	callq  1f90 <_ZNSt7__cxx1112basic_stringIcSt11char_traitsIcESaIcEEC1EPKcRKS3_@plt>
    3b67:	48 8d 84 24 60 01 00 	lea    0x160(%rsp),%rax
    3b6e:	00 
    3b6f:	48 89 c6             	mov    %rax,%rsi
    3b72:	48 89 ef             	mov    %rbp,%rdi
    3b75:	e8 08 ed ff ff       	callq  2882 <_ZNSt6localeC1Ev@plt+0x792>
    3b7a:	48 8d 84 24 60 01 00 	lea    0x160(%rsp),%rax
    3b81:	00 
    3b82:	48 89 c7             	mov    %rax,%rdi
    3b85:	e8 76 e2 ff ff       	callq  1e00 <_ZNSt7__cxx1112basic_stringIcSt11char_traitsIcESaIcEED1Ev@plt>
    3b8a:	48 8d 44 24 10       	lea    0x10(%rsp),%rax
    3b8f:	48 89 c7             	mov    %rax,%rdi
    3b92:	e8 59 e3 ff ff       	callq  1ef0 <_ZNSaIcED1Ev@plt>
    3b97:	48 83 c5 20          	add    $0x20,%rbp
    3b9b:	48 83 eb 01          	sub    $0x1,%rbx
    3b9f:	48 8d 44 24 10       	lea    0x10(%rsp),%rax
    3ba4:	48 89 c7             	mov    %rax,%rdi
    3ba7:	e8 f4 e4 ff ff       	callq  20a0 <_ZNSaIcEC1Ev@plt>
    3bac:	48 8d 54 24 10       	lea    0x10(%rsp),%rdx
    3bb1:	48 8d 84 24 60 01 00 	lea    0x160(%rsp),%rax
    3bb8:	00 
    3bb9:	48 8d 35 47 40 00 00 	lea    0x4047(%rip),%rsi        # 7c07 <_ZNSt6localeC1Ev@plt+0x5b17>
    3bc0:	48 89 c7             	mov    %rax,%rdi
    3bc3:	e8 c8 e3 ff ff       	callq  1f90 <_ZNSt7__cxx1112basic_stringIcSt11char_traitsIcESaIcEEC1EPKcRKS3_@plt>
    3bc8:	48 8d 84 24 60 01 00 	lea    0x160(%rsp),%rax
    3bcf:	00 
    3bd0:	48 89 c6             	mov    %rax,%rsi
    3bd3:	48 89 ef             	mov    %rbp,%rdi
    3bd6:	e8 a7 ec ff ff       	callq  2882 <_ZNSt6localeC1Ev@plt+0x792>
    3bdb:	48 8d 84 24 60 01 00 	lea    0x160(%rsp),%rax
    3be2:	00 
    3be3:	48 89 c7             	mov    %rax,%rdi
    3be6:	e8 15 e2 ff ff       	callq  1e00 <_ZNSt7__cxx1112basic_stringIcSt11char_traitsIcESaIcEED1Ev@plt>
    3beb:	48 8d 44 24 10       	lea    0x10(%rsp),%rax
    3bf0:	48 89 c7             	mov    %rax,%rdi
    3bf3:	e8 f8 e2 ff ff       	callq  1ef0 <_ZNSaIcED1Ev@plt>
    3bf8:	48 83 c5 20          	add    $0x20,%rbp
    3bfc:	48 83 eb 01          	sub    $0x1,%rbx
    3c00:	48 8d 44 24 10       	lea    0x10(%rsp),%rax
    3c05:	48 89 c7             	mov    %rax,%rdi
    3c08:	e8 93 e4 ff ff       	callq  20a0 <_ZNSaIcEC1Ev@plt>
    3c0d:	48 8d 54 24 10       	lea    0x10(%rsp),%rdx
    3c12:	48 8d 84 24 60 01 00 	lea    0x160(%rsp),%rax
    3c19:	00 
    3c1a:	48 8d 35 b3 3f 00 00 	lea    0x3fb3(%rip),%rsi        # 7bd4 <_ZNSt6localeC1Ev@plt+0x5ae4>
    3c21:	48 89 c7             	mov    %rax,%rdi
    3c24:	e8 67 e3 ff ff       	callq  1f90 <_ZNSt7__cxx1112basic_stringIcSt11char_traitsIcESaIcEEC1EPKcRKS3_@plt>
    3c29:	48 8d 84 24 60 01 00 	lea    0x160(%rsp),%rax
    3c30:	00 
    3c31:	48 89 c6             	mov    %rax,%rsi
    3c34:	48 89 ef             	mov    %rbp,%rdi
    3c37:	e8 46 ec ff ff       	callq  2882 <_ZNSt6localeC1Ev@plt+0x792>
    3c3c:	48 8d 84 24 60 01 00 	lea    0x160(%rsp),%rax
    3c43:	00 
    3c44:	48 89 c7             	mov    %rax,%rdi
    3c47:	e8 b4 e1 ff ff       	callq  1e00 <_ZNSt7__cxx1112basic_stringIcSt11char_traitsIcESaIcEED1Ev@plt>
    3c4c:	48 8d 44 24 10       	lea    0x10(%rsp),%rax
    3c51:	48 89 c7             	mov    %rax,%rdi
    3c54:	e8 97 e2 ff ff       	callq  1ef0 <_ZNSaIcED1Ev@plt>
    3c59:	48 83 c5 20          	add    $0x20,%rbp
    3c5d:	48 83 eb 01          	sub    $0x1,%rbx
    3c61:	48 8d 44 24 10       	lea    0x10(%rsp),%rax
    3c66:	48 89 c7             	mov    %rax,%rdi
    3c69:	e8 32 e4 ff ff       	callq  20a0 <_ZNSaIcEC1Ev@plt>
    3c6e:	48 8d 54 24 10       	lea    0x10(%rsp),%rdx
    3c73:	48 8d 84 24 60 01 00 	lea    0x160(%rsp),%rax
    3c7a:	00 
    3c7b:	48 8d 35 52 3f 00 00 	lea    0x3f52(%rip),%rsi        # 7bd4 <_ZNSt6localeC1Ev@plt+0x5ae4>
    3c82:	48 89 c7             	mov    %rax,%rdi
    3c85:	e8 06 e3 ff ff       	callq  1f90 <_ZNSt7__cxx1112basic_stringIcSt11char_traitsIcESaIcEEC1EPKcRKS3_@plt>
    3c8a:	48 8d 84 24 60 01 00 	lea    0x160(%rsp),%rax
    3c91:	00 
    3c92:	48 89 c6             	mov    %rax,%rsi
    3c95:	48 89 ef             	mov    %rbp,%rdi
    3c98:	e8 e5 eb ff ff       	callq  2882 <_ZNSt6localeC1Ev@plt+0x792>
    3c9d:	48 8d 84 24 60 01 00 	lea    0x160(%rsp),%rax
    3ca4:	00 
    3ca5:	48 89 c7             	mov    %rax,%rdi
    3ca8:	e8 53 e1 ff ff       	callq  1e00 <_ZNSt7__cxx1112basic_stringIcSt11char_traitsIcESaIcEED1Ev@plt>
    3cad:	48 8d 44 24 10       	lea    0x10(%rsp),%rax
    3cb2:	48 89 c7             	mov    %rax,%rdi
    3cb5:	e8 36 e2 ff ff       	callq  1ef0 <_ZNSaIcED1Ev@plt>
    3cba:	48 83 c5 20          	add    $0x20,%rbp
    3cbe:	48 83 eb 01          	sub    $0x1,%rbx
    3cc2:	48 8d 44 24 10       	lea    0x10(%rsp),%rax
    3cc7:	48 89 c7             	mov    %rax,%rdi
    3cca:	e8 d1 e3 ff ff       	callq  20a0 <_ZNSaIcEC1Ev@plt>
    3ccf:	48 8d 54 24 10       	lea    0x10(%rsp),%rdx
    3cd4:	48 8d 84 24 60 01 00 	lea    0x160(%rsp),%rax
    3cdb:	00 
    3cdc:	48 8d 35 e0 3e 00 00 	lea    0x3ee0(%rip),%rsi        # 7bc3 <_ZNSt6localeC1Ev@plt+0x5ad3>
    3ce3:	48 89 c7             	mov    %rax,%rdi
    3ce6:	e8 a5 e2 ff ff       	callq  1f90 <_ZNSt7__cxx1112basic_stringIcSt11char_traitsIcESaIcEEC1EPKcRKS3_@plt>
    3ceb:	48 8d 84 24 60 01 00 	lea    0x160(%rsp),%rax
    3cf2:	00 
    3cf3:	48 89 c6             	mov    %rax,%rsi
    3cf6:	48 89 ef             	mov    %rbp,%rdi
    3cf9:	e8 84 eb ff ff       	callq  2882 <_ZNSt6localeC1Ev@plt+0x792>
    3cfe:	48 8d 84 24 60 01 00 	lea    0x160(%rsp),%rax
    3d05:	00 
    3d06:	48 89 c7             	mov    %rax,%rdi
    3d09:	e8 f2 e0 ff ff       	callq  1e00 <_ZNSt7__cxx1112basic_stringIcSt11char_traitsIcESaIcEED1Ev@plt>
    3d0e:	48 8d 44 24 10       	lea    0x10(%rsp),%rax
    3d13:	48 89 c7             	mov    %rax,%rdi
    3d16:	e8 d5 e1 ff ff       	callq  1ef0 <_ZNSaIcED1Ev@plt>
    3d1b:	48 83 c5 20          	add    $0x20,%rbp
    3d1f:	48 83 eb 01          	sub    $0x1,%rbx
    3d23:	48 8d 44 24 10       	lea    0x10(%rsp),%rax
    3d28:	48 89 c7             	mov    %rax,%rdi
    3d2b:	e8 70 e3 ff ff       	callq  20a0 <_ZNSaIcEC1Ev@plt>
    3d30:	48 8d 54 24 10       	lea    0x10(%rsp),%rdx
    3d35:	48 8d 84 24 60 01 00 	lea    0x160(%rsp),%rax
    3d3c:	00 
    3d3d:	48 8d 35 7f 3e 00 00 	lea    0x3e7f(%rip),%rsi        # 7bc3 <_ZNSt6localeC1Ev@plt+0x5ad3>
    3d44:	48 89 c7             	mov    %rax,%rdi
    3d47:	e8 44 e2 ff ff       	callq  1f90 <_ZNSt7__cxx1112basic_stringIcSt11char_traitsIcESaIcEEC1EPKcRKS3_@plt>
    3d4c:	48 8d 84 24 60 01 00 	lea    0x160(%rsp),%rax
    3d53:	00 
    3d54:	48 89 c6             	mov    %rax,%rsi
    3d57:	48 89 ef             	mov    %rbp,%rdi
    3d5a:	e8 23 eb ff ff       	callq  2882 <_ZNSt6localeC1Ev@plt+0x792>
    3d5f:	48 8d 84 24 60 01 00 	lea    0x160(%rsp),%rax
    3d66:	00 
    3d67:	48 89 c7             	mov    %rax,%rdi
    3d6a:	e8 91 e0 ff ff       	callq  1e00 <_ZNSt7__cxx1112basic_stringIcSt11char_traitsIcESaIcEED1Ev@plt>
    3d6f:	48 8d 44 24 10       	lea    0x10(%rsp),%rax
    3d74:	48 89 c7             	mov    %rax,%rdi
    3d77:	e8 74 e1 ff ff       	callq  1ef0 <_ZNSaIcED1Ev@plt>
    3d7c:	48 83 c5 20          	add    $0x20,%rbp
    3d80:	48 83 eb 01          	sub    $0x1,%rbx
    3d84:	48 8d 44 24 10       	lea    0x10(%rsp),%rax
    3d89:	48 89 c7             	mov    %rax,%rdi
    3d8c:	e8 0f e3 ff ff       	callq  20a0 <_ZNSaIcEC1Ev@plt>
    3d91:	48 8d 54 24 10       	lea    0x10(%rsp),%rdx
    3d96:	48 8d 84 24 60 01 00 	lea    0x160(%rsp),%rax
    3d9d:	00 
    3d9e:	48 8d 35 51 3e 00 00 	lea    0x3e51(%rip),%rsi        # 7bf6 <_ZNSt6localeC1Ev@plt+0x5b06>
    3da5:	48 89 c7             	mov    %rax,%rdi
    3da8:	e8 e3 e1 ff ff       	callq  1f90 <_ZNSt7__cxx1112basic_stringIcSt11char_traitsIcESaIcEEC1EPKcRKS3_@plt>
    3dad:	48 8d 84 24 60 01 00 	lea    0x160(%rsp),%rax
    3db4:	00 
    3db5:	48 89 c6             	mov    %rax,%rsi
    3db8:	48 89 ef             	mov    %rbp,%rdi
    3dbb:	e8 c2 ea ff ff       	callq  2882 <_ZNSt6localeC1Ev@plt+0x792>
    3dc0:	48 8d 84 24 60 01 00 	lea    0x160(%rsp),%rax
    3dc7:	00 
    3dc8:	48 89 c7             	mov    %rax,%rdi
    3dcb:	e8 30 e0 ff ff       	callq  1e00 <_ZNSt7__cxx1112basic_stringIcSt11char_traitsIcESaIcEED1Ev@plt>
    3dd0:	48 8d 44 24 10       	lea    0x10(%rsp),%rax
    3dd5:	48 89 c7             	mov    %rax,%rdi
    3dd8:	e8 13 e1 ff ff       	callq  1ef0 <_ZNSaIcED1Ev@plt>
    3ddd:	48 83 c5 20          	add    $0x20,%rbp
    3de1:	48 83 eb 01          	sub    $0x1,%rbx
    3de5:	48 8d 44 24 10       	lea    0x10(%rsp),%rax
    3dea:	48 89 c7             	mov    %rax,%rdi
    3ded:	e8 ae e2 ff ff       	callq  20a0 <_ZNSaIcEC1Ev@plt>
    3df2:	48 8d 54 24 10       	lea    0x10(%rsp),%rdx
    3df7:	48 8d 84 24 60 01 00 	lea    0x160(%rsp),%rax
    3dfe:	00 
    3dff:	48 8d 35 f0 3d 00 00 	lea    0x3df0(%rip),%rsi        # 7bf6 <_ZNSt6localeC1Ev@plt+0x5b06>
    3e06:	48 89 c7             	mov    %rax,%rdi
    3e09:	e8 82 e1 ff ff       	callq  1f90 <_ZNSt7__cxx1112basic_stringIcSt11char_traitsIcESaIcEEC1EPKcRKS3_@plt>
    3e0e:	48 8d 84 24 60 01 00 	lea    0x160(%rsp),%rax
    3e15:	00 
    3e16:	48 89 c6             	mov    %rax,%rsi
    3e19:	48 89 ef             	mov    %rbp,%rdi
    3e1c:	e8 61 ea ff ff       	callq  2882 <_ZNSt6localeC1Ev@plt+0x792>
    3e21:	48 8d 84 24 60 01 00 	lea    0x160(%rsp),%rax
    3e28:	00 
    3e29:	48 89 c7             	mov    %rax,%rdi
    3e2c:	e8 cf df ff ff       	callq  1e00 <_ZNSt7__cxx1112basic_stringIcSt11char_traitsIcESaIcEED1Ev@plt>
    3e31:	48 8d 44 24 10       	lea    0x10(%rsp),%rax
    3e36:	48 89 c7             	mov    %rax,%rdi
    3e39:	e8 b2 e0 ff ff       	callq  1ef0 <_ZNSaIcED1Ev@plt>
    3e3e:	48 83 c5 20          	add    $0x20,%rbp
    3e42:	48 83 eb 01          	sub    $0x1,%rbx
    3e46:	48 8d 44 24 10       	lea    0x10(%rsp),%rax
    3e4b:	48 89 c7             	mov    %rax,%rdi
    3e4e:	e8 4d e2 ff ff       	callq  20a0 <_ZNSaIcEC1Ev@plt>
    3e53:	48 8d 54 24 10       	lea    0x10(%rsp),%rdx
    3e58:	48 8d 84 24 60 01 00 	lea    0x160(%rsp),%rax
    3e5f:	00 
    3e60:	48 8d 35 c2 3d 00 00 	lea    0x3dc2(%rip),%rsi        # 7c29 <_ZNSt6localeC1Ev@plt+0x5b39>
    3e67:	48 89 c7             	mov    %rax,%rdi
    3e6a:	e8 21 e1 ff ff       	callq  1f90 <_ZNSt7__cxx1112basic_stringIcSt11char_traitsIcESaIcEEC1EPKcRKS3_@plt>
    3e6f:	48 8d 84 24 60 01 00 	lea    0x160(%rsp),%rax
    3e76:	00 
    3e77:	48 89 c6             	mov    %rax,%rsi
    3e7a:	48 89 ef             	mov    %rbp,%rdi
    3e7d:	e8 00 ea ff ff       	callq  2882 <_ZNSt6localeC1Ev@plt+0x792>
    3e82:	48 8d 84 24 60 01 00 	lea    0x160(%rsp),%rax
    3e89:	00 
    3e8a:	48 89 c7             	mov    %rax,%rdi
    3e8d:	e8 6e df ff ff       	callq  1e00 <_ZNSt7__cxx1112basic_stringIcSt11char_traitsIcESaIcEED1Ev@plt>
    3e92:	48 8d 44 24 10       	lea    0x10(%rsp),%rax
    3e97:	48 89 c7             	mov    %rax,%rdi
    3e9a:	e8 51 e0 ff ff       	callq  1ef0 <_ZNSaIcED1Ev@plt>
    3e9f:	48 83 c5 20          	add    $0x20,%rbp
    3ea3:	48 83 eb 01          	sub    $0x1,%rbx
    3ea7:	48 8d 44 24 10       	lea    0x10(%rsp),%rax
    3eac:	48 89 c7             	mov    %rax,%rdi
    3eaf:	e8 ec e1 ff ff       	callq  20a0 <_ZNSaIcEC1Ev@plt>
    3eb4:	48 8d 54 24 10       	lea    0x10(%rsp),%rdx
    3eb9:	48 8d 84 24 60 01 00 	lea    0x160(%rsp),%rax
    3ec0:	00 
    3ec1:	48 8d 35 a2 3c 00 00 	lea    0x3ca2(%rip),%rsi        # 7b6a <_ZNSt6localeC1Ev@plt+0x5a7a>
    3ec8:	48 89 c7             	mov    %rax,%rdi
    3ecb:	e8 c0 e0 ff ff       	callq  1f90 <_ZNSt7__cxx1112basic_stringIcSt11char_traitsIcESaIcEEC1EPKcRKS3_@plt>
    3ed0:	48 8d 84 24 60 01 00 	lea    0x160(%rsp),%rax
    3ed7:	00 
    3ed8:	48 89 c6             	mov    %rax,%rsi
    3edb:	48 89 ef             	mov    %rbp,%rdi
    3ede:	e8 9f e9 ff ff       	callq  2882 <_ZNSt6localeC1Ev@plt+0x792>
    3ee3:	48 8d 84 24 60 01 00 	lea    0x160(%rsp),%rax
    3eea:	00 
    3eeb:	48 89 c7             	mov    %rax,%rdi
    3eee:	e8 0d df ff ff       	callq  1e00 <_ZNSt7__cxx1112basic_stringIcSt11char_traitsIcESaIcEED1Ev@plt>
    3ef3:	48 8d 44 24 10       	lea    0x10(%rsp),%rax
    3ef8:	48 89 c7             	mov    %rax,%rdi
    3efb:	e8 f0 df ff ff       	callq  1ef0 <_ZNSaIcED1Ev@plt>
    3f00:	48 83 c5 20          	add    $0x20,%rbp
    3f04:	48 83 eb 01          	sub    $0x1,%rbx
    3f08:	48 8d 44 24 10       	lea    0x10(%rsp),%rax
    3f0d:	48 89 c7             	mov    %rax,%rdi
    3f10:	e8 8b e1 ff ff       	callq  20a0 <_ZNSaIcEC1Ev@plt>
    3f15:	48 8d 54 24 10       	lea    0x10(%rsp),%rdx
    3f1a:	48 8d 84 24 60 01 00 	lea    0x160(%rsp),%rax
    3f21:	00 
    3f22:	48 8d 35 f8 3b 00 00 	lea    0x3bf8(%rip),%rsi        # 7b21 <_ZNSt6localeC1Ev@plt+0x5a31>
    3f29:	48 89 c7             	mov    %rax,%rdi
    3f2c:	e8 5f e0 ff ff       	callq  1f90 <_ZNSt7__cxx1112basic_stringIcSt11char_traitsIcESaIcEEC1EPKcRKS3_@plt>
    3f31:	48 8d 84 24 60 01 00 	lea    0x160(%rsp),%rax
    3f38:	00 
    3f39:	48 89 c6             	mov    %rax,%rsi
    3f3c:	48 89 ef             	mov    %rbp,%rdi
    3f3f:	e8 3e e9 ff ff       	callq  2882 <_ZNSt6localeC1Ev@plt+0x792>
    3f44:	48 8d 84 24 60 01 00 	lea    0x160(%rsp),%rax
    3f4b:	00 
    3f4c:	48 89 c7             	mov    %rax,%rdi
    3f4f:	e8 ac de ff ff       	callq  1e00 <_ZNSt7__cxx1112basic_stringIcSt11char_traitsIcESaIcEED1Ev@plt>
    3f54:	48 8d 44 24 10       	lea    0x10(%rsp),%rax
    3f59:	48 89 c7             	mov    %rax,%rdi
    3f5c:	e8 8f df ff ff       	callq  1ef0 <_ZNSaIcED1Ev@plt>
    3f61:	48 83 c5 20          	add    $0x20,%rbp
    3f65:	48 83 eb 01          	sub    $0x1,%rbx
    3f69:	48 8d 44 24 10       	lea    0x10(%rsp),%rax
    3f6e:	48 89 c7             	mov    %rax,%rdi
    3f71:	e8 2a e1 ff ff       	callq  20a0 <_ZNSaIcEC1Ev@plt>
    3f76:	48 8d 54 24 10       	lea    0x10(%rsp),%rdx
    3f7b:	48 8d 84 24 60 01 00 	lea    0x160(%rsp),%rax
    3f82:	00 
    3f83:	48 8d 35 4a 3c 00 00 	lea    0x3c4a(%rip),%rsi        # 7bd4 <_ZNSt6localeC1Ev@plt+0x5ae4>
    3f8a:	48 89 c7             	mov    %rax,%rdi
    3f8d:	e8 fe df ff ff       	callq  1f90 <_ZNSt7__cxx1112basic_stringIcSt11char_traitsIcESaIcEEC1EPKcRKS3_@plt>
    3f92:	48 8d 84 24 60 01 00 	lea    0x160(%rsp),%rax
    3f99:	00 
    3f9a:	48 89 c6             	mov    %rax,%rsi
    3f9d:	48 89 ef             	mov    %rbp,%rdi
    3fa0:	e8 dd e8 ff ff       	callq  2882 <_ZNSt6localeC1Ev@plt+0x792>
    3fa5:	48 8d 84 24 60 01 00 	lea    0x160(%rsp),%rax
    3fac:	00 
    3fad:	48 89 c7             	mov    %rax,%rdi
    3fb0:	e8 4b de ff ff       	callq  1e00 <_ZNSt7__cxx1112basic_stringIcSt11char_traitsIcESaIcEED1Ev@plt>
    3fb5:	48 8d 44 24 10       	lea    0x10(%rsp),%rax
    3fba:	48 89 c7             	mov    %rax,%rdi
    3fbd:	e8 2e df ff ff       	callq  1ef0 <_ZNSaIcED1Ev@plt>
    3fc2:	48 83 c5 20          	add    $0x20,%rbp
    3fc6:	48 83 eb 01          	sub    $0x1,%rbx
    3fca:	48 8d 44 24 10       	lea    0x10(%rsp),%rax
    3fcf:	48 89 c7             	mov    %rax,%rdi
    3fd2:	e8 c9 e0 ff ff       	callq  20a0 <_ZNSaIcEC1Ev@plt>
    3fd7:	48 8d 44 24 10       	lea    0x10(%rsp),%rax
    3fdc:	48 89 c2             	mov    %rax,%rdx
    3fdf:	48 8d 35 52 3b 00 00 	lea    0x3b52(%rip),%rsi        # 7b38 <_ZNSt6localeC1Ev@plt+0x5a48>
    3fe6:	48 89 ef             	mov    %rbp,%rdi
    3fe9:	e8 a2 df ff ff       	callq  1f90 <_ZNSt7__cxx1112basic_stringIcSt11char_traitsIcESaIcEEC1EPKcRKS3_@plt>
    3fee:	48 8d 44 24 10       	lea    0x10(%rsp),%rax
    3ff3:	48 89 c7             	mov    %rax,%rdi
    3ff6:	e8 f5 de ff ff       	callq  1ef0 <_ZNSaIcED1Ev@plt>
    3ffb:	48 83 c5 20          	add    $0x20,%rbp
    3fff:	48 83 eb 01          	sub    $0x1,%rbx
    4003:	48 8d 44 24 10       	lea    0x10(%rsp),%rax
    4008:	48 89 c7             	mov    %rax,%rdi
    400b:	e8 90 e0 ff ff       	callq  20a0 <_ZNSaIcEC1Ev@plt>
    4010:	48 8d 54 24 10       	lea    0x10(%rsp),%rdx
    4015:	48 8d 84 24 60 01 00 	lea    0x160(%rsp),%rax
    401c:	00 
    401d:	48 8d 35 46 3b 00 00 	lea    0x3b46(%rip),%rsi        # 7b6a <_ZNSt6localeC1Ev@plt+0x5a7a>
    4024:	48 89 c7             	mov    %rax,%rdi
    4027:	e8 64 df ff ff       	callq  1f90 <_ZNSt7__cxx1112basic_stringIcSt11char_traitsIcESaIcEEC1EPKcRKS3_@plt>
    402c:	48 8d 84 24 60 01 00 	lea    0x160(%rsp),%rax
    4033:	00 
    4034:	48 89 c6             	mov    %rax,%rsi
    4037:	48 89 ef             	mov    %rbp,%rdi
    403a:	e8 43 e8 ff ff       	callq  2882 <_ZNSt6localeC1Ev@plt+0x792>
    403f:	48 8d 84 24 60 01 00 	lea    0x160(%rsp),%rax
    4046:	00 
    4047:	48 89 c7             	mov    %rax,%rdi
    404a:	e8 b1 dd ff ff       	callq  1e00 <_ZNSt7__cxx1112basic_stringIcSt11char_traitsIcESaIcEED1Ev@plt>
    404f:	48 8d 44 24 10       	lea    0x10(%rsp),%rax
    4054:	48 89 c7             	mov    %rax,%rdi
    4057:	e8 94 de ff ff       	callq  1ef0 <_ZNSaIcED1Ev@plt>
    405c:	48 83 c5 20          	add    $0x20,%rbp
    4060:	48 83 eb 01          	sub    $0x1,%rbx
    4064:	48 8d 44 24 10       	lea    0x10(%rsp),%rax
    4069:	48 89 c7             	mov    %rax,%rdi
    406c:	e8 2f e0 ff ff       	callq  20a0 <_ZNSaIcEC1Ev@plt>
    4071:	48 8d 54 24 10       	lea    0x10(%rsp),%rdx
    4076:	48 8d 84 24 60 01 00 	lea    0x160(%rsp),%rax
    407d:	00 
    407e:	48 8d 35 93 3b 00 00 	lea    0x3b93(%rip),%rsi        # 7c18 <_ZNSt6localeC1Ev@plt+0x5b28>
    4085:	48 89 c7             	mov    %rax,%rdi
    4088:	e8 03 df ff ff       	callq  1f90 <_ZNSt7__cxx1112basic_stringIcSt11char_traitsIcESaIcEEC1EPKcRKS3_@plt>
    408d:	48 8d 84 24 60 01 00 	lea    0x160(%rsp),%rax
    4094:	00 
    4095:	48 89 c6             	mov    %rax,%rsi
    4098:	48 89 ef             	mov    %rbp,%rdi
    409b:	e8 e2 e7 ff ff       	callq  2882 <_ZNSt6localeC1Ev@plt+0x792>
    40a0:	48 8d 84 24 60 01 00 	lea    0x160(%rsp),%rax
    40a7:	00 
    40a8:	48 89 c7             	mov    %rax,%rdi
    40ab:	e8 50 dd ff ff       	callq  1e00 <_ZNSt7__cxx1112basic_stringIcSt11char_traitsIcESaIcEED1Ev@plt>
    40b0:	48 8d 44 24 10       	lea    0x10(%rsp),%rax
    40b5:	48 89 c7             	mov    %rax,%rdi
    40b8:	e8 33 de ff ff       	callq  1ef0 <_ZNSaIcED1Ev@plt>
    40bd:	48 83 c5 20          	add    $0x20,%rbp
    40c1:	48 83 eb 01          	sub    $0x1,%rbx
    40c5:	48 8d 44 24 10       	lea    0x10(%rsp),%rax
    40ca:	48 89 c7             	mov    %rax,%rdi
    40cd:	e8 ce df ff ff       	callq  20a0 <_ZNSaIcEC1Ev@plt>
    40d2:	48 8d 54 24 10       	lea    0x10(%rsp),%rdx
    40d7:	48 8d 84 24 60 01 00 	lea    0x160(%rsp),%rax
    40de:	00 
    40df:	48 8d 35 ee 3a 00 00 	lea    0x3aee(%rip),%rsi        # 7bd4 <_ZNSt6localeC1Ev@plt+0x5ae4>
    40e6:	48 89 c7             	mov    %rax,%rdi
    40e9:	e8 a2 de ff ff       	callq  1f90 <_ZNSt7__cxx1112basic_stringIcSt11char_traitsIcESaIcEEC1EPKcRKS3_@plt>
    40ee:	48 8d 84 24 60 01 00 	lea    0x160(%rsp),%rax
    40f5:	00 
    40f6:	48 89 c6             	mov    %rax,%rsi
    40f9:	48 89 ef             	mov    %rbp,%rdi
    40fc:	e8 81 e7 ff ff       	callq  2882 <_ZNSt6localeC1Ev@plt+0x792>
    4101:	48 8d 84 24 60 01 00 	lea    0x160(%rsp),%rax
    4108:	00 
    4109:	48 89 c7             	mov    %rax,%rdi
    410c:	e8 ef dc ff ff       	callq  1e00 <_ZNSt7__cxx1112basic_stringIcSt11char_traitsIcESaIcEED1Ev@plt>
    4111:	48 8d 44 24 10       	lea    0x10(%rsp),%rax
    4116:	48 89 c7             	mov    %rax,%rdi
    4119:	e8 d2 dd ff ff       	callq  1ef0 <_ZNSaIcED1Ev@plt>
    411e:	48 83 c5 20          	add    $0x20,%rbp
    4122:	48 83 eb 01          	sub    $0x1,%rbx
    4126:	48 8d 44 24 10       	lea    0x10(%rsp),%rax
    412b:	48 89 c7             	mov    %rax,%rdi
    412e:	e8 6d df ff ff       	callq  20a0 <_ZNSaIcEC1Ev@plt>
    4133:	48 8d 54 24 10       	lea    0x10(%rsp),%rdx
    4138:	48 8d 84 24 60 01 00 	lea    0x160(%rsp),%rax
    413f:	00 
    4140:	48 8d 35 9e 3a 00 00 	lea    0x3a9e(%rip),%rsi        # 7be5 <_ZNSt6localeC1Ev@plt+0x5af5>
    4147:	48 89 c7             	mov    %rax,%rdi
    414a:	e8 41 de ff ff       	callq  1f90 <_ZNSt7__cxx1112basic_stringIcSt11char_traitsIcESaIcEEC1EPKcRKS3_@plt>
    414f:	48 8d 84 24 60 01 00 	lea    0x160(%rsp),%rax
    4156:	00 
    4157:	48 89 c6             	mov    %rax,%rsi
    415a:	48 89 ef             	mov    %rbp,%rdi
    415d:	e8 20 e7 ff ff       	callq  2882 <_ZNSt6localeC1Ev@plt+0x792>
    4162:	48 8d 84 24 60 01 00 	lea    0x160(%rsp),%rax
    4169:	00 
    416a:	48 89 c7             	mov    %rax,%rdi
    416d:	e8 8e dc ff ff       	callq  1e00 <_ZNSt7__cxx1112basic_stringIcSt11char_traitsIcESaIcEED1Ev@plt>
    4172:	48 8d 44 24 10       	lea    0x10(%rsp),%rax
    4177:	48 89 c7             	mov    %rax,%rdi
    417a:	e8 71 dd ff ff       	callq  1ef0 <_ZNSaIcED1Ev@plt>
    417f:	48 83 c5 20          	add    $0x20,%rbp
    4183:	48 83 eb 01          	sub    $0x1,%rbx
    4187:	48 8d 44 24 10       	lea    0x10(%rsp),%rax
    418c:	48 89 c7             	mov    %rax,%rdi
    418f:	e8 0c df ff ff       	callq  20a0 <_ZNSaIcEC1Ev@plt>
    4194:	48 8d 54 24 10       	lea    0x10(%rsp),%rdx
    4199:	48 8d 84 24 60 01 00 	lea    0x160(%rsp),%rax
    41a0:	00 
    41a1:	48 8d 35 81 3a 00 00 	lea    0x3a81(%rip),%rsi        # 7c29 <_ZNSt6localeC1Ev@plt+0x5b39>
    41a8:	48 89 c7             	mov    %rax,%rdi
    41ab:	e8 e0 dd ff ff       	callq  1f90 <_ZNSt7__cxx1112basic_stringIcSt11char_traitsIcESaIcEEC1EPKcRKS3_@plt>
    41b0:	48 8d 84 24 60 01 00 	lea    0x160(%rsp),%rax
    41b7:	00 
    41b8:	48 89 c6             	mov    %rax,%rsi
    41bb:	48 89 ef             	mov    %rbp,%rdi
    41be:	e8 bf e6 ff ff       	callq  2882 <_ZNSt6localeC1Ev@plt+0x792>
    41c3:	48 8d 84 24 60 01 00 	lea    0x160(%rsp),%rax
    41ca:	00 
    41cb:	48 89 c7             	mov    %rax,%rdi
    41ce:	e8 2d dc ff ff       	callq  1e00 <_ZNSt7__cxx1112basic_stringIcSt11char_traitsIcESaIcEED1Ev@plt>
    41d3:	48 8d 44 24 10       	lea    0x10(%rsp),%rax
    41d8:	48 89 c7             	mov    %rax,%rdi
    41db:	e8 10 dd ff ff       	callq  1ef0 <_ZNSaIcED1Ev@plt>
    41e0:	48 83 c5 20          	add    $0x20,%rbp
    41e4:	48 83 eb 01          	sub    $0x1,%rbx
    41e8:	48 8d 44 24 10       	lea    0x10(%rsp),%rax
    41ed:	48 89 c7             	mov    %rax,%rdi
    41f0:	e8 ab de ff ff       	callq  20a0 <_ZNSaIcEC1Ev@plt>
    41f5:	48 8d 54 24 10       	lea    0x10(%rsp),%rdx
    41fa:	48 8d 84 24 60 01 00 	lea    0x160(%rsp),%rax
    4201:	00 
    4202:	48 8d 35 a9 39 00 00 	lea    0x39a9(%rip),%rsi        # 7bb2 <_ZNSt6localeC1Ev@plt+0x5ac2>
    4209:	48 89 c7             	mov    %rax,%rdi
    420c:	e8 7f dd ff ff       	callq  1f90 <_ZNSt7__cxx1112basic_stringIcSt11char_traitsIcESaIcEEC1EPKcRKS3_@plt>
    4211:	48 8d 84 24 60 01 00 	lea    0x160(%rsp),%rax
    4218:	00 
    4219:	48 89 c6             	mov    %rax,%rsi
    421c:	48 89 ef             	mov    %rbp,%rdi
    421f:	e8 5e e6 ff ff       	callq  2882 <_ZNSt6localeC1Ev@plt+0x792>
    4224:	48 8d 84 24 60 01 00 	lea    0x160(%rsp),%rax
    422b:	00 
    422c:	48 89 c7             	mov    %rax,%rdi
    422f:	e8 cc db ff ff       	callq  1e00 <_ZNSt7__cxx1112basic_stringIcSt11char_traitsIcESaIcEED1Ev@plt>
    4234:	48 8d 44 24 10       	lea    0x10(%rsp),%rax
    4239:	48 89 c7             	mov    %rax,%rdi
    423c:	e8 af dc ff ff       	callq  1ef0 <_ZNSaIcED1Ev@plt>
    4241:	48 83 c5 20          	add    $0x20,%rbp
    4245:	48 83 eb 01          	sub    $0x1,%rbx
    4249:	48 8d 44 24 10       	lea    0x10(%rsp),%rax
    424e:	48 89 c7             	mov    %rax,%rdi
    4251:	e8 4a de ff ff       	callq  20a0 <_ZNSaIcEC1Ev@plt>
    4256:	48 8d 44 24 10       	lea    0x10(%rsp),%rax
    425b:	48 89 c2             	mov    %rax,%rdx
    425e:	48 8d 35 d3 38 00 00 	lea    0x38d3(%rip),%rsi        # 7b38 <_ZNSt6localeC1Ev@plt+0x5a48>
    4265:	48 89 ef             	mov    %rbp,%rdi
    4268:	e8 23 dd ff ff       	callq  1f90 <_ZNSt7__cxx1112basic_stringIcSt11char_traitsIcESaIcEEC1EPKcRKS3_@plt>
    426d:	48 8d 44 24 10       	lea    0x10(%rsp),%rax
    4272:	48 89 c7             	mov    %rax,%rdi
    4275:	e8 76 dc ff ff       	callq  1ef0 <_ZNSaIcED1Ev@plt>
    427a:	48 83 c5 20          	add    $0x20,%rbp
    427e:	48 83 eb 01          	sub    $0x1,%rbx
    4282:	48 8d 44 24 10       	lea    0x10(%rsp),%rax
    4287:	48 89 c7             	mov    %rax,%rdi
    428a:	e8 11 de ff ff       	callq  20a0 <_ZNSaIcEC1Ev@plt>
    428f:	48 8d 54 24 10       	lea    0x10(%rsp),%rdx
    4294:	48 8d 84 24 60 01 00 	lea    0x160(%rsp),%rax
    429b:	00 
    429c:	48 8d 35 86 39 00 00 	lea    0x3986(%rip),%rsi        # 7c29 <_ZNSt6localeC1Ev@plt+0x5b39>
    42a3:	48 89 c7             	mov    %rax,%rdi
    42a6:	e8 e5 dc ff ff       	callq  1f90 <_ZNSt7__cxx1112basic_stringIcSt11char_traitsIcESaIcEEC1EPKcRKS3_@plt>
    42ab:	48 8d 84 24 60 01 00 	lea    0x160(%rsp),%rax
    42b2:	00 
    42b3:	48 89 c6             	mov    %rax,%rsi
    42b6:	48 89 ef             	mov    %rbp,%rdi
    42b9:	e8 c4 e5 ff ff       	callq  2882 <_ZNSt6localeC1Ev@plt+0x792>
    42be:	48 8d 84 24 60 01 00 	lea    0x160(%rsp),%rax
    42c5:	00 
    42c6:	48 89 c7             	mov    %rax,%rdi
    42c9:	e8 32 db ff ff       	callq  1e00 <_ZNSt7__cxx1112basic_stringIcSt11char_traitsIcESaIcEED1Ev@plt>
    42ce:	48 8d 44 24 10       	lea    0x10(%rsp),%rax
    42d3:	48 89 c7             	mov    %rax,%rdi
    42d6:	e8 15 dc ff ff       	callq  1ef0 <_ZNSaIcED1Ev@plt>
    42db:	48 83 c5 20          	add    $0x20,%rbp
    42df:	48 83 eb 01          	sub    $0x1,%rbx
    42e3:	48 8d 44 24 10       	lea    0x10(%rsp),%rax
    42e8:	48 89 c7             	mov    %rax,%rdi
    42eb:	e8 b0 dd ff ff       	callq  20a0 <_ZNSaIcEC1Ev@plt>
    42f0:	48 8d 54 24 10       	lea    0x10(%rsp),%rdx
    42f5:	48 8d 84 24 60 01 00 	lea    0x160(%rsp),%rax
    42fc:	00 
    42fd:	48 8d 35 36 39 00 00 	lea    0x3936(%rip),%rsi        # 7c3a <_ZNSt6localeC1Ev@plt+0x5b4a>
    4304:	48 89 c7             	mov    %rax,%rdi
    4307:	e8 84 dc ff ff       	callq  1f90 <_ZNSt7__cxx1112basic_stringIcSt11char_traitsIcESaIcEEC1EPKcRKS3_@plt>
    430c:	48 8d 84 24 60 01 00 	lea    0x160(%rsp),%rax
    4313:	00 
    4314:	48 89 c6             	mov    %rax,%rsi
    4317:	48 89 ef             	mov    %rbp,%rdi
    431a:	e8 63 e5 ff ff       	callq  2882 <_ZNSt6localeC1Ev@plt+0x792>
    431f:	48 8d 84 24 60 01 00 	lea    0x160(%rsp),%rax
    4326:	00 
    4327:	48 89 c7             	mov    %rax,%rdi
    432a:	e8 d1 da ff ff       	callq  1e00 <_ZNSt7__cxx1112basic_stringIcSt11char_traitsIcESaIcEED1Ev@plt>
    432f:	48 8d 44 24 10       	lea    0x10(%rsp),%rax
    4334:	48 89 c7             	mov    %rax,%rdi
    4337:	e8 b4 db ff ff       	callq  1ef0 <_ZNSaIcED1Ev@plt>
    433c:	48 83 c5 20          	add    $0x20,%rbp
    4340:	48 83 eb 01          	sub    $0x1,%rbx
    4344:	48 8d 44 24 10       	lea    0x10(%rsp),%rax
    4349:	48 89 c7             	mov    %rax,%rdi
    434c:	e8 4f dd ff ff       	callq  20a0 <_ZNSaIcEC1Ev@plt>
    4351:	48 8d 54 24 10       	lea    0x10(%rsp),%rdx
    4356:	48 8d 84 24 60 01 00 	lea    0x160(%rsp),%rax
    435d:	00 
    435e:	48 8d 35 bc 37 00 00 	lea    0x37bc(%rip),%rsi        # 7b21 <_ZNSt6localeC1Ev@plt+0x5a31>
    4365:	48 89 c7             	mov    %rax,%rdi
    4368:	e8 23 dc ff ff       	callq  1f90 <_ZNSt7__cxx1112basic_stringIcSt11char_traitsIcESaIcEEC1EPKcRKS3_@plt>
    436d:	48 8d 84 24 60 01 00 	lea    0x160(%rsp),%rax
    4374:	00 
    4375:	48 89 c6             	mov    %rax,%rsi
    4378:	48 89 ef             	mov    %rbp,%rdi
    437b:	e8 02 e5 ff ff       	callq  2882 <_ZNSt6localeC1Ev@plt+0x792>
    4380:	48 8d 84 24 60 01 00 	lea    0x160(%rsp),%rax
    4387:	00 
    4388:	48 89 c7             	mov    %rax,%rdi
    438b:	e8 70 da ff ff       	callq  1e00 <_ZNSt7__cxx1112basic_stringIcSt11char_traitsIcESaIcEED1Ev@plt>
    4390:	48 8d 44 24 10       	lea    0x10(%rsp),%rax
    4395:	48 89 c7             	mov    %rax,%rdi
    4398:	e8 53 db ff ff       	callq  1ef0 <_ZNSaIcED1Ev@plt>
    439d:	48 83 c5 20          	add    $0x20,%rbp
    43a1:	48 83 eb 01          	sub    $0x1,%rbx
    43a5:	48 8d 44 24 10       	lea    0x10(%rsp),%rax
    43aa:	48 89 c7             	mov    %rax,%rdi
    43ad:	e8 ee dc ff ff       	callq  20a0 <_ZNSaIcEC1Ev@plt>
    43b2:	48 8d 44 24 10       	lea    0x10(%rsp),%rax
    43b7:	48 89 c2             	mov    %rax,%rdx
    43ba:	48 8d 35 bf 37 00 00 	lea    0x37bf(%rip),%rsi        # 7b80 <_ZNSt6localeC1Ev@plt+0x5a90>
    43c1:	48 89 ef             	mov    %rbp,%rdi
    43c4:	e8 c7 db ff ff       	callq  1f90 <_ZNSt7__cxx1112basic_stringIcSt11char_traitsIcESaIcEEC1EPKcRKS3_@plt>
    43c9:	48 8d 44 24 10       	lea    0x10(%rsp),%rax
    43ce:	48 89 c7             	mov    %rax,%rdi
    43d1:	e8 1a db ff ff       	callq  1ef0 <_ZNSaIcED1Ev@plt>
    43d6:	48 83 c5 20          	add    $0x20,%rbp
    43da:	48 83 eb 01          	sub    $0x1,%rbx
    43de:	48 8d 44 24 10       	lea    0x10(%rsp),%rax
    43e3:	48 89 c7             	mov    %rax,%rdi
    43e6:	e8 b5 dc ff ff       	callq  20a0 <_ZNSaIcEC1Ev@plt>
    43eb:	48 8d 54 24 10       	lea    0x10(%rsp),%rdx
    43f0:	48 8d 84 24 60 01 00 	lea    0x160(%rsp),%rax
    43f7:	00 
    43f8:	48 8d 35 c4 37 00 00 	lea    0x37c4(%rip),%rsi        # 7bc3 <_ZNSt6localeC1Ev@plt+0x5ad3>
    43ff:	48 89 c7             	mov    %rax,%rdi
    4402:	e8 89 db ff ff       	callq  1f90 <_ZNSt7__cxx1112basic_stringIcSt11char_traitsIcESaIcEEC1EPKcRKS3_@plt>
    4407:	48 8d 84 24 60 01 00 	lea    0x160(%rsp),%rax
    440e:	00 
    440f:	48 89 c6             	mov    %rax,%rsi
    4412:	48 89 ef             	mov    %rbp,%rdi
    4415:	e8 68 e4 ff ff       	callq  2882 <_ZNSt6localeC1Ev@plt+0x792>
    441a:	48 8d 84 24 60 01 00 	lea    0x160(%rsp),%rax
    4421:	00 
    4422:	48 89 c7             	mov    %rax,%rdi
    4425:	e8 d6 d9 ff ff       	callq  1e00 <_ZNSt7__cxx1112basic_stringIcSt11char_traitsIcESaIcEED1Ev@plt>
    442a:	48 8d 44 24 10       	lea    0x10(%rsp),%rax
    442f:	48 89 c7             	mov    %rax,%rdi
    4432:	e8 b9 da ff ff       	callq  1ef0 <_ZNSaIcED1Ev@plt>
    4437:	48 83 c5 20          	add    $0x20,%rbp
    443b:	48 83 eb 01          	sub    $0x1,%rbx
    443f:	48 8d 44 24 10       	lea    0x10(%rsp),%rax
    4444:	48 89 c7             	mov    %rax,%rdi
    4447:	e8 54 dc ff ff       	callq  20a0 <_ZNSaIcEC1Ev@plt>
    444c:	48 8d 44 24 10       	lea    0x10(%rsp),%rax
    4451:	48 89 c2             	mov    %rax,%rdx
    4454:	48 8d 35 dd 36 00 00 	lea    0x36dd(%rip),%rsi        # 7b38 <_ZNSt6localeC1Ev@plt+0x5a48>
    445b:	48 89 ef             	mov    %rbp,%rdi
    445e:	e8 2d db ff ff       	callq  1f90 <_ZNSt7__cxx1112basic_stringIcSt11char_traitsIcESaIcEEC1EPKcRKS3_@plt>
    4463:	48 8d 44 24 10       	lea    0x10(%rsp),%rax
    4468:	48 89 c7             	mov    %rax,%rdi
    446b:	e8 80 da ff ff       	callq  1ef0 <_ZNSaIcED1Ev@plt>
    4470:	48 83 c5 20          	add    $0x20,%rbp
    4474:	48 83 eb 01          	sub    $0x1,%rbx
    4478:	48 8d 44 24 10       	lea    0x10(%rsp),%rax
    447d:	48 89 c7             	mov    %rax,%rdi
    4480:	e8 1b dc ff ff       	callq  20a0 <_ZNSaIcEC1Ev@plt>
    4485:	48 8d 54 24 10       	lea    0x10(%rsp),%rdx
    448a:	48 8d 84 24 60 01 00 	lea    0x160(%rsp),%rax
    4491:	00 
    4492:	48 8d 35 a1 37 00 00 	lea    0x37a1(%rip),%rsi        # 7c3a <_ZNSt6localeC1Ev@plt+0x5b4a>
    4499:	48 89 c7             	mov    %rax,%rdi
    449c:	e8 ef da ff ff       	callq  1f90 <_ZNSt7__cxx1112basic_stringIcSt11char_traitsIcESaIcEEC1EPKcRKS3_@plt>
    44a1:	48 8d 84 24 60 01 00 	lea    0x160(%rsp),%rax
    44a8:	00 
    44a9:	48 89 c6             	mov    %rax,%rsi
    44ac:	48 89 ef             	mov    %rbp,%rdi
    44af:	e8 ce e3 ff ff       	callq  2882 <_ZNSt6localeC1Ev@plt+0x792>
    44b4:	48 8d 84 24 60 01 00 	lea    0x160(%rsp),%rax
    44bb:	00 
    44bc:	48 89 c7             	mov    %rax,%rdi
    44bf:	e8 3c d9 ff ff       	callq  1e00 <_ZNSt7__cxx1112basic_stringIcSt11char_traitsIcESaIcEED1Ev@plt>
    44c4:	48 8d 44 24 10       	lea    0x10(%rsp),%rax
    44c9:	48 89 c7             	mov    %rax,%rdi
    44cc:	e8 1f da ff ff       	callq  1ef0 <_ZNSaIcED1Ev@plt>
    44d1:	48 83 c5 20          	add    $0x20,%rbp
    44d5:	48 83 eb 01          	sub    $0x1,%rbx
    44d9:	48 8d 44 24 10       	lea    0x10(%rsp),%rax
    44de:	48 89 c7             	mov    %rax,%rdi
    44e1:	e8 ba db ff ff       	callq  20a0 <_ZNSaIcEC1Ev@plt>
    44e6:	48 8d 54 24 10       	lea    0x10(%rsp),%rdx
    44eb:	48 8d 84 24 60 01 00 	lea    0x160(%rsp),%rax
    44f2:	00 
    44f3:	48 8d 35 a7 36 00 00 	lea    0x36a7(%rip),%rsi        # 7ba1 <_ZNSt6localeC1Ev@plt+0x5ab1>
    44fa:	48 89 c7             	mov    %rax,%rdi
    44fd:	e8 8e da ff ff       	callq  1f90 <_ZNSt7__cxx1112basic_stringIcSt11char_traitsIcESaIcEEC1EPKcRKS3_@plt>
    4502:	48 8d 84 24 60 01 00 	lea    0x160(%rsp),%rax
    4509:	00 
    450a:	48 89 c6             	mov    %rax,%rsi
    450d:	48 89 ef             	mov    %rbp,%rdi
    4510:	e8 6d e3 ff ff       	callq  2882 <_ZNSt6localeC1Ev@plt+0x792>
    4515:	48 8d 84 24 60 01 00 	lea    0x160(%rsp),%rax
    451c:	00 
    451d:	48 89 c7             	mov    %rax,%rdi
    4520:	e8 db d8 ff ff       	callq  1e00 <_ZNSt7__cxx1112basic_stringIcSt11char_traitsIcESaIcEED1Ev@plt>
    4525:	48 8d 44 24 10       	lea    0x10(%rsp),%rax
    452a:	48 89 c7             	mov    %rax,%rdi
    452d:	e8 be d9 ff ff       	callq  1ef0 <_ZNSaIcED1Ev@plt>
    4532:	48 83 c5 20          	add    $0x20,%rbp
    4536:	48 83 eb 01          	sub    $0x1,%rbx
    453a:	48 8d 44 24 10       	lea    0x10(%rsp),%rax
    453f:	48 89 c7             	mov    %rax,%rdi
    4542:	e8 59 db ff ff       	callq  20a0 <_ZNSaIcEC1Ev@plt>
    4547:	48 8d 54 24 10       	lea    0x10(%rsp),%rdx
    454c:	48 8d 84 24 60 01 00 	lea    0x160(%rsp),%rax
    4553:	00 
    4554:	48 8d 35 8a 36 00 00 	lea    0x368a(%rip),%rsi        # 7be5 <_ZNSt6localeC1Ev@plt+0x5af5>
    455b:	48 89 c7             	mov    %rax,%rdi
    455e:	e8 2d da ff ff       	callq  1f90 <_ZNSt7__cxx1112basic_stringIcSt11char_traitsIcESaIcEEC1EPKcRKS3_@plt>
    4563:	48 8d 84 24 60 01 00 	lea    0x160(%rsp),%rax
    456a:	00 
    456b:	48 89 c6             	mov    %rax,%rsi
    456e:	48 89 ef             	mov    %rbp,%rdi
    4571:	e8 0c e3 ff ff       	callq  2882 <_ZNSt6localeC1Ev@plt+0x792>
    4576:	48 8d 84 24 60 01 00 	lea    0x160(%rsp),%rax
    457d:	00 
    457e:	48 89 c7             	mov    %rax,%rdi
    4581:	e8 7a d8 ff ff       	callq  1e00 <_ZNSt7__cxx1112basic_stringIcSt11char_traitsIcESaIcEED1Ev@plt>
    4586:	48 8d 44 24 10       	lea    0x10(%rsp),%rax
    458b:	48 89 c7             	mov    %rax,%rdi
    458e:	e8 5d d9 ff ff       	callq  1ef0 <_ZNSaIcED1Ev@plt>
    4593:	48 83 c5 20          	add    $0x20,%rbp
    4597:	48 83 eb 01          	sub    $0x1,%rbx
    459b:	48 8d 44 24 10       	lea    0x10(%rsp),%rax
    45a0:	48 89 c7             	mov    %rax,%rdi
    45a3:	e8 f8 da ff ff       	callq  20a0 <_ZNSaIcEC1Ev@plt>
    45a8:	48 8d 54 24 10       	lea    0x10(%rsp),%rdx
    45ad:	48 8d 84 24 60 01 00 	lea    0x160(%rsp),%rax
    45b4:	00 
    45b5:	48 8d 35 3a 36 00 00 	lea    0x363a(%rip),%rsi        # 7bf6 <_ZNSt6localeC1Ev@plt+0x5b06>
    45bc:	48 89 c7             	mov    %rax,%rdi
    45bf:	e8 cc d9 ff ff       	callq  1f90 <_ZNSt7__cxx1112basic_stringIcSt11char_traitsIcESaIcEEC1EPKcRKS3_@plt>
    45c4:	48 8d 84 24 60 01 00 	lea    0x160(%rsp),%rax
    45cb:	00 
    45cc:	48 89 c6             	mov    %rax,%rsi
    45cf:	48 89 ef             	mov    %rbp,%rdi
    45d2:	e8 ab e2 ff ff       	callq  2882 <_ZNSt6localeC1Ev@plt+0x792>
    45d7:	48 8d 84 24 60 01 00 	lea    0x160(%rsp),%rax
    45de:	00 
    45df:	48 89 c7             	mov    %rax,%rdi
    45e2:	e8 19 d8 ff ff       	callq  1e00 <_ZNSt7__cxx1112basic_stringIcSt11char_traitsIcESaIcEED1Ev@plt>
    45e7:	48 8d 44 24 10       	lea    0x10(%rsp),%rax
    45ec:	48 89 c7             	mov    %rax,%rdi
    45ef:	e8 fc d8 ff ff       	callq  1ef0 <_ZNSaIcED1Ev@plt>
    45f4:	48 83 c5 20          	add    $0x20,%rbp
    45f8:	48 83 eb 01          	sub    $0x1,%rbx
    45fc:	48 8d 44 24 10       	lea    0x10(%rsp),%rax
    4601:	48 89 c7             	mov    %rax,%rdi
    4604:	e8 97 da ff ff       	callq  20a0 <_ZNSaIcEC1Ev@plt>
    4609:	48 8d 54 24 10       	lea    0x10(%rsp),%rdx
    460e:	48 8d 84 24 60 01 00 	lea    0x160(%rsp),%rax
    4615:	00 
    4616:	48 8d 35 1d 36 00 00 	lea    0x361d(%rip),%rsi        # 7c3a <_ZNSt6localeC1Ev@plt+0x5b4a>
    461d:	48 89 c7             	mov    %rax,%rdi
    4620:	e8 6b d9 ff ff       	callq  1f90 <_ZNSt7__cxx1112basic_stringIcSt11char_traitsIcESaIcEEC1EPKcRKS3_@plt>
    4625:	48 8d 84 24 60 01 00 	lea    0x160(%rsp),%rax
    462c:	00 
    462d:	48 89 c6             	mov    %rax,%rsi
    4630:	48 89 ef             	mov    %rbp,%rdi
    4633:	e8 4a e2 ff ff       	callq  2882 <_ZNSt6localeC1Ev@plt+0x792>
    4638:	48 8d 84 24 60 01 00 	lea    0x160(%rsp),%rax
    463f:	00 
    4640:	48 89 c7             	mov    %rax,%rdi
    4643:	e8 b8 d7 ff ff       	callq  1e00 <_ZNSt7__cxx1112basic_stringIcSt11char_traitsIcESaIcEED1Ev@plt>
    4648:	48 8d 44 24 10       	lea    0x10(%rsp),%rax
    464d:	48 89 c7             	mov    %rax,%rdi
    4650:	e8 9b d8 ff ff       	callq  1ef0 <_ZNSaIcED1Ev@plt>
    4655:	48 83 c5 20          	add    $0x20,%rbp
    4659:	48 83 eb 01          	sub    $0x1,%rbx
    465d:	48 8d 44 24 10       	lea    0x10(%rsp),%rax
    4662:	48 89 c7             	mov    %rax,%rdi
    4665:	e8 36 da ff ff       	callq  20a0 <_ZNSaIcEC1Ev@plt>
    466a:	48 8d 54 24 10       	lea    0x10(%rsp),%rdx
    466f:	48 8d 84 24 60 01 00 	lea    0x160(%rsp),%rax
    4676:	00 
    4677:	48 8d 35 78 35 00 00 	lea    0x3578(%rip),%rsi        # 7bf6 <_ZNSt6localeC1Ev@plt+0x5b06>
    467e:	48 89 c7             	mov    %rax,%rdi
    4681:	e8 0a d9 ff ff       	callq  1f90 <_ZNSt7__cxx1112basic_stringIcSt11char_traitsIcESaIcEEC1EPKcRKS3_@plt>
    4686:	48 8d 84 24 60 01 00 	lea    0x160(%rsp),%rax
    468d:	00 
    468e:	48 89 c6             	mov    %rax,%rsi
    4691:	48 89 ef             	mov    %rbp,%rdi
    4694:	e8 e9 e1 ff ff       	callq  2882 <_ZNSt6localeC1Ev@plt+0x792>
    4699:	48 8d 84 24 60 01 00 	lea    0x160(%rsp),%rax
    46a0:	00 
    46a1:	48 89 c7             	mov    %rax,%rdi
    46a4:	e8 57 d7 ff ff       	callq  1e00 <_ZNSt7__cxx1112basic_stringIcSt11char_traitsIcESaIcEED1Ev@plt>
    46a9:	48 8d 44 24 10       	lea    0x10(%rsp),%rax
    46ae:	48 89 c7             	mov    %rax,%rdi
    46b1:	e8 3a d8 ff ff       	callq  1ef0 <_ZNSaIcED1Ev@plt>
    46b6:	48 83 c5 20          	add    $0x20,%rbp
    46ba:	48 83 eb 01          	sub    $0x1,%rbx
    46be:	48 8d 44 24 10       	lea    0x10(%rsp),%rax
    46c3:	48 89 c7             	mov    %rax,%rdi
    46c6:	e8 d5 d9 ff ff       	callq  20a0 <_ZNSaIcEC1Ev@plt>
    46cb:	48 8d 54 24 10       	lea    0x10(%rsp),%rdx
    46d0:	48 8d 84 24 60 01 00 	lea    0x160(%rsp),%rax
    46d7:	00 
    46d8:	48 8d 35 28 35 00 00 	lea    0x3528(%rip),%rsi        # 7c07 <_ZNSt6localeC1Ev@plt+0x5b17>
    46df:	48 89 c7             	mov    %rax,%rdi
    46e2:	e8 a9 d8 ff ff       	callq  1f90 <_ZNSt7__cxx1112basic_stringIcSt11char_traitsIcESaIcEEC1EPKcRKS3_@plt>
    46e7:	48 8d 84 24 60 01 00 	lea    0x160(%rsp),%rax
    46ee:	00 
    46ef:	48 89 c6             	mov    %rax,%rsi
    46f2:	48 89 ef             	mov    %rbp,%rdi
    46f5:	e8 88 e1 ff ff       	callq  2882 <_ZNSt6localeC1Ev@plt+0x792>
    46fa:	48 8d 84 24 60 01 00 	lea    0x160(%rsp),%rax
    4701:	00 
    4702:	48 89 c7             	mov    %rax,%rdi
    4705:	e8 f6 d6 ff ff       	callq  1e00 <_ZNSt7__cxx1112basic_stringIcSt11char_traitsIcESaIcEED1Ev@plt>
    470a:	48 8d 44 24 10       	lea    0x10(%rsp),%rax
    470f:	48 89 c7             	mov    %rax,%rdi
    4712:	e8 d9 d7 ff ff       	callq  1ef0 <_ZNSaIcED1Ev@plt>
    4717:	48 83 c5 20          	add    $0x20,%rbp
    471b:	48 83 eb 01          	sub    $0x1,%rbx
    471f:	48 8d 44 24 10       	lea    0x10(%rsp),%rax
    4724:	48 89 c7             	mov    %rax,%rdi
    4727:	e8 74 d9 ff ff       	callq  20a0 <_ZNSaIcEC1Ev@plt>
    472c:	48 8d 54 24 10       	lea    0x10(%rsp),%rdx
    4731:	48 8d 84 24 60 01 00 	lea    0x160(%rsp),%rax
    4738:	00 
    4739:	48 8d 35 0b 35 00 00 	lea    0x350b(%rip),%rsi        # 7c4b <_ZNSt6localeC1Ev@plt+0x5b5b>
    4740:	48 89 c7             	mov    %rax,%rdi
    4743:	e8 48 d8 ff ff       	callq  1f90 <_ZNSt7__cxx1112basic_stringIcSt11char_traitsIcESaIcEEC1EPKcRKS3_@plt>
    4748:	48 8d 84 24 60 01 00 	lea    0x160(%rsp),%rax
    474f:	00 
    4750:	48 89 c6             	mov    %rax,%rsi
    4753:	48 89 ef             	mov    %rbp,%rdi
    4756:	e8 27 e1 ff ff       	callq  2882 <_ZNSt6localeC1Ev@plt+0x792>
    475b:	48 8d 84 24 60 01 00 	lea    0x160(%rsp),%rax
    4762:	00 
    4763:	48 89 c7             	mov    %rax,%rdi
    4766:	e8 95 d6 ff ff       	callq  1e00 <_ZNSt7__cxx1112basic_stringIcSt11char_traitsIcESaIcEED1Ev@plt>
    476b:	48 8d 44 24 10       	lea    0x10(%rsp),%rax
    4770:	48 89 c7             	mov    %rax,%rdi
    4773:	e8 78 d7 ff ff       	callq  1ef0 <_ZNSaIcED1Ev@plt>
    4778:	c7 04 24 01 00 00 00 	movl   $0x1,(%rsp)
    477f:	c7 44 24 04 00 00 00 	movl   $0x0,0x4(%rsp)
    4786:	00 
    4787:	83 7c 24 04 45       	cmpl   $0x45,0x4(%rsp)
    478c:	7f 47                	jg     47d5 <_ZNSt6localeC1Ev@plt+0x26e5>
    478e:	48 8d 44 24 10       	lea    0x10(%rsp),%rax
    4793:	48 89 c7             	mov    %rax,%rdi
    4796:	e8 55 d9 ff ff       	callq  20f0 <_ZNSt6localeC1Ev@plt>
    479b:	48 8d 84 24 90 03 00 	lea    0x390(%rsp),%rax
    47a2:	00 
    47a3:	8b 54 24 04          	mov    0x4(%rsp),%edx
    47a7:	48 63 d2             	movslq %edx,%rdx
    47aa:	48 c1 e2 05          	shl    $0x5,%rdx
    47ae:	48 01 c2             	add    %rax,%rdx
    47b1:	48 8d 44 24 10       	lea    0x10(%rsp),%rax
    47b6:	48 89 c6             	mov    %rax,%rsi
    47b9:	48 89 d7             	mov    %rdx,%rdi
    47bc:	e8 5e 12 00 00       	callq  5a1f <_ZNSt6localeC1Ev@plt+0x392f>
    47c1:	48 8d 44 24 10       	lea    0x10(%rsp),%rax
    47c6:	48 89 c7             	mov    %rax,%rdi
    47c9:	e8 e2 d7 ff ff       	callq  1fb0 <_ZNSt6localeD1Ev@plt>
    47ce:	83 44 24 04 01       	addl   $0x1,0x4(%rsp)
    47d3:	eb b2                	jmp    4787 <_ZNSt6localeC1Ev@plt+0x2697>
    47d5:	c7 44 24 08 00 00 00 	movl   $0x0,0x8(%rsp)
    47dc:	00 
    47dd:	83 7c 24 08 45       	cmpl   $0x45,0x8(%rsp)
    47e2:	0f 8f 4e 03 00 00    	jg     4b36 <_ZNSt6localeC1Ev@plt+0x2a46>
    47e8:	bb 00 00 00 00       	mov    $0x0,%ebx
    47ed:	bd 00 00 00 00       	mov    $0x0,%ebp
    47f2:	41 bc 00 00 00 00    	mov    $0x0,%r12d
    47f8:	41 bf 00 00 00 00    	mov    $0x0,%r15d
    47fe:	48 8d 84 24 90 03 00 	lea    0x390(%rsp),%rax
    4805:	00 
    4806:	8b 54 24 08          	mov    0x8(%rsp),%edx
    480a:	48 63 d2             	movslq %edx,%rdx
    480d:	48 c1 e2 05          	shl    $0x5,%rdx
    4811:	4c 8d 34 10          	lea    (%rax,%rdx,1),%r14
    4815:	48 8d 44 24 10       	lea    0x10(%rsp),%rax
    481a:	48 89 c7             	mov    %rax,%rdi
    481d:	e8 7e d8 ff ff       	callq  20a0 <_ZNSaIcEC1Ev@plt>
    4822:	41 bd 01 00 00 00    	mov    $0x1,%r13d
    4828:	8b 44 24 08          	mov    0x8(%rsp),%eax
    482c:	48 63 d0             	movslq %eax,%rdx
    482f:	48 8d 44 24 40       	lea    0x40(%rsp),%rax
    4834:	48 89 d6             	mov    %rdx,%rsi
    4837:	48 89 c7             	mov    %rax,%rdi
    483a:	e8 a1 d8 ff ff       	callq  20e0 <_ZNSt7__cxx1112basic_stringIcSt11char_traitsIcESaIcEEixEm@plt>
    483f:	0f b6 00             	movzbl (%rax),%eax
    4842:	0f be d0             	movsbl %al,%edx
    4845:	48 8d 4c 24 10       	lea    0x10(%rsp),%rcx
    484a:	48 8d 84 24 00 01 00 	lea    0x100(%rsp),%rax
    4851:	00 
    4852:	be 01 00 00 00       	mov    $0x1,%esi
    4857:	48 89 c7             	mov    %rax,%rdi
    485a:	e8 b1 d5 ff ff       	callq  1e10 <_ZNSt7__cxx1112basic_stringIcSt11char_traitsIcESaIcEEC1EmcRKS3_@plt>
    485f:	bb 01 00 00 00       	mov    $0x1,%ebx
    4864:	48 8d 84 24 20 01 00 	lea    0x120(%rsp),%rax
    486b:	00 
    486c:	48 8d 94 24 00 01 00 	lea    0x100(%rsp),%rdx
    4873:	00 
    4874:	48 89 d6             	mov    %rdx,%rsi
    4877:	48 89 c7             	mov    %rax,%rdi
    487a:	e8 9b d9 ff ff       	callq  221a <_ZNSt6localeC1Ev@plt+0x12a>
    487f:	bd 01 00 00 00       	mov    $0x1,%ebp
    4884:	48 8d 84 24 40 01 00 	lea    0x140(%rsp),%rax
    488b:	00 
    488c:	48 8d 94 24 20 01 00 	lea    0x120(%rsp),%rdx
    4893:	00 
    4894:	48 89 d6             	mov    %rdx,%rsi
    4897:	48 89 c7             	mov    %rax,%rdi
    489a:	e8 cd 2d 00 00       	callq  766c <_ZNSt6localeC1Ev@plt+0x557c>
    489f:	41 bc 01 00 00 00    	mov    $0x1,%r12d
    48a5:	48 8d 84 24 60 01 00 	lea    0x160(%rsp),%rax
    48ac:	00 
    48ad:	48 8d 94 24 40 01 00 	lea    0x140(%rsp),%rdx
    48b4:	00 
    48b5:	48 89 d6             	mov    %rdx,%rsi
    48b8:	48 89 c7             	mov    %rax,%rdi
    48bb:	e8 ac 2d 00 00       	callq  766c <_ZNSt6localeC1Ev@plt+0x557c>
    48c0:	41 bf 01 00 00 00    	mov    $0x1,%r15d
    48c6:	48 8d 84 24 60 01 00 	lea    0x160(%rsp),%rax
    48cd:	00 
    48ce:	4c 89 f6             	mov    %r14,%rsi
    48d1:	48 89 c7             	mov    %rax,%rdi
    48d4:	e8 be 11 00 00       	callq  5a97 <_ZNSt6localeC1Ev@plt+0x39a7>
    48d9:	84 c0                	test   %al,%al
    48db:	74 0e                	je     48eb <_ZNSt6localeC1Ev@plt+0x27fb>
    48dd:	83 3c 24 01          	cmpl   $0x1,(%rsp)
    48e1:	75 08                	jne    48eb <_ZNSt6localeC1Ev@plt+0x27fb>
    48e3:	41 be 01 00 00 00    	mov    $0x1,%r14d
    48e9:	eb 06                	jmp    48f1 <_ZNSt6localeC1Ev@plt+0x2801>
    48eb:	41 be 00 00 00 00    	mov    $0x0,%r14d
    48f1:	45 84 ff             	test   %r15b,%r15b
    48f4:	74 10                	je     4906 <_ZNSt6localeC1Ev@plt+0x2816>
    48f6:	48 8d 84 24 60 01 00 	lea    0x160(%rsp),%rax
    48fd:	00 
    48fe:	48 89 c7             	mov    %rax,%rdi
    4901:	e8 fa d4 ff ff       	callq  1e00 <_ZNSt7__cxx1112basic_stringIcSt11char_traitsIcESaIcEED1Ev@plt>
    4906:	45 84 e4             	test   %r12b,%r12b
    4909:	74 10                	je     491b <_ZNSt6localeC1Ev@plt+0x282b>
    490b:	48 8d 84 24 40 01 00 	lea    0x140(%rsp),%rax
    4912:	00 
    4913:	48 89 c7             	mov    %rax,%rdi
    4916:	e8 e5 d4 ff ff       	callq  1e00 <_ZNSt7__cxx1112basic_stringIcSt11char_traitsIcESaIcEED1Ev@plt>
    491b:	40 84 ed             	test   %bpl,%bpl
    491e:	74 10                	je     4930 <_ZNSt6localeC1Ev@plt+0x2840>
    4920:	48 8d 84 24 20 01 00 	lea    0x120(%rsp),%rax
    4927:	00 
    4928:	48 89 c7             	mov    %rax,%rdi
    492b:	e8 d0 d4 ff ff       	callq  1e00 <_ZNSt7__cxx1112basic_stringIcSt11char_traitsIcESaIcEED1Ev@plt>
    4930:	84 db                	test   %bl,%bl
    4932:	74 10                	je     4944 <_ZNSt6localeC1Ev@plt+0x2854>
    4934:	48 8d 84 24 00 01 00 	lea    0x100(%rsp),%rax
    493b:	00 
    493c:	48 89 c7             	mov    %rax,%rdi
    493f:	e8 bc d4 ff ff       	callq  1e00 <_ZNSt7__cxx1112basic_stringIcSt11char_traitsIcESaIcEED1Ev@plt>
    4944:	45 84 ed             	test   %r13b,%r13b
    4947:	74 0d                	je     4956 <_ZNSt6localeC1Ev@plt+0x2866>
    4949:	48 8d 44 24 10       	lea    0x10(%rsp),%rax
    494e:	48 89 c7             	mov    %rax,%rdi
    4951:	e8 9a d5 ff ff       	callq  1ef0 <_ZNSaIcED1Ev@plt>
    4956:	45 84 f6             	test   %r14b,%r14b
    4959:	0f 84 c6 01 00 00    	je     4b25 <_ZNSt6localeC1Ev@plt+0x2a35>
    495f:	c7 44 24 0c 00 00 00 	movl   $0x0,0xc(%rsp)
    4966:	00 
    4967:	81 7c 24 0c af 04 00 	cmpl   $0x4af,0xc(%rsp)
    496e:	00 
    496f:	0f 8f b7 01 00 00    	jg     4b2c <_ZNSt6localeC1Ev@plt+0x2a3c>
    4975:	48 8d 44 24 10       	lea    0x10(%rsp),%rax
    497a:	48 89 c7             	mov    %rax,%rdi
    497d:	e8 1e d7 ff ff       	callq  20a0 <_ZNSaIcEC1Ev@plt>
    4982:	8b 44 24 0c          	mov    0xc(%rsp),%eax
    4986:	48 63 d0             	movslq %eax,%rdx
    4989:	48 8d 44 24 40       	lea    0x40(%rsp),%rax
    498e:	48 89 d6             	mov    %rdx,%rsi
    4991:	48 89 c7             	mov    %rax,%rdi
    4994:	e8 47 d7 ff ff       	callq  20e0 <_ZNSt7__cxx1112basic_stringIcSt11char_traitsIcESaIcEEixEm@plt>
    4999:	0f b6 00             	movzbl (%rax),%eax
    499c:	0f be d0             	movsbl %al,%edx
    499f:	48 8d 4c 24 10       	lea    0x10(%rsp),%rcx
    49a4:	48 8d 84 24 80 00 00 	lea    0x80(%rsp),%rax
    49ab:	00 
    49ac:	be 01 00 00 00       	mov    $0x1,%esi
    49b1:	48 89 c7             	mov    %rax,%rdi
    49b4:	e8 57 d4 ff ff       	callq  1e10 <_ZNSt7__cxx1112basic_stringIcSt11char_traitsIcESaIcEEC1EmcRKS3_@plt>
    49b9:	48 8d 84 24 a0 00 00 	lea    0xa0(%rsp),%rax
    49c0:	00 
    49c1:	48 8d 94 24 80 00 00 	lea    0x80(%rsp),%rdx
    49c8:	00 
    49c9:	48 89 d6             	mov    %rdx,%rsi
    49cc:	48 89 c7             	mov    %rax,%rdi
    49cf:	e8 46 d8 ff ff       	callq  221a <_ZNSt6localeC1Ev@plt+0x12a>
    49d4:	48 8d 84 24 c0 00 00 	lea    0xc0(%rsp),%rax
    49db:	00 
    49dc:	48 8d 94 24 a0 00 00 	lea    0xa0(%rsp),%rdx
    49e3:	00 
    49e4:	48 89 d6             	mov    %rdx,%rsi
    49e7:	48 89 c7             	mov    %rax,%rdi
    49ea:	e8 7d 2c 00 00       	callq  766c <_ZNSt6localeC1Ev@plt+0x557c>
    49ef:	48 8d 84 24 e0 00 00 	lea    0xe0(%rsp),%rax
    49f6:	00 
    49f7:	48 8d 94 24 c0 00 00 	lea    0xc0(%rsp),%rdx
    49fe:	00 
    49ff:	48 89 d6             	mov    %rdx,%rsi
    4a02:	48 89 c7             	mov    %rax,%rdi
    4a05:	e8 62 2c 00 00       	callq  766c <_ZNSt6localeC1Ev@plt+0x557c>
    4a0a:	48 8d 84 24 00 01 00 	lea    0x100(%rsp),%rax
    4a11:	00 
    4a12:	48 8d 94 24 e0 00 00 	lea    0xe0(%rsp),%rdx
    4a19:	00 
    4a1a:	48 89 d6             	mov    %rdx,%rsi
    4a1d:	48 89 c7             	mov    %rax,%rdi
    4a20:	e8 47 2c 00 00       	callq  766c <_ZNSt6localeC1Ev@plt+0x557c>
    4a25:	48 8d 84 24 20 01 00 	lea    0x120(%rsp),%rax
    4a2c:	00 
    4a2d:	48 8d 94 24 00 01 00 	lea    0x100(%rsp),%rdx
    4a34:	00 
    4a35:	48 89 d6             	mov    %rdx,%rsi
    4a38:	48 89 c7             	mov    %rax,%rdi
    4a3b:	e8 2c 2c 00 00       	callq  766c <_ZNSt6localeC1Ev@plt+0x557c>
    4a40:	48 8d 84 24 40 01 00 	lea    0x140(%rsp),%rax
    4a47:	00 
    4a48:	48 8d 94 24 20 01 00 	lea    0x120(%rsp),%rdx
    4a4f:	00 
    4a50:	48 89 d6             	mov    %rdx,%rsi
    4a53:	48 89 c7             	mov    %rax,%rdi
    4a56:	e8 11 2c 00 00       	callq  766c <_ZNSt6localeC1Ev@plt+0x557c>
    4a5b:	48 8d 84 24 60 01 00 	lea    0x160(%rsp),%rax
    4a62:	00 
    4a63:	48 8d 94 24 40 01 00 	lea    0x140(%rsp),%rdx
    4a6a:	00 
    4a6b:	48 89 d6             	mov    %rdx,%rsi
    4a6e:	48 89 c7             	mov    %rax,%rdi
    4a71:	e8 f6 2b 00 00       	callq  766c <_ZNSt6localeC1Ev@plt+0x557c>
    4a76:	48 8d 94 24 60 01 00 	lea    0x160(%rsp),%rdx
    4a7d:	00 
    4a7e:	48 8d 44 24 60       	lea    0x60(%rsp),%rax
    4a83:	48 89 d6             	mov    %rdx,%rsi
    4a86:	48 89 c7             	mov    %rax,%rdi
    4a89:	e8 d2 d4 ff ff       	callq  1f60 <_ZNSt7__cxx1112basic_stringIcSt11char_traitsIcESaIcEEaSEOS4_@plt>
    4a8e:	48 8d 84 24 60 01 00 	lea    0x160(%rsp),%rax
    4a95:	00 
    4a96:	48 89 c7             	mov    %rax,%rdi
    4a99:	e8 62 d3 ff ff       	callq  1e00 <_ZNSt7__cxx1112basic_stringIcSt11char_traitsIcESaIcEED1Ev@plt>
    4a9e:	48 8d 84 24 40 01 00 	lea    0x140(%rsp),%rax
    4aa5:	00 
    4aa6:	48 89 c7             	mov    %rax,%rdi
    4aa9:	e8 52 d3 ff ff       	callq  1e00 <_ZNSt7__cxx1112basic_stringIcSt11char_traitsIcESaIcEED1Ev@plt>
    4aae:	48 8d 84 24 20 01 00 	lea    0x120(%rsp),%rax
    4ab5:	00 
    4ab6:	48 89 c7             	mov    %rax,%rdi
    4ab9:	e8 42 d3 ff ff       	callq  1e00 <_ZNSt7__cxx1112basic_stringIcSt11char_traitsIcESaIcEED1Ev@plt>
    4abe:	48 8d 84 24 00 01 00 	lea    0x100(%rsp),%rax
    4ac5:	00 
    4ac6:	48 89 c7             	mov    %rax,%rdi
    4ac9:	e8 32 d3 ff ff       	callq  1e00 <_ZNSt7__cxx1112basic_stringIcSt11char_traitsIcESaIcEED1Ev@plt>
    4ace:	48 8d 84 24 e0 00 00 	lea    0xe0(%rsp),%rax
    4ad5:	00 
    4ad6:	48 89 c7             	mov    %rax,%rdi
    4ad9:	e8 22 d3 ff ff       	callq  1e00 <_ZNSt7__cxx1112basic_stringIcSt11char_traitsIcESaIcEED1Ev@plt>
    4ade:	48 8d 84 24 c0 00 00 	lea    0xc0(%rsp),%rax
    4ae5:	00 
    4ae6:	48 89 c7             	mov    %rax,%rdi
    4ae9:	e8 12 d3 ff ff       	callq  1e00 <_ZNSt7__cxx1112basic_stringIcSt11char_traitsIcESaIcEED1Ev@plt>
    4aee:	48 8d 84 24 a0 00 00 	lea    0xa0(%rsp),%rax
    4af5:	00 
    4af6:	48 89 c7             	mov    %rax,%rdi
    4af9:	e8 02 d3 ff ff       	callq  1e00 <_ZNSt7__cxx1112basic_stringIcSt11char_traitsIcESaIcEED1Ev@plt>
    4afe:	48 8d 84 24 80 00 00 	lea    0x80(%rsp),%rax
    4b05:	00 
    4b06:	48 89 c7             	mov    %rax,%rdi
    4b09:	e8 f2 d2 ff ff       	callq  1e00 <_ZNSt7__cxx1112basic_stringIcSt11char_traitsIcESaIcEED1Ev@plt>
    4b0e:	48 8d 44 24 10       	lea    0x10(%rsp),%rax
    4b13:	48 89 c7             	mov    %rax,%rdi
    4b16:	e8 d5 d3 ff ff       	callq  1ef0 <_ZNSaIcED1Ev@plt>
    4b1b:	83 44 24 0c 01       	addl   $0x1,0xc(%rsp)
    4b20:	e9 42 fe ff ff       	jmpq   4967 <_ZNSt6localeC1Ev@plt+0x2877>
    4b25:	c7 04 24 00 00 00 00 	movl   $0x0,(%rsp)
    4b2c:	83 44 24 08 01       	addl   $0x1,0x8(%rsp)
    4b31:	e9 a7 fc ff ff       	jmpq   47dd <_ZNSt6localeC1Ev@plt+0x26ed>
    4b36:	83 3c 24 01          	cmpl   $0x1,(%rsp)
    4b3a:	75 2a                	jne    4b66 <_ZNSt6localeC1Ev@plt+0x2a76>
    4b3c:	48 8d 35 1d 31 00 00 	lea    0x311d(%rip),%rsi        # 7c60 <_ZNSt6localeC1Ev@plt+0x5b70>
    4b43:	48 8d 3d 16 55 20 00 	lea    0x205516(%rip),%rdi        # 20a060 <_ZSt4cout@@GLIBCXX_3.4>
    4b4a:	e8 71 d3 ff ff       	callq  1ec0 <_ZStlsISt11char_traitsIcEERSt13basic_ostreamIcT_ES5_PKc@plt>
    4b4f:	48 89 c2             	mov    %rax,%rdx
    4b52:	48 8b 05 6f 54 20 00 	mov    0x20546f(%rip),%rax        # 209fc8 <_ZTISt16invalid_argument@@GLIBCXX_3.4+0x458>
    4b59:	48 89 c6             	mov    %rax,%rsi
    4b5c:	48 89 d7             	mov    %rdx,%rdi
    4b5f:	e8 6c d3 ff ff       	callq  1ed0 <_ZNSolsEPFRSoS_E@plt>
    4b64:	eb 28                	jmp    4b8e <_ZNSt6localeC1Ev@plt+0x2a9e>
    4b66:	48 8d 35 15 31 00 00 	lea    0x3115(%rip),%rsi        # 7c82 <_ZNSt6localeC1Ev@plt+0x5b92>
    4b6d:	48 8d 3d ec 54 20 00 	lea    0x2054ec(%rip),%rdi        # 20a060 <_ZSt4cout@@GLIBCXX_3.4>
    4b74:	e8 47 d3 ff ff       	callq  1ec0 <_ZStlsISt11char_traitsIcEERSt13basic_ostreamIcT_ES5_PKc@plt>
    4b79:	48 89 c2             	mov    %rax,%rdx
    4b7c:	48 8b 05 45 54 20 00 	mov    0x205445(%rip),%rax        # 209fc8 <_ZTISt16invalid_argument@@GLIBCXX_3.4+0x458>
    4b83:	48 89 c6             	mov    %rax,%rsi
    4b86:	48 89 d7             	mov    %rdx,%rdi
    4b89:	e8 42 d3 ff ff       	callq  1ed0 <_ZNSolsEPFRSoS_E@plt>
    4b8e:	48 8d 84 24 80 01 00 	lea    0x180(%rsp),%rax
    4b95:	00 
    4b96:	48 89 c7             	mov    %rax,%rdi
    4b99:	e8 a2 d1 ff ff       	callq  1d40 <_ZNSt14basic_ifstreamIcSt11char_traitsIcEE5closeEv@plt>
    4b9e:	48 8d 9c 24 90 03 00 	lea    0x390(%rsp),%rbx
    4ba5:	00 
    4ba6:	48 81 c3 c0 08 00 00 	add    $0x8c0,%rbx
    4bad:	48 8d 84 24 90 03 00 	lea    0x390(%rsp),%rax
    4bb4:	00 
    4bb5:	48 39 c3             	cmp    %rax,%rbx
    4bb8:	74 2e                	je     4be8 <_ZNSt6localeC1Ev@plt+0x2af8>
    4bba:	48 83 eb 20          	sub    $0x20,%rbx
    4bbe:	48 89 df             	mov    %rbx,%rdi
    4bc1:	e8 3a d2 ff ff       	callq  1e00 <_ZNSt7__cxx1112basic_stringIcSt11char_traitsIcESaIcEED1Ev@plt>
    4bc6:	eb e5                	jmp    4bad <_ZNSt6localeC1Ev@plt+0x2abd>
    4bc8:	48 8d 35 c9 30 00 00 	lea    0x30c9(%rip),%rsi        # 7c98 <_ZNSt6localeC1Ev@plt+0x5ba8>
    4bcf:	48 8d 3d 8a 54 20 00 	lea    0x20548a(%rip),%rdi        # 20a060 <_ZSt4cout@@GLIBCXX_3.4>
    4bd6:	e8 e5 d2 ff ff       	callq  1ec0 <_ZStlsISt11char_traitsIcEERSt13basic_ostreamIcT_ES5_PKc@plt>
    4bdb:	be 0a 00 00 00       	mov    $0xa,%esi
    4be0:	48 89 c7             	mov    %rax,%rdi
    4be3:	e8 58 d3 ff ff       	callq  1f40 <_ZStlsISt11char_traitsIcEERSt13basic_ostreamIcT_ES5_c@plt>
    4be8:	bb 00 00 00 00       	mov    $0x0,%ebx
    4bed:	48 8d 84 24 80 01 00 	lea    0x180(%rsp),%rax
    4bf4:	00 
    4bf5:	48 89 c7             	mov    %rax,%rdi
    4bf8:	e8 63 d1 ff ff       	callq  1d60 <_ZNSt14basic_ifstreamIcSt11char_traitsIcEED1Ev@plt>
    4bfd:	48 8d 44 24 60       	lea    0x60(%rsp),%rax
    4c02:	48 89 c7             	mov    %rax,%rdi
    4c05:	e8 f6 d1 ff ff       	callq  1e00 <_ZNSt7__cxx1112basic_stringIcSt11char_traitsIcESaIcEED1Ev@plt>
    4c0a:	48 8d 44 24 40       	lea    0x40(%rsp),%rax
    4c0f:	48 89 c7             	mov    %rax,%rdi
    4c12:	e8 e9 d1 ff ff       	callq  1e00 <_ZNSt7__cxx1112basic_stringIcSt11char_traitsIcESaIcEED1Ev@plt>
    4c17:	48 8d 44 24 20       	lea    0x20(%rsp),%rax
    4c1c:	48 89 c7             	mov    %rax,%rdi
    4c1f:	e8 dc d1 ff ff       	callq  1e00 <_ZNSt7__cxx1112basic_stringIcSt11char_traitsIcESaIcEED1Ev@plt>
    4c24:	89 d8                	mov    %ebx,%eax
    4c26:	48 8b 8c 24 58 0c 00 	mov    0xc58(%rsp),%rcx
    4c2d:	00 
    4c2e:	64 48 33 0c 25 28 00 	xor    %fs:0x28,%rcx
    4c35:	00 00 
    4c37:	0f 84 8e 0c 00 00    	je     58cb <_ZNSt6localeC1Ev@plt+0x37db>
    4c3d:	e9 84 0c 00 00       	jmpq   58c6 <_ZNSt6localeC1Ev@plt+0x37d6>
    4c42:	48 89 c3             	mov    %rax,%rbx
    4c45:	48 8d 84 24 60 01 00 	lea    0x160(%rsp),%rax
    4c4c:	00 
    4c4d:	48 89 c7             	mov    %rax,%rdi
    4c50:	e8 ab d1 ff ff       	callq  1e00 <_ZNSt7__cxx1112basic_stringIcSt11char_traitsIcESaIcEED1Ev@plt>
    4c55:	e9 25 0c 00 00       	jmpq   587f <_ZNSt6localeC1Ev@plt+0x378f>
    4c5a:	48 89 c5             	mov    %rax,%rbp
    4c5d:	48 8d 84 24 60 01 00 	lea    0x160(%rsp),%rax
    4c64:	00 
    4c65:	48 89 c7             	mov    %rax,%rdi
    4c68:	e8 93 d1 ff ff       	callq  1e00 <_ZNSt7__cxx1112basic_stringIcSt11char_traitsIcESaIcEED1Ev@plt>
    4c6d:	eb 03                	jmp    4c72 <_ZNSt6localeC1Ev@plt+0x2b82>
    4c6f:	48 89 c5             	mov    %rax,%rbp
    4c72:	48 8d 44 24 10       	lea    0x10(%rsp),%rax
    4c77:	48 89 c7             	mov    %rax,%rdi
    4c7a:	e8 71 d2 ff ff       	callq  1ef0 <_ZNSaIcED1Ev@plt>
    4c7f:	e9 5d 0a 00 00       	jmpq   56e1 <_ZNSt6localeC1Ev@plt+0x35f1>
    4c84:	48 89 c5             	mov    %rax,%rbp
    4c87:	48 8d 84 24 60 01 00 	lea    0x160(%rsp),%rax
    4c8e:	00 
    4c8f:	48 89 c7             	mov    %rax,%rdi
    4c92:	e8 69 d1 ff ff       	callq  1e00 <_ZNSt7__cxx1112basic_stringIcSt11char_traitsIcESaIcEED1Ev@plt>
    4c97:	eb 03                	jmp    4c9c <_ZNSt6localeC1Ev@plt+0x2bac>
    4c99:	48 89 c5             	mov    %rax,%rbp
    4c9c:	48 8d 44 24 10       	lea    0x10(%rsp),%rax
    4ca1:	48 89 c7             	mov    %rax,%rdi
    4ca4:	e8 47 d2 ff ff       	callq  1ef0 <_ZNSaIcED1Ev@plt>
    4ca9:	e9 33 0a 00 00       	jmpq   56e1 <_ZNSt6localeC1Ev@plt+0x35f1>
    4cae:	48 89 c5             	mov    %rax,%rbp
    4cb1:	48 8d 84 24 60 01 00 	lea    0x160(%rsp),%rax
    4cb8:	00 
    4cb9:	48 89 c7             	mov    %rax,%rdi
    4cbc:	e8 3f d1 ff ff       	callq  1e00 <_ZNSt7__cxx1112basic_stringIcSt11char_traitsIcESaIcEED1Ev@plt>
    4cc1:	eb 03                	jmp    4cc6 <_ZNSt6localeC1Ev@plt+0x2bd6>
    4cc3:	48 89 c5             	mov    %rax,%rbp
    4cc6:	48 8d 44 24 10       	lea    0x10(%rsp),%rax
    4ccb:	48 89 c7             	mov    %rax,%rdi
    4cce:	e8 1d d2 ff ff       	callq  1ef0 <_ZNSaIcED1Ev@plt>
    4cd3:	e9 09 0a 00 00       	jmpq   56e1 <_ZNSt6localeC1Ev@plt+0x35f1>
    4cd8:	48 89 c5             	mov    %rax,%rbp
    4cdb:	48 8d 84 24 60 01 00 	lea    0x160(%rsp),%rax
    4ce2:	00 
    4ce3:	48 89 c7             	mov    %rax,%rdi
    4ce6:	e8 15 d1 ff ff       	callq  1e00 <_ZNSt7__cxx1112basic_stringIcSt11char_traitsIcESaIcEED1Ev@plt>
    4ceb:	eb 03                	jmp    4cf0 <_ZNSt6localeC1Ev@plt+0x2c00>
    4ced:	48 89 c5             	mov    %rax,%rbp
    4cf0:	48 8d 44 24 10       	lea    0x10(%rsp),%rax
    4cf5:	48 89 c7             	mov    %rax,%rdi
    4cf8:	e8 f3 d1 ff ff       	callq  1ef0 <_ZNSaIcED1Ev@plt>
    4cfd:	e9 df 09 00 00       	jmpq   56e1 <_ZNSt6localeC1Ev@plt+0x35f1>
    4d02:	48 89 c5             	mov    %rax,%rbp
    4d05:	48 8d 84 24 60 01 00 	lea    0x160(%rsp),%rax
    4d0c:	00 
    4d0d:	48 89 c7             	mov    %rax,%rdi
    4d10:	e8 eb d0 ff ff       	callq  1e00 <_ZNSt7__cxx1112basic_stringIcSt11char_traitsIcESaIcEED1Ev@plt>
    4d15:	eb 03                	jmp    4d1a <_ZNSt6localeC1Ev@plt+0x2c2a>
    4d17:	48 89 c5             	mov    %rax,%rbp
    4d1a:	48 8d 44 24 10       	lea    0x10(%rsp),%rax
    4d1f:	48 89 c7             	mov    %rax,%rdi
    4d22:	e8 c9 d1 ff ff       	callq  1ef0 <_ZNSaIcED1Ev@plt>
    4d27:	e9 b5 09 00 00       	jmpq   56e1 <_ZNSt6localeC1Ev@plt+0x35f1>
    4d2c:	48 89 c5             	mov    %rax,%rbp
    4d2f:	48 8d 84 24 60 01 00 	lea    0x160(%rsp),%rax
    4d36:	00 
    4d37:	48 89 c7             	mov    %rax,%rdi
    4d3a:	e8 c1 d0 ff ff       	callq  1e00 <_ZNSt7__cxx1112basic_stringIcSt11char_traitsIcESaIcEED1Ev@plt>
    4d3f:	eb 03                	jmp    4d44 <_ZNSt6localeC1Ev@plt+0x2c54>
    4d41:	48 89 c5             	mov    %rax,%rbp
    4d44:	48 8d 44 24 10       	lea    0x10(%rsp),%rax
    4d49:	48 89 c7             	mov    %rax,%rdi
    4d4c:	e8 9f d1 ff ff       	callq  1ef0 <_ZNSaIcED1Ev@plt>
    4d51:	e9 8b 09 00 00       	jmpq   56e1 <_ZNSt6localeC1Ev@plt+0x35f1>
    4d56:	48 89 c5             	mov    %rax,%rbp
    4d59:	48 8d 84 24 60 01 00 	lea    0x160(%rsp),%rax
    4d60:	00 
    4d61:	48 89 c7             	mov    %rax,%rdi
    4d64:	e8 97 d0 ff ff       	callq  1e00 <_ZNSt7__cxx1112basic_stringIcSt11char_traitsIcESaIcEED1Ev@plt>
    4d69:	eb 03                	jmp    4d6e <_ZNSt6localeC1Ev@plt+0x2c7e>
    4d6b:	48 89 c5             	mov    %rax,%rbp
    4d6e:	48 8d 44 24 10       	lea    0x10(%rsp),%rax
    4d73:	48 89 c7             	mov    %rax,%rdi
    4d76:	e8 75 d1 ff ff       	callq  1ef0 <_ZNSaIcED1Ev@plt>
    4d7b:	e9 61 09 00 00       	jmpq   56e1 <_ZNSt6localeC1Ev@plt+0x35f1>
    4d80:	48 89 c5             	mov    %rax,%rbp
    4d83:	48 8d 84 24 60 01 00 	lea    0x160(%rsp),%rax
    4d8a:	00 
    4d8b:	48 89 c7             	mov    %rax,%rdi
    4d8e:	e8 6d d0 ff ff       	callq  1e00 <_ZNSt7__cxx1112basic_stringIcSt11char_traitsIcESaIcEED1Ev@plt>
    4d93:	eb 03                	jmp    4d98 <_ZNSt6localeC1Ev@plt+0x2ca8>
    4d95:	48 89 c5             	mov    %rax,%rbp
    4d98:	48 8d 44 24 10       	lea    0x10(%rsp),%rax
    4d9d:	48 89 c7             	mov    %rax,%rdi
    4da0:	e8 4b d1 ff ff       	callq  1ef0 <_ZNSaIcED1Ev@plt>
    4da5:	e9 37 09 00 00       	jmpq   56e1 <_ZNSt6localeC1Ev@plt+0x35f1>
    4daa:	48 89 c5             	mov    %rax,%rbp
    4dad:	48 8d 44 24 10       	lea    0x10(%rsp),%rax
    4db2:	48 89 c7             	mov    %rax,%rdi
    4db5:	e8 36 d1 ff ff       	callq  1ef0 <_ZNSaIcED1Ev@plt>
    4dba:	e9 22 09 00 00       	jmpq   56e1 <_ZNSt6localeC1Ev@plt+0x35f1>
    4dbf:	48 89 c5             	mov    %rax,%rbp
    4dc2:	48 8d 84 24 60 01 00 	lea    0x160(%rsp),%rax
    4dc9:	00 
    4dca:	48 89 c7             	mov    %rax,%rdi
    4dcd:	e8 2e d0 ff ff       	callq  1e00 <_ZNSt7__cxx1112basic_stringIcSt11char_traitsIcESaIcEED1Ev@plt>
    4dd2:	eb 03                	jmp    4dd7 <_ZNSt6localeC1Ev@plt+0x2ce7>
    4dd4:	48 89 c5             	mov    %rax,%rbp
    4dd7:	48 8d 44 24 10       	lea    0x10(%rsp),%rax
    4ddc:	48 89 c7             	mov    %rax,%rdi
    4ddf:	e8 0c d1 ff ff       	callq  1ef0 <_ZNSaIcED1Ev@plt>
    4de4:	e9 f8 08 00 00       	jmpq   56e1 <_ZNSt6localeC1Ev@plt+0x35f1>
    4de9:	48 89 c5             	mov    %rax,%rbp
    4dec:	48 8d 84 24 60 01 00 	lea    0x160(%rsp),%rax
    4df3:	00 
    4df4:	48 89 c7             	mov    %rax,%rdi
    4df7:	e8 04 d0 ff ff       	callq  1e00 <_ZNSt7__cxx1112basic_stringIcSt11char_traitsIcESaIcEED1Ev@plt>
    4dfc:	eb 03                	jmp    4e01 <_ZNSt6localeC1Ev@plt+0x2d11>
    4dfe:	48 89 c5             	mov    %rax,%rbp
    4e01:	48 8d 44 24 10       	lea    0x10(%rsp),%rax
    4e06:	48 89 c7             	mov    %rax,%rdi
    4e09:	e8 e2 d0 ff ff       	callq  1ef0 <_ZNSaIcED1Ev@plt>
    4e0e:	e9 ce 08 00 00       	jmpq   56e1 <_ZNSt6localeC1Ev@plt+0x35f1>
    4e13:	48 89 c5             	mov    %rax,%rbp
    4e16:	48 8d 84 24 60 01 00 	lea    0x160(%rsp),%rax
    4e1d:	00 
    4e1e:	48 89 c7             	mov    %rax,%rdi
    4e21:	e8 da cf ff ff       	callq  1e00 <_ZNSt7__cxx1112basic_stringIcSt11char_traitsIcESaIcEED1Ev@plt>
    4e26:	eb 03                	jmp    4e2b <_ZNSt6localeC1Ev@plt+0x2d3b>
    4e28:	48 89 c5             	mov    %rax,%rbp
    4e2b:	48 8d 44 24 10       	lea    0x10(%rsp),%rax
    4e30:	48 89 c7             	mov    %rax,%rdi
    4e33:	e8 b8 d0 ff ff       	callq  1ef0 <_ZNSaIcED1Ev@plt>
    4e38:	e9 a4 08 00 00       	jmpq   56e1 <_ZNSt6localeC1Ev@plt+0x35f1>
    4e3d:	48 89 c5             	mov    %rax,%rbp
    4e40:	48 8d 44 24 10       	lea    0x10(%rsp),%rax
    4e45:	48 89 c7             	mov    %rax,%rdi
    4e48:	e8 a3 d0 ff ff       	callq  1ef0 <_ZNSaIcED1Ev@plt>
    4e4d:	e9 8f 08 00 00       	jmpq   56e1 <_ZNSt6localeC1Ev@plt+0x35f1>
    4e52:	48 89 c5             	mov    %rax,%rbp
    4e55:	48 8d 84 24 60 01 00 	lea    0x160(%rsp),%rax
    4e5c:	00 
    4e5d:	48 89 c7             	mov    %rax,%rdi
    4e60:	e8 9b cf ff ff       	callq  1e00 <_ZNSt7__cxx1112basic_stringIcSt11char_traitsIcESaIcEED1Ev@plt>
    4e65:	eb 03                	jmp    4e6a <_ZNSt6localeC1Ev@plt+0x2d7a>
    4e67:	48 89 c5             	mov    %rax,%rbp
    4e6a:	48 8d 44 24 10       	lea    0x10(%rsp),%rax
    4e6f:	48 89 c7             	mov    %rax,%rdi
    4e72:	e8 79 d0 ff ff       	callq  1ef0 <_ZNSaIcED1Ev@plt>
    4e77:	e9 65 08 00 00       	jmpq   56e1 <_ZNSt6localeC1Ev@plt+0x35f1>
    4e7c:	48 89 c5             	mov    %rax,%rbp
    4e7f:	48 8d 44 24 10       	lea    0x10(%rsp),%rax
    4e84:	48 89 c7             	mov    %rax,%rdi
    4e87:	e8 64 d0 ff ff       	callq  1ef0 <_ZNSaIcED1Ev@plt>
    4e8c:	e9 50 08 00 00       	jmpq   56e1 <_ZNSt6localeC1Ev@plt+0x35f1>
    4e91:	48 89 c5             	mov    %rax,%rbp
    4e94:	48 8d 84 24 60 01 00 	lea    0x160(%rsp),%rax
    4e9b:	00 
    4e9c:	48 89 c7             	mov    %rax,%rdi
    4e9f:	e8 5c cf ff ff       	callq  1e00 <_ZNSt7__cxx1112basic_stringIcSt11char_traitsIcESaIcEED1Ev@plt>
    4ea4:	eb 03                	jmp    4ea9 <_ZNSt6localeC1Ev@plt+0x2db9>
    4ea6:	48 89 c5             	mov    %rax,%rbp
    4ea9:	48 8d 44 24 10       	lea    0x10(%rsp),%rax
    4eae:	48 89 c7             	mov    %rax,%rdi
    4eb1:	e8 3a d0 ff ff       	callq  1ef0 <_ZNSaIcED1Ev@plt>
    4eb6:	e9 26 08 00 00       	jmpq   56e1 <_ZNSt6localeC1Ev@plt+0x35f1>
    4ebb:	48 89 c5             	mov    %rax,%rbp
    4ebe:	48 8d 44 24 10       	lea    0x10(%rsp),%rax
    4ec3:	48 89 c7             	mov    %rax,%rdi
    4ec6:	e8 25 d0 ff ff       	callq  1ef0 <_ZNSaIcED1Ev@plt>
    4ecb:	e9 11 08 00 00       	jmpq   56e1 <_ZNSt6localeC1Ev@plt+0x35f1>
    4ed0:	48 89 c5             	mov    %rax,%rbp
    4ed3:	48 8d 84 24 60 01 00 	lea    0x160(%rsp),%rax
    4eda:	00 
    4edb:	48 89 c7             	mov    %rax,%rdi
    4ede:	e8 1d cf ff ff       	callq  1e00 <_ZNSt7__cxx1112basic_stringIcSt11char_traitsIcESaIcEED1Ev@plt>
    4ee3:	eb 03                	jmp    4ee8 <_ZNSt6localeC1Ev@plt+0x2df8>
    4ee5:	48 89 c5             	mov    %rax,%rbp
    4ee8:	48 8d 44 24 10       	lea    0x10(%rsp),%rax
    4eed:	48 89 c7             	mov    %rax,%rdi
    4ef0:	e8 fb cf ff ff       	callq  1ef0 <_ZNSaIcED1Ev@plt>
    4ef5:	e9 e7 07 00 00       	jmpq   56e1 <_ZNSt6localeC1Ev@plt+0x35f1>
    4efa:	48 89 c5             	mov    %rax,%rbp
    4efd:	48 8d 84 24 60 01 00 	lea    0x160(%rsp),%rax
    4f04:	00 
    4f05:	48 89 c7             	mov    %rax,%rdi
    4f08:	e8 f3 ce ff ff       	callq  1e00 <_ZNSt7__cxx1112basic_stringIcSt11char_traitsIcESaIcEED1Ev@plt>
    4f0d:	eb 03                	jmp    4f12 <_ZNSt6localeC1Ev@plt+0x2e22>
    4f0f:	48 89 c5             	mov    %rax,%rbp
    4f12:	48 8d 44 24 10       	lea    0x10(%rsp),%rax
    4f17:	48 89 c7             	mov    %rax,%rdi
    4f1a:	e8 d1 cf ff ff       	callq  1ef0 <_ZNSaIcED1Ev@plt>
    4f1f:	e9 bd 07 00 00       	jmpq   56e1 <_ZNSt6localeC1Ev@plt+0x35f1>
    4f24:	48 89 c5             	mov    %rax,%rbp
    4f27:	48 8d 84 24 60 01 00 	lea    0x160(%rsp),%rax
    4f2e:	00 
    4f2f:	48 89 c7             	mov    %rax,%rdi
    4f32:	e8 c9 ce ff ff       	callq  1e00 <_ZNSt7__cxx1112basic_stringIcSt11char_traitsIcESaIcEED1Ev@plt>
    4f37:	eb 03                	jmp    4f3c <_ZNSt6localeC1Ev@plt+0x2e4c>
    4f39:	48 89 c5             	mov    %rax,%rbp
    4f3c:	48 8d 44 24 10       	lea    0x10(%rsp),%rax
    4f41:	48 89 c7             	mov    %rax,%rdi
    4f44:	e8 a7 cf ff ff       	callq  1ef0 <_ZNSaIcED1Ev@plt>
    4f49:	e9 93 07 00 00       	jmpq   56e1 <_ZNSt6localeC1Ev@plt+0x35f1>
    4f4e:	48 89 c5             	mov    %rax,%rbp
    4f51:	48 8d 84 24 60 01 00 	lea    0x160(%rsp),%rax
    4f58:	00 
    4f59:	48 89 c7             	mov    %rax,%rdi
    4f5c:	e8 9f ce ff ff       	callq  1e00 <_ZNSt7__cxx1112basic_stringIcSt11char_traitsIcESaIcEED1Ev@plt>
    4f61:	eb 03                	jmp    4f66 <_ZNSt6localeC1Ev@plt+0x2e76>
    4f63:	48 89 c5             	mov    %rax,%rbp
    4f66:	48 8d 44 24 10       	lea    0x10(%rsp),%rax
    4f6b:	48 89 c7             	mov    %rax,%rdi
    4f6e:	e8 7d cf ff ff       	callq  1ef0 <_ZNSaIcED1Ev@plt>
    4f73:	e9 69 07 00 00       	jmpq   56e1 <_ZNSt6localeC1Ev@plt+0x35f1>
    4f78:	48 89 c5             	mov    %rax,%rbp
    4f7b:	48 8d 44 24 10       	lea    0x10(%rsp),%rax
    4f80:	48 89 c7             	mov    %rax,%rdi
    4f83:	e8 68 cf ff ff       	callq  1ef0 <_ZNSaIcED1Ev@plt>
    4f88:	e9 54 07 00 00       	jmpq   56e1 <_ZNSt6localeC1Ev@plt+0x35f1>
    4f8d:	48 89 c5             	mov    %rax,%rbp
    4f90:	48 8d 84 24 60 01 00 	lea    0x160(%rsp),%rax
    4f97:	00 
    4f98:	48 89 c7             	mov    %rax,%rdi
    4f9b:	e8 60 ce ff ff       	callq  1e00 <_ZNSt7__cxx1112basic_stringIcSt11char_traitsIcESaIcEED1Ev@plt>
    4fa0:	eb 03                	jmp    4fa5 <_ZNSt6localeC1Ev@plt+0x2eb5>
    4fa2:	48 89 c5             	mov    %rax,%rbp
    4fa5:	48 8d 44 24 10       	lea    0x10(%rsp),%rax
    4faa:	48 89 c7             	mov    %rax,%rdi
    4fad:	e8 3e cf ff ff       	callq  1ef0 <_ZNSaIcED1Ev@plt>
    4fb2:	e9 2a 07 00 00       	jmpq   56e1 <_ZNSt6localeC1Ev@plt+0x35f1>
    4fb7:	48 89 c5             	mov    %rax,%rbp
    4fba:	48 8d 84 24 60 01 00 	lea    0x160(%rsp),%rax
    4fc1:	00 
    4fc2:	48 89 c7             	mov    %rax,%rdi
    4fc5:	e8 36 ce ff ff       	callq  1e00 <_ZNSt7__cxx1112basic_stringIcSt11char_traitsIcESaIcEED1Ev@plt>
    4fca:	eb 03                	jmp    4fcf <_ZNSt6localeC1Ev@plt+0x2edf>
    4fcc:	48 89 c5             	mov    %rax,%rbp
    4fcf:	48 8d 44 24 10       	lea    0x10(%rsp),%rax
    4fd4:	48 89 c7             	mov    %rax,%rdi
    4fd7:	e8 14 cf ff ff       	callq  1ef0 <_ZNSaIcED1Ev@plt>
    4fdc:	e9 00 07 00 00       	jmpq   56e1 <_ZNSt6localeC1Ev@plt+0x35f1>
    4fe1:	48 89 c5             	mov    %rax,%rbp
    4fe4:	48 8d 84 24 60 01 00 	lea    0x160(%rsp),%rax
    4feb:	00 
    4fec:	48 89 c7             	mov    %rax,%rdi
    4fef:	e8 0c ce ff ff       	callq  1e00 <_ZNSt7__cxx1112basic_stringIcSt11char_traitsIcESaIcEED1Ev@plt>
    4ff4:	eb 03                	jmp    4ff9 <_ZNSt6localeC1Ev@plt+0x2f09>
    4ff6:	48 89 c5             	mov    %rax,%rbp
    4ff9:	48 8d 44 24 10       	lea    0x10(%rsp),%rax
    4ffe:	48 89 c7             	mov    %rax,%rdi
    5001:	e8 ea ce ff ff       	callq  1ef0 <_ZNSaIcED1Ev@plt>
    5006:	e9 d6 06 00 00       	jmpq   56e1 <_ZNSt6localeC1Ev@plt+0x35f1>
    500b:	48 89 c5             	mov    %rax,%rbp
    500e:	48 8d 84 24 60 01 00 	lea    0x160(%rsp),%rax
    5015:	00 
    5016:	48 89 c7             	mov    %rax,%rdi
    5019:	e8 e2 cd ff ff       	callq  1e00 <_ZNSt7__cxx1112basic_stringIcSt11char_traitsIcESaIcEED1Ev@plt>
    501e:	eb 03                	jmp    5023 <_ZNSt6localeC1Ev@plt+0x2f33>
    5020:	48 89 c5             	mov    %rax,%rbp
    5023:	48 8d 44 24 10       	lea    0x10(%rsp),%rax
    5028:	48 89 c7             	mov    %rax,%rdi
    502b:	e8 c0 ce ff ff       	callq  1ef0 <_ZNSaIcED1Ev@plt>
    5030:	e9 ac 06 00 00       	jmpq   56e1 <_ZNSt6localeC1Ev@plt+0x35f1>
    5035:	48 89 c5             	mov    %rax,%rbp
    5038:	48 8d 84 24 60 01 00 	lea    0x160(%rsp),%rax
    503f:	00 
    5040:	48 89 c7             	mov    %rax,%rdi
    5043:	e8 b8 cd ff ff       	callq  1e00 <_ZNSt7__cxx1112basic_stringIcSt11char_traitsIcESaIcEED1Ev@plt>
    5048:	eb 03                	jmp    504d <_ZNSt6localeC1Ev@plt+0x2f5d>
    504a:	48 89 c5             	mov    %rax,%rbp
    504d:	48 8d 44 24 10       	lea    0x10(%rsp),%rax
    5052:	48 89 c7             	mov    %rax,%rdi
    5055:	e8 96 ce ff ff       	callq  1ef0 <_ZNSaIcED1Ev@plt>
    505a:	e9 82 06 00 00       	jmpq   56e1 <_ZNSt6localeC1Ev@plt+0x35f1>
    505f:	48 89 c5             	mov    %rax,%rbp
    5062:	48 8d 44 24 10       	lea    0x10(%rsp),%rax
    5067:	48 89 c7             	mov    %rax,%rdi
    506a:	e8 81 ce ff ff       	callq  1ef0 <_ZNSaIcED1Ev@plt>
    506f:	e9 6d 06 00 00       	jmpq   56e1 <_ZNSt6localeC1Ev@plt+0x35f1>
    5074:	48 89 c5             	mov    %rax,%rbp
    5077:	48 8d 84 24 60 01 00 	lea    0x160(%rsp),%rax
    507e:	00 
    507f:	48 89 c7             	mov    %rax,%rdi
    5082:	e8 79 cd ff ff       	callq  1e00 <_ZNSt7__cxx1112basic_stringIcSt11char_traitsIcESaIcEED1Ev@plt>
    5087:	eb 03                	jmp    508c <_ZNSt6localeC1Ev@plt+0x2f9c>
    5089:	48 89 c5             	mov    %rax,%rbp
    508c:	48 8d 44 24 10       	lea    0x10(%rsp),%rax
    5091:	48 89 c7             	mov    %rax,%rdi
    5094:	e8 57 ce ff ff       	callq  1ef0 <_ZNSaIcED1Ev@plt>
    5099:	e9 43 06 00 00       	jmpq   56e1 <_ZNSt6localeC1Ev@plt+0x35f1>
    509e:	48 89 c5             	mov    %rax,%rbp
    50a1:	48 8d 84 24 60 01 00 	lea    0x160(%rsp),%rax
    50a8:	00 
    50a9:	48 89 c7             	mov    %rax,%rdi
    50ac:	e8 4f cd ff ff       	callq  1e00 <_ZNSt7__cxx1112basic_stringIcSt11char_traitsIcESaIcEED1Ev@plt>
    50b1:	eb 03                	jmp    50b6 <_ZNSt6localeC1Ev@plt+0x2fc6>
    50b3:	48 89 c5             	mov    %rax,%rbp
    50b6:	48 8d 44 24 10       	lea    0x10(%rsp),%rax
    50bb:	48 89 c7             	mov    %rax,%rdi
    50be:	e8 2d ce ff ff       	callq  1ef0 <_ZNSaIcED1Ev@plt>
    50c3:	e9 19 06 00 00       	jmpq   56e1 <_ZNSt6localeC1Ev@plt+0x35f1>
    50c8:	48 89 c5             	mov    %rax,%rbp
    50cb:	48 8d 44 24 10       	lea    0x10(%rsp),%rax
    50d0:	48 89 c7             	mov    %rax,%rdi
    50d3:	e8 18 ce ff ff       	callq  1ef0 <_ZNSaIcED1Ev@plt>
    50d8:	e9 04 06 00 00       	jmpq   56e1 <_ZNSt6localeC1Ev@plt+0x35f1>
    50dd:	48 89 c5             	mov    %rax,%rbp
    50e0:	48 8d 84 24 60 01 00 	lea    0x160(%rsp),%rax
    50e7:	00 
    50e8:	48 89 c7             	mov    %rax,%rdi
    50eb:	e8 10 cd ff ff       	callq  1e00 <_ZNSt7__cxx1112basic_stringIcSt11char_traitsIcESaIcEED1Ev@plt>
    50f0:	eb 03                	jmp    50f5 <_ZNSt6localeC1Ev@plt+0x3005>
    50f2:	48 89 c5             	mov    %rax,%rbp
    50f5:	48 8d 44 24 10       	lea    0x10(%rsp),%rax
    50fa:	48 89 c7             	mov    %rax,%rdi
    50fd:	e8 ee cd ff ff       	callq  1ef0 <_ZNSaIcED1Ev@plt>
    5102:	e9 da 05 00 00       	jmpq   56e1 <_ZNSt6localeC1Ev@plt+0x35f1>
    5107:	48 89 c5             	mov    %rax,%rbp
    510a:	48 8d 84 24 60 01 00 	lea    0x160(%rsp),%rax
    5111:	00 
    5112:	48 89 c7             	mov    %rax,%rdi
    5115:	e8 e6 cc ff ff       	callq  1e00 <_ZNSt7__cxx1112basic_stringIcSt11char_traitsIcESaIcEED1Ev@plt>
    511a:	eb 03                	jmp    511f <_ZNSt6localeC1Ev@plt+0x302f>
    511c:	48 89 c5             	mov    %rax,%rbp
    511f:	48 8d 44 24 10       	lea    0x10(%rsp),%rax
    5124:	48 89 c7             	mov    %rax,%rdi
    5127:	e8 c4 cd ff ff       	callq  1ef0 <_ZNSaIcED1Ev@plt>
    512c:	e9 b0 05 00 00       	jmpq   56e1 <_ZNSt6localeC1Ev@plt+0x35f1>
    5131:	48 89 c5             	mov    %rax,%rbp
    5134:	48 8d 84 24 60 01 00 	lea    0x160(%rsp),%rax
    513b:	00 
    513c:	48 89 c7             	mov    %rax,%rdi
    513f:	e8 bc cc ff ff       	callq  1e00 <_ZNSt7__cxx1112basic_stringIcSt11char_traitsIcESaIcEED1Ev@plt>
    5144:	eb 03                	jmp    5149 <_ZNSt6localeC1Ev@plt+0x3059>
    5146:	48 89 c5             	mov    %rax,%rbp
    5149:	48 8d 44 24 10       	lea    0x10(%rsp),%rax
    514e:	48 89 c7             	mov    %rax,%rdi
    5151:	e8 9a cd ff ff       	callq  1ef0 <_ZNSaIcED1Ev@plt>
    5156:	e9 86 05 00 00       	jmpq   56e1 <_ZNSt6localeC1Ev@plt+0x35f1>
    515b:	48 89 c5             	mov    %rax,%rbp
    515e:	48 8d 84 24 60 01 00 	lea    0x160(%rsp),%rax
    5165:	00 
    5166:	48 89 c7             	mov    %rax,%rdi
    5169:	e8 92 cc ff ff       	callq  1e00 <_ZNSt7__cxx1112basic_stringIcSt11char_traitsIcESaIcEED1Ev@plt>
    516e:	eb 03                	jmp    5173 <_ZNSt6localeC1Ev@plt+0x3083>
    5170:	48 89 c5             	mov    %rax,%rbp
    5173:	48 8d 44 24 10       	lea    0x10(%rsp),%rax
    5178:	48 89 c7             	mov    %rax,%rdi
    517b:	e8 70 cd ff ff       	callq  1ef0 <_ZNSaIcED1Ev@plt>
    5180:	e9 5c 05 00 00       	jmpq   56e1 <_ZNSt6localeC1Ev@plt+0x35f1>
    5185:	48 89 c5             	mov    %rax,%rbp
    5188:	48 8d 84 24 60 01 00 	lea    0x160(%rsp),%rax
    518f:	00 
    5190:	48 89 c7             	mov    %rax,%rdi
    5193:	e8 68 cc ff ff       	callq  1e00 <_ZNSt7__cxx1112basic_stringIcSt11char_traitsIcESaIcEED1Ev@plt>
    5198:	eb 03                	jmp    519d <_ZNSt6localeC1Ev@plt+0x30ad>
    519a:	48 89 c5             	mov    %rax,%rbp
    519d:	48 8d 44 24 10       	lea    0x10(%rsp),%rax
    51a2:	48 89 c7             	mov    %rax,%rdi
    51a5:	e8 46 cd ff ff       	callq  1ef0 <_ZNSaIcED1Ev@plt>
    51aa:	e9 32 05 00 00       	jmpq   56e1 <_ZNSt6localeC1Ev@plt+0x35f1>
    51af:	48 89 c5             	mov    %rax,%rbp
    51b2:	48 8d 84 24 60 01 00 	lea    0x160(%rsp),%rax
    51b9:	00 
    51ba:	48 89 c7             	mov    %rax,%rdi
    51bd:	e8 3e cc ff ff       	callq  1e00 <_ZNSt7__cxx1112basic_stringIcSt11char_traitsIcESaIcEED1Ev@plt>
    51c2:	eb 03                	jmp    51c7 <_ZNSt6localeC1Ev@plt+0x30d7>
    51c4:	48 89 c5             	mov    %rax,%rbp
    51c7:	48 8d 44 24 10       	lea    0x10(%rsp),%rax
    51cc:	48 89 c7             	mov    %rax,%rdi
    51cf:	e8 1c cd ff ff       	callq  1ef0 <_ZNSaIcED1Ev@plt>
    51d4:	e9 08 05 00 00       	jmpq   56e1 <_ZNSt6localeC1Ev@plt+0x35f1>
    51d9:	48 89 c5             	mov    %rax,%rbp
    51dc:	48 8d 84 24 60 01 00 	lea    0x160(%rsp),%rax
    51e3:	00 
    51e4:	48 89 c7             	mov    %rax,%rdi
    51e7:	e8 14 cc ff ff       	callq  1e00 <_ZNSt7__cxx1112basic_stringIcSt11char_traitsIcESaIcEED1Ev@plt>
    51ec:	eb 03                	jmp    51f1 <_ZNSt6localeC1Ev@plt+0x3101>
    51ee:	48 89 c5             	mov    %rax,%rbp
    51f1:	48 8d 44 24 10       	lea    0x10(%rsp),%rax
    51f6:	48 89 c7             	mov    %rax,%rdi
    51f9:	e8 f2 cc ff ff       	callq  1ef0 <_ZNSaIcED1Ev@plt>
    51fe:	e9 de 04 00 00       	jmpq   56e1 <_ZNSt6localeC1Ev@plt+0x35f1>
    5203:	48 89 c5             	mov    %rax,%rbp
    5206:	48 8d 84 24 60 01 00 	lea    0x160(%rsp),%rax
    520d:	00 
    520e:	48 89 c7             	mov    %rax,%rdi
    5211:	e8 ea cb ff ff       	callq  1e00 <_ZNSt7__cxx1112basic_stringIcSt11char_traitsIcESaIcEED1Ev@plt>
    5216:	eb 03                	jmp    521b <_ZNSt6localeC1Ev@plt+0x312b>
    5218:	48 89 c5             	mov    %rax,%rbp
    521b:	48 8d 44 24 10       	lea    0x10(%rsp),%rax
    5220:	48 89 c7             	mov    %rax,%rdi
    5223:	e8 c8 cc ff ff       	callq  1ef0 <_ZNSaIcED1Ev@plt>
    5228:	e9 b4 04 00 00       	jmpq   56e1 <_ZNSt6localeC1Ev@plt+0x35f1>
    522d:	48 89 c5             	mov    %rax,%rbp
    5230:	48 8d 84 24 60 01 00 	lea    0x160(%rsp),%rax
    5237:	00 
    5238:	48 89 c7             	mov    %rax,%rdi
    523b:	e8 c0 cb ff ff       	callq  1e00 <_ZNSt7__cxx1112basic_stringIcSt11char_traitsIcESaIcEED1Ev@plt>
    5240:	eb 03                	jmp    5245 <_ZNSt6localeC1Ev@plt+0x3155>
    5242:	48 89 c5             	mov    %rax,%rbp
    5245:	48 8d 44 24 10       	lea    0x10(%rsp),%rax
    524a:	48 89 c7             	mov    %rax,%rdi
    524d:	e8 9e cc ff ff       	callq  1ef0 <_ZNSaIcED1Ev@plt>
    5252:	e9 8a 04 00 00       	jmpq   56e1 <_ZNSt6localeC1Ev@plt+0x35f1>
    5257:	48 89 c5             	mov    %rax,%rbp
    525a:	48 8d 84 24 60 01 00 	lea    0x160(%rsp),%rax
    5261:	00 
    5262:	48 89 c7             	mov    %rax,%rdi
    5265:	e8 96 cb ff ff       	callq  1e00 <_ZNSt7__cxx1112basic_stringIcSt11char_traitsIcESaIcEED1Ev@plt>
    526a:	eb 03                	jmp    526f <_ZNSt6localeC1Ev@plt+0x317f>
    526c:	48 89 c5             	mov    %rax,%rbp
    526f:	48 8d 44 24 10       	lea    0x10(%rsp),%rax
    5274:	48 89 c7             	mov    %rax,%rdi
    5277:	e8 74 cc ff ff       	callq  1ef0 <_ZNSaIcED1Ev@plt>
    527c:	e9 60 04 00 00       	jmpq   56e1 <_ZNSt6localeC1Ev@plt+0x35f1>
    5281:	48 89 c5             	mov    %rax,%rbp
    5284:	48 8d 84 24 60 01 00 	lea    0x160(%rsp),%rax
    528b:	00 
    528c:	48 89 c7             	mov    %rax,%rdi
    528f:	e8 6c cb ff ff       	callq  1e00 <_ZNSt7__cxx1112basic_stringIcSt11char_traitsIcESaIcEED1Ev@plt>
    5294:	eb 03                	jmp    5299 <_ZNSt6localeC1Ev@plt+0x31a9>
    5296:	48 89 c5             	mov    %rax,%rbp
    5299:	48 8d 44 24 10       	lea    0x10(%rsp),%rax
    529e:	48 89 c7             	mov    %rax,%rdi
    52a1:	e8 4a cc ff ff       	callq  1ef0 <_ZNSaIcED1Ev@plt>
    52a6:	e9 36 04 00 00       	jmpq   56e1 <_ZNSt6localeC1Ev@plt+0x35f1>
    52ab:	48 89 c5             	mov    %rax,%rbp
    52ae:	48 8d 84 24 60 01 00 	lea    0x160(%rsp),%rax
    52b5:	00 
    52b6:	48 89 c7             	mov    %rax,%rdi
    52b9:	e8 42 cb ff ff       	callq  1e00 <_ZNSt7__cxx1112basic_stringIcSt11char_traitsIcESaIcEED1Ev@plt>
    52be:	eb 03                	jmp    52c3 <_ZNSt6localeC1Ev@plt+0x31d3>
    52c0:	48 89 c5             	mov    %rax,%rbp
    52c3:	48 8d 44 24 10       	lea    0x10(%rsp),%rax
    52c8:	48 89 c7             	mov    %rax,%rdi
    52cb:	e8 20 cc ff ff       	callq  1ef0 <_ZNSaIcED1Ev@plt>
    52d0:	e9 0c 04 00 00       	jmpq   56e1 <_ZNSt6localeC1Ev@plt+0x35f1>
    52d5:	48 89 c5             	mov    %rax,%rbp
    52d8:	48 8d 84 24 60 01 00 	lea    0x160(%rsp),%rax
    52df:	00 
    52e0:	48 89 c7             	mov    %rax,%rdi
    52e3:	e8 18 cb ff ff       	callq  1e00 <_ZNSt7__cxx1112basic_stringIcSt11char_traitsIcESaIcEED1Ev@plt>
    52e8:	eb 03                	jmp    52ed <_ZNSt6localeC1Ev@plt+0x31fd>
    52ea:	48 89 c5             	mov    %rax,%rbp
    52ed:	48 8d 44 24 10       	lea    0x10(%rsp),%rax
    52f2:	48 89 c7             	mov    %rax,%rdi
    52f5:	e8 f6 cb ff ff       	callq  1ef0 <_ZNSaIcED1Ev@plt>
    52fa:	e9 e2 03 00 00       	jmpq   56e1 <_ZNSt6localeC1Ev@plt+0x35f1>
    52ff:	48 89 c5             	mov    %rax,%rbp
    5302:	48 8d 84 24 60 01 00 	lea    0x160(%rsp),%rax
    5309:	00 
    530a:	48 89 c7             	mov    %rax,%rdi
    530d:	e8 ee ca ff ff       	callq  1e00 <_ZNSt7__cxx1112basic_stringIcSt11char_traitsIcESaIcEED1Ev@plt>
    5312:	eb 03                	jmp    5317 <_ZNSt6localeC1Ev@plt+0x3227>
    5314:	48 89 c5             	mov    %rax,%rbp
    5317:	48 8d 44 24 10       	lea    0x10(%rsp),%rax
    531c:	48 89 c7             	mov    %rax,%rdi
    531f:	e8 cc cb ff ff       	callq  1ef0 <_ZNSaIcED1Ev@plt>
    5324:	e9 b8 03 00 00       	jmpq   56e1 <_ZNSt6localeC1Ev@plt+0x35f1>
    5329:	48 89 c5             	mov    %rax,%rbp
    532c:	48 8d 84 24 60 01 00 	lea    0x160(%rsp),%rax
    5333:	00 
    5334:	48 89 c7             	mov    %rax,%rdi
    5337:	e8 c4 ca ff ff       	callq  1e00 <_ZNSt7__cxx1112basic_stringIcSt11char_traitsIcESaIcEED1Ev@plt>
    533c:	eb 03                	jmp    5341 <_ZNSt6localeC1Ev@plt+0x3251>
    533e:	48 89 c5             	mov    %rax,%rbp
    5341:	48 8d 44 24 10       	lea    0x10(%rsp),%rax
    5346:	48 89 c7             	mov    %rax,%rdi
    5349:	e8 a2 cb ff ff       	callq  1ef0 <_ZNSaIcED1Ev@plt>
    534e:	e9 8e 03 00 00       	jmpq   56e1 <_ZNSt6localeC1Ev@plt+0x35f1>
    5353:	48 89 c5             	mov    %rax,%rbp
    5356:	48 8d 84 24 60 01 00 	lea    0x160(%rsp),%rax
    535d:	00 
    535e:	48 89 c7             	mov    %rax,%rdi
    5361:	e8 9a ca ff ff       	callq  1e00 <_ZNSt7__cxx1112basic_stringIcSt11char_traitsIcESaIcEED1Ev@plt>
    5366:	eb 03                	jmp    536b <_ZNSt6localeC1Ev@plt+0x327b>
    5368:	48 89 c5             	mov    %rax,%rbp
    536b:	48 8d 44 24 10       	lea    0x10(%rsp),%rax
    5370:	48 89 c7             	mov    %rax,%rdi
    5373:	e8 78 cb ff ff       	callq  1ef0 <_ZNSaIcED1Ev@plt>
    5378:	e9 64 03 00 00       	jmpq   56e1 <_ZNSt6localeC1Ev@plt+0x35f1>
    537d:	48 89 c5             	mov    %rax,%rbp
    5380:	48 8d 84 24 60 01 00 	lea    0x160(%rsp),%rax
    5387:	00 
    5388:	48 89 c7             	mov    %rax,%rdi
    538b:	e8 70 ca ff ff       	callq  1e00 <_ZNSt7__cxx1112basic_stringIcSt11char_traitsIcESaIcEED1Ev@plt>
    5390:	eb 03                	jmp    5395 <_ZNSt6localeC1Ev@plt+0x32a5>
    5392:	48 89 c5             	mov    %rax,%rbp
    5395:	48 8d 44 24 10       	lea    0x10(%rsp),%rax
    539a:	48 89 c7             	mov    %rax,%rdi
    539d:	e8 4e cb ff ff       	callq  1ef0 <_ZNSaIcED1Ev@plt>
    53a2:	e9 3a 03 00 00       	jmpq   56e1 <_ZNSt6localeC1Ev@plt+0x35f1>
    53a7:	48 89 c5             	mov    %rax,%rbp
    53aa:	48 8d 44 24 10       	lea    0x10(%rsp),%rax
    53af:	48 89 c7             	mov    %rax,%rdi
    53b2:	e8 39 cb ff ff       	callq  1ef0 <_ZNSaIcED1Ev@plt>
    53b7:	e9 25 03 00 00       	jmpq   56e1 <_ZNSt6localeC1Ev@plt+0x35f1>
    53bc:	48 89 c5             	mov    %rax,%rbp
    53bf:	48 8d 84 24 60 01 00 	lea    0x160(%rsp),%rax
    53c6:	00 
    53c7:	48 89 c7             	mov    %rax,%rdi
    53ca:	e8 31 ca ff ff       	callq  1e00 <_ZNSt7__cxx1112basic_stringIcSt11char_traitsIcESaIcEED1Ev@plt>
    53cf:	eb 03                	jmp    53d4 <_ZNSt6localeC1Ev@plt+0x32e4>
    53d1:	48 89 c5             	mov    %rax,%rbp
    53d4:	48 8d 44 24 10       	lea    0x10(%rsp),%rax
    53d9:	48 89 c7             	mov    %rax,%rdi
    53dc:	e8 0f cb ff ff       	callq  1ef0 <_ZNSaIcED1Ev@plt>
    53e1:	e9 fb 02 00 00       	jmpq   56e1 <_ZNSt6localeC1Ev@plt+0x35f1>
    53e6:	48 89 c5             	mov    %rax,%rbp
    53e9:	48 8d 84 24 60 01 00 	lea    0x160(%rsp),%rax
    53f0:	00 
    53f1:	48 89 c7             	mov    %rax,%rdi
    53f4:	e8 07 ca ff ff       	callq  1e00 <_ZNSt7__cxx1112basic_stringIcSt11char_traitsIcESaIcEED1Ev@plt>
    53f9:	eb 03                	jmp    53fe <_ZNSt6localeC1Ev@plt+0x330e>
    53fb:	48 89 c5             	mov    %rax,%rbp
    53fe:	48 8d 44 24 10       	lea    0x10(%rsp),%rax
    5403:	48 89 c7             	mov    %rax,%rdi
    5406:	e8 e5 ca ff ff       	callq  1ef0 <_ZNSaIcED1Ev@plt>
    540b:	e9 d1 02 00 00       	jmpq   56e1 <_ZNSt6localeC1Ev@plt+0x35f1>
    5410:	48 89 c5             	mov    %rax,%rbp
    5413:	48 8d 84 24 60 01 00 	lea    0x160(%rsp),%rax
    541a:	00 
    541b:	48 89 c7             	mov    %rax,%rdi
    541e:	e8 dd c9 ff ff       	callq  1e00 <_ZNSt7__cxx1112basic_stringIcSt11char_traitsIcESaIcEED1Ev@plt>
    5423:	eb 03                	jmp    5428 <_ZNSt6localeC1Ev@plt+0x3338>
    5425:	48 89 c5             	mov    %rax,%rbp
    5428:	48 8d 44 24 10       	lea    0x10(%rsp),%rax
    542d:	48 89 c7             	mov    %rax,%rdi
    5430:	e8 bb ca ff ff       	callq  1ef0 <_ZNSaIcED1Ev@plt>
    5435:	e9 a7 02 00 00       	jmpq   56e1 <_ZNSt6localeC1Ev@plt+0x35f1>
    543a:	48 89 c5             	mov    %rax,%rbp
    543d:	48 8d 84 24 60 01 00 	lea    0x160(%rsp),%rax
    5444:	00 
    5445:	48 89 c7             	mov    %rax,%rdi
    5448:	e8 b3 c9 ff ff       	callq  1e00 <_ZNSt7__cxx1112basic_stringIcSt11char_traitsIcESaIcEED1Ev@plt>
    544d:	eb 03                	jmp    5452 <_ZNSt6localeC1Ev@plt+0x3362>
    544f:	48 89 c5             	mov    %rax,%rbp
    5452:	48 8d 44 24 10       	lea    0x10(%rsp),%rax
    5457:	48 89 c7             	mov    %rax,%rdi
    545a:	e8 91 ca ff ff       	callq  1ef0 <_ZNSaIcED1Ev@plt>
    545f:	e9 7d 02 00 00       	jmpq   56e1 <_ZNSt6localeC1Ev@plt+0x35f1>
    5464:	48 89 c5             	mov    %rax,%rbp
    5467:	48 8d 84 24 60 01 00 	lea    0x160(%rsp),%rax
    546e:	00 
    546f:	48 89 c7             	mov    %rax,%rdi
    5472:	e8 89 c9 ff ff       	callq  1e00 <_ZNSt7__cxx1112basic_stringIcSt11char_traitsIcESaIcEED1Ev@plt>
    5477:	eb 03                	jmp    547c <_ZNSt6localeC1Ev@plt+0x338c>
    5479:	48 89 c5             	mov    %rax,%rbp
    547c:	48 8d 44 24 10       	lea    0x10(%rsp),%rax
    5481:	48 89 c7             	mov    %rax,%rdi
    5484:	e8 67 ca ff ff       	callq  1ef0 <_ZNSaIcED1Ev@plt>
    5489:	e9 53 02 00 00       	jmpq   56e1 <_ZNSt6localeC1Ev@plt+0x35f1>
    548e:	48 89 c5             	mov    %rax,%rbp
    5491:	48 8d 84 24 60 01 00 	lea    0x160(%rsp),%rax
    5498:	00 
    5499:	48 89 c7             	mov    %rax,%rdi
    549c:	e8 5f c9 ff ff       	callq  1e00 <_ZNSt7__cxx1112basic_stringIcSt11char_traitsIcESaIcEED1Ev@plt>
    54a1:	eb 03                	jmp    54a6 <_ZNSt6localeC1Ev@plt+0x33b6>
    54a3:	48 89 c5             	mov    %rax,%rbp
    54a6:	48 8d 44 24 10       	lea    0x10(%rsp),%rax
    54ab:	48 89 c7             	mov    %rax,%rdi
    54ae:	e8 3d ca ff ff       	callq  1ef0 <_ZNSaIcED1Ev@plt>
    54b3:	e9 29 02 00 00       	jmpq   56e1 <_ZNSt6localeC1Ev@plt+0x35f1>
    54b8:	48 89 c5             	mov    %rax,%rbp
    54bb:	48 8d 44 24 10       	lea    0x10(%rsp),%rax
    54c0:	48 89 c7             	mov    %rax,%rdi
    54c3:	e8 28 ca ff ff       	callq  1ef0 <_ZNSaIcED1Ev@plt>
    54c8:	e9 14 02 00 00       	jmpq   56e1 <_ZNSt6localeC1Ev@plt+0x35f1>
    54cd:	48 89 c5             	mov    %rax,%rbp
    54d0:	48 8d 84 24 60 01 00 	lea    0x160(%rsp),%rax
    54d7:	00 
    54d8:	48 89 c7             	mov    %rax,%rdi
    54db:	e8 20 c9 ff ff       	callq  1e00 <_ZNSt7__cxx1112basic_stringIcSt11char_traitsIcESaIcEED1Ev@plt>
    54e0:	eb 03                	jmp    54e5 <_ZNSt6localeC1Ev@plt+0x33f5>
    54e2:	48 89 c5             	mov    %rax,%rbp
    54e5:	48 8d 44 24 10       	lea    0x10(%rsp),%rax
    54ea:	48 89 c7             	mov    %rax,%rdi
    54ed:	e8 fe c9 ff ff       	callq  1ef0 <_ZNSaIcED1Ev@plt>
    54f2:	e9 ea 01 00 00       	jmpq   56e1 <_ZNSt6localeC1Ev@plt+0x35f1>
    54f7:	48 89 c5             	mov    %rax,%rbp
    54fa:	48 8d 84 24 60 01 00 	lea    0x160(%rsp),%rax
    5501:	00 
    5502:	48 89 c7             	mov    %rax,%rdi
    5505:	e8 f6 c8 ff ff       	callq  1e00 <_ZNSt7__cxx1112basic_stringIcSt11char_traitsIcESaIcEED1Ev@plt>
    550a:	eb 03                	jmp    550f <_ZNSt6localeC1Ev@plt+0x341f>
    550c:	48 89 c5             	mov    %rax,%rbp
    550f:	48 8d 44 24 10       	lea    0x10(%rsp),%rax
    5514:	48 89 c7             	mov    %rax,%rdi
    5517:	e8 d4 c9 ff ff       	callq  1ef0 <_ZNSaIcED1Ev@plt>
    551c:	e9 c0 01 00 00       	jmpq   56e1 <_ZNSt6localeC1Ev@plt+0x35f1>
    5521:	48 89 c5             	mov    %rax,%rbp
    5524:	48 8d 84 24 60 01 00 	lea    0x160(%rsp),%rax
    552b:	00 
    552c:	48 89 c7             	mov    %rax,%rdi
    552f:	e8 cc c8 ff ff       	callq  1e00 <_ZNSt7__cxx1112basic_stringIcSt11char_traitsIcESaIcEED1Ev@plt>
    5534:	eb 03                	jmp    5539 <_ZNSt6localeC1Ev@plt+0x3449>
    5536:	48 89 c5             	mov    %rax,%rbp
    5539:	48 8d 44 24 10       	lea    0x10(%rsp),%rax
    553e:	48 89 c7             	mov    %rax,%rdi
    5541:	e8 aa c9 ff ff       	callq  1ef0 <_ZNSaIcED1Ev@plt>
    5546:	e9 96 01 00 00       	jmpq   56e1 <_ZNSt6localeC1Ev@plt+0x35f1>
    554b:	48 89 c5             	mov    %rax,%rbp
    554e:	48 8d 44 24 10       	lea    0x10(%rsp),%rax
    5553:	48 89 c7             	mov    %rax,%rdi
    5556:	e8 95 c9 ff ff       	callq  1ef0 <_ZNSaIcED1Ev@plt>
    555b:	e9 81 01 00 00       	jmpq   56e1 <_ZNSt6localeC1Ev@plt+0x35f1>
    5560:	48 89 c5             	mov    %rax,%rbp
    5563:	48 8d 84 24 60 01 00 	lea    0x160(%rsp),%rax
    556a:	00 
    556b:	48 89 c7             	mov    %rax,%rdi
    556e:	e8 8d c8 ff ff       	callq  1e00 <_ZNSt7__cxx1112basic_stringIcSt11char_traitsIcESaIcEED1Ev@plt>
    5573:	eb 03                	jmp    5578 <_ZNSt6localeC1Ev@plt+0x3488>
    5575:	48 89 c5             	mov    %rax,%rbp
    5578:	48 8d 44 24 10       	lea    0x10(%rsp),%rax
    557d:	48 89 c7             	mov    %rax,%rdi
    5580:	e8 6b c9 ff ff       	callq  1ef0 <_ZNSaIcED1Ev@plt>
    5585:	e9 57 01 00 00       	jmpq   56e1 <_ZNSt6localeC1Ev@plt+0x35f1>
    558a:	48 89 c5             	mov    %rax,%rbp
    558d:	48 8d 44 24 10       	lea    0x10(%rsp),%rax
    5592:	48 89 c7             	mov    %rax,%rdi
    5595:	e8 56 c9 ff ff       	callq  1ef0 <_ZNSaIcED1Ev@plt>
    559a:	e9 42 01 00 00       	jmpq   56e1 <_ZNSt6localeC1Ev@plt+0x35f1>
    559f:	48 89 c5             	mov    %rax,%rbp
    55a2:	48 8d 84 24 60 01 00 	lea    0x160(%rsp),%rax
    55a9:	00 
    55aa:	48 89 c7             	mov    %rax,%rdi
    55ad:	e8 4e c8 ff ff       	callq  1e00 <_ZNSt7__cxx1112basic_stringIcSt11char_traitsIcESaIcEED1Ev@plt>
    55b2:	eb 03                	jmp    55b7 <_ZNSt6localeC1Ev@plt+0x34c7>
    55b4:	48 89 c5             	mov    %rax,%rbp
    55b7:	48 8d 44 24 10       	lea    0x10(%rsp),%rax
    55bc:	48 89 c7             	mov    %rax,%rdi
    55bf:	e8 2c c9 ff ff       	callq  1ef0 <_ZNSaIcED1Ev@plt>
    55c4:	e9 18 01 00 00       	jmpq   56e1 <_ZNSt6localeC1Ev@plt+0x35f1>
    55c9:	48 89 c5             	mov    %rax,%rbp
    55cc:	48 8d 84 24 60 01 00 	lea    0x160(%rsp),%rax
    55d3:	00 
    55d4:	48 89 c7             	mov    %rax,%rdi
    55d7:	e8 24 c8 ff ff       	callq  1e00 <_ZNSt7__cxx1112basic_stringIcSt11char_traitsIcESaIcEED1Ev@plt>
    55dc:	eb 03                	jmp    55e1 <_ZNSt6localeC1Ev@plt+0x34f1>
    55de:	48 89 c5             	mov    %rax,%rbp
    55e1:	48 8d 44 24 10       	lea    0x10(%rsp),%rax
    55e6:	48 89 c7             	mov    %rax,%rdi
    55e9:	e8 02 c9 ff ff       	callq  1ef0 <_ZNSaIcED1Ev@plt>
    55ee:	e9 ee 00 00 00       	jmpq   56e1 <_ZNSt6localeC1Ev@plt+0x35f1>
    55f3:	48 89 c5             	mov    %rax,%rbp
    55f6:	48 8d 84 24 60 01 00 	lea    0x160(%rsp),%rax
    55fd:	00 
    55fe:	48 89 c7             	mov    %rax,%rdi
    5601:	e8 fa c7 ff ff       	callq  1e00 <_ZNSt7__cxx1112basic_stringIcSt11char_traitsIcESaIcEED1Ev@plt>
    5606:	eb 03                	jmp    560b <_ZNSt6localeC1Ev@plt+0x351b>
    5608:	48 89 c5             	mov    %rax,%rbp
    560b:	48 8d 44 24 10       	lea    0x10(%rsp),%rax
    5610:	48 89 c7             	mov    %rax,%rdi
    5613:	e8 d8 c8 ff ff       	callq  1ef0 <_ZNSaIcED1Ev@plt>
    5618:	e9 c4 00 00 00       	jmpq   56e1 <_ZNSt6localeC1Ev@plt+0x35f1>
    561d:	48 89 c5             	mov    %rax,%rbp
    5620:	48 8d 84 24 60 01 00 	lea    0x160(%rsp),%rax
    5627:	00 
    5628:	48 89 c7             	mov    %rax,%rdi
    562b:	e8 d0 c7 ff ff       	callq  1e00 <_ZNSt7__cxx1112basic_stringIcSt11char_traitsIcESaIcEED1Ev@plt>
    5630:	eb 03                	jmp    5635 <_ZNSt6localeC1Ev@plt+0x3545>
    5632:	48 89 c5             	mov    %rax,%rbp
    5635:	48 8d 44 24 10       	lea    0x10(%rsp),%rax
    563a:	48 89 c7             	mov    %rax,%rdi
    563d:	e8 ae c8 ff ff       	callq  1ef0 <_ZNSaIcED1Ev@plt>
    5642:	e9 9a 00 00 00       	jmpq   56e1 <_ZNSt6localeC1Ev@plt+0x35f1>
    5647:	48 89 c5             	mov    %rax,%rbp
    564a:	48 8d 84 24 60 01 00 	lea    0x160(%rsp),%rax
    5651:	00 
    5652:	48 89 c7             	mov    %rax,%rdi
    5655:	e8 a6 c7 ff ff       	callq  1e00 <_ZNSt7__cxx1112basic_stringIcSt11char_traitsIcESaIcEED1Ev@plt>
    565a:	eb 03                	jmp    565f <_ZNSt6localeC1Ev@plt+0x356f>
    565c:	48 89 c5             	mov    %rax,%rbp
    565f:	48 8d 44 24 10       	lea    0x10(%rsp),%rax
    5664:	48 89 c7             	mov    %rax,%rdi
    5667:	e8 84 c8 ff ff       	callq  1ef0 <_ZNSaIcED1Ev@plt>
    566c:	eb 73                	jmp    56e1 <_ZNSt6localeC1Ev@plt+0x35f1>
    566e:	48 89 c5             	mov    %rax,%rbp
    5671:	48 8d 84 24 60 01 00 	lea    0x160(%rsp),%rax
    5678:	00 
    5679:	48 89 c7             	mov    %rax,%rdi
    567c:	e8 7f c7 ff ff       	callq  1e00 <_ZNSt7__cxx1112basic_stringIcSt11char_traitsIcESaIcEED1Ev@plt>
    5681:	eb 03                	jmp    5686 <_ZNSt6localeC1Ev@plt+0x3596>
    5683:	48 89 c5             	mov    %rax,%rbp
    5686:	48 8d 44 24 10       	lea    0x10(%rsp),%rax
    568b:	48 89 c7             	mov    %rax,%rdi
    568e:	e8 5d c8 ff ff       	callq  1ef0 <_ZNSaIcED1Ev@plt>
    5693:	eb 4c                	jmp    56e1 <_ZNSt6localeC1Ev@plt+0x35f1>
    5695:	48 89 c5             	mov    %rax,%rbp
    5698:	48 8d 84 24 60 01 00 	lea    0x160(%rsp),%rax
    569f:	00 
    56a0:	48 89 c7             	mov    %rax,%rdi
    56a3:	e8 58 c7 ff ff       	callq  1e00 <_ZNSt7__cxx1112basic_stringIcSt11char_traitsIcESaIcEED1Ev@plt>
    56a8:	eb 03                	jmp    56ad <_ZNSt6localeC1Ev@plt+0x35bd>
    56aa:	48 89 c5             	mov    %rax,%rbp
    56ad:	48 8d 44 24 10       	lea    0x10(%rsp),%rax
    56b2:	48 89 c7             	mov    %rax,%rdi
    56b5:	e8 36 c8 ff ff       	callq  1ef0 <_ZNSaIcED1Ev@plt>
    56ba:	eb 25                	jmp    56e1 <_ZNSt6localeC1Ev@plt+0x35f1>
    56bc:	48 89 c5             	mov    %rax,%rbp
    56bf:	48 8d 84 24 60 01 00 	lea    0x160(%rsp),%rax
    56c6:	00 
    56c7:	48 89 c7             	mov    %rax,%rdi
    56ca:	e8 31 c7 ff ff       	callq  1e00 <_ZNSt7__cxx1112basic_stringIcSt11char_traitsIcESaIcEED1Ev@plt>
    56cf:	eb 03                	jmp    56d4 <_ZNSt6localeC1Ev@plt+0x35e4>
    56d1:	48 89 c5             	mov    %rax,%rbp
    56d4:	48 8d 44 24 10       	lea    0x10(%rsp),%rax
    56d9:	48 89 c7             	mov    %rax,%rdi
    56dc:	e8 0f c8 ff ff       	callq  1ef0 <_ZNSaIcED1Ev@plt>
    56e1:	4d 85 e4             	test   %r12,%r12
    56e4:	74 23                	je     5709 <_ZNSt6localeC1Ev@plt+0x3619>
    56e6:	b8 45 00 00 00       	mov    $0x45,%eax
    56eb:	48 29 d8             	sub    %rbx,%rax
    56ee:	48 c1 e0 05          	shl    $0x5,%rax
    56f2:	49 8d 1c 04          	lea    (%r12,%rax,1),%rbx
    56f6:	4c 39 e3             	cmp    %r12,%rbx
    56f9:	74 0e                	je     5709 <_ZNSt6localeC1Ev@plt+0x3619>
    56fb:	48 83 eb 20          	sub    $0x20,%rbx
    56ff:	48 89 df             	mov    %rbx,%rdi
    5702:	e8 f9 c6 ff ff       	callq  1e00 <_ZNSt7__cxx1112basic_stringIcSt11char_traitsIcESaIcEED1Ev@plt>
    5707:	eb ed                	jmp    56f6 <_ZNSt6localeC1Ev@plt+0x3606>
    5709:	48 89 eb             	mov    %rbp,%rbx
    570c:	e9 6e 01 00 00       	jmpq   587f <_ZNSt6localeC1Ev@plt+0x378f>
    5711:	48 89 c3             	mov    %rax,%rbx
    5714:	48 8d 44 24 10       	lea    0x10(%rsp),%rax
    5719:	48 89 c7             	mov    %rax,%rdi
    571c:	e8 8f c8 ff ff       	callq  1fb0 <_ZNSt6localeD1Ev@plt>
    5721:	48 89 dd             	mov    %rbx,%rbp
    5724:	e9 24 01 00 00       	jmpq   584d <_ZNSt6localeC1Ev@plt+0x375d>
    5729:	49 89 c6             	mov    %rax,%r14
    572c:	45 84 ff             	test   %r15b,%r15b
    572f:	74 10                	je     5741 <_ZNSt6localeC1Ev@plt+0x3651>
    5731:	48 8d 84 24 60 01 00 	lea    0x160(%rsp),%rax
    5738:	00 
    5739:	48 89 c7             	mov    %rax,%rdi
    573c:	e8 bf c6 ff ff       	callq  1e00 <_ZNSt7__cxx1112basic_stringIcSt11char_traitsIcESaIcEED1Ev@plt>
    5741:	45 84 e4             	test   %r12b,%r12b
    5744:	74 10                	je     5756 <_ZNSt6localeC1Ev@plt+0x3666>
    5746:	48 8d 84 24 40 01 00 	lea    0x140(%rsp),%rax
    574d:	00 
    574e:	48 89 c7             	mov    %rax,%rdi
    5751:	e8 aa c6 ff ff       	callq  1e00 <_ZNSt7__cxx1112basic_stringIcSt11char_traitsIcESaIcEED1Ev@plt>
    5756:	4d 89 f4             	mov    %r14,%r12
    5759:	40 84 ed             	test   %bpl,%bpl
    575c:	74 10                	je     576e <_ZNSt6localeC1Ev@plt+0x367e>
    575e:	48 8d 84 24 20 01 00 	lea    0x120(%rsp),%rax
    5765:	00 
    5766:	48 89 c7             	mov    %rax,%rdi
    5769:	e8 92 c6 ff ff       	callq  1e00 <_ZNSt7__cxx1112basic_stringIcSt11char_traitsIcESaIcEED1Ev@plt>
    576e:	4c 89 e5             	mov    %r12,%rbp
    5771:	84 db                	test   %bl,%bl
    5773:	74 10                	je     5785 <_ZNSt6localeC1Ev@plt+0x3695>
    5775:	48 8d 84 24 00 01 00 	lea    0x100(%rsp),%rax
    577c:	00 
    577d:	48 89 c7             	mov    %rax,%rdi
    5780:	e8 7b c6 ff ff       	callq  1e00 <_ZNSt7__cxx1112basic_stringIcSt11char_traitsIcESaIcEED1Ev@plt>
    5785:	48 89 eb             	mov    %rbp,%rbx
    5788:	45 84 ed             	test   %r13b,%r13b
    578b:	74 0d                	je     579a <_ZNSt6localeC1Ev@plt+0x36aa>
    578d:	48 8d 44 24 10       	lea    0x10(%rsp),%rax
    5792:	48 89 c7             	mov    %rax,%rdi
    5795:	e8 56 c7 ff ff       	callq  1ef0 <_ZNSaIcED1Ev@plt>
    579a:	48 89 dd             	mov    %rbx,%rbp
    579d:	e9 ab 00 00 00       	jmpq   584d <_ZNSt6localeC1Ev@plt+0x375d>
    57a2:	48 89 c3             	mov    %rax,%rbx
    57a5:	48 8d 84 24 40 01 00 	lea    0x140(%rsp),%rax
    57ac:	00 
    57ad:	48 89 c7             	mov    %rax,%rdi
    57b0:	e8 4b c6 ff ff       	callq  1e00 <_ZNSt7__cxx1112basic_stringIcSt11char_traitsIcESaIcEED1Ev@plt>
    57b5:	eb 03                	jmp    57ba <_ZNSt6localeC1Ev@plt+0x36ca>
    57b7:	48 89 c3             	mov    %rax,%rbx
    57ba:	48 8d 84 24 20 01 00 	lea    0x120(%rsp),%rax
    57c1:	00 
    57c2:	48 89 c7             	mov    %rax,%rdi
    57c5:	e8 36 c6 ff ff       	callq  1e00 <_ZNSt7__cxx1112basic_stringIcSt11char_traitsIcESaIcEED1Ev@plt>
    57ca:	eb 03                	jmp    57cf <_ZNSt6localeC1Ev@plt+0x36df>
    57cc:	48 89 c3             	mov    %rax,%rbx
    57cf:	48 8d 84 24 00 01 00 	lea    0x100(%rsp),%rax
    57d6:	00 
    57d7:	48 89 c7             	mov    %rax,%rdi
    57da:	e8 21 c6 ff ff       	callq  1e00 <_ZNSt7__cxx1112basic_stringIcSt11char_traitsIcESaIcEED1Ev@plt>
    57df:	eb 03                	jmp    57e4 <_ZNSt6localeC1Ev@plt+0x36f4>
    57e1:	48 89 c3             	mov    %rax,%rbx
    57e4:	48 8d 84 24 e0 00 00 	lea    0xe0(%rsp),%rax
    57eb:	00 
    57ec:	48 89 c7             	mov    %rax,%rdi
    57ef:	e8 0c c6 ff ff       	callq  1e00 <_ZNSt7__cxx1112basic_stringIcSt11char_traitsIcESaIcEED1Ev@plt>
    57f4:	eb 03                	jmp    57f9 <_ZNSt6localeC1Ev@plt+0x3709>
    57f6:	48 89 c3             	mov    %rax,%rbx
    57f9:	48 8d 84 24 c0 00 00 	lea    0xc0(%rsp),%rax
    5800:	00 
    5801:	48 89 c7             	mov    %rax,%rdi
    5804:	e8 f7 c5 ff ff       	callq  1e00 <_ZNSt7__cxx1112basic_stringIcSt11char_traitsIcESaIcEED1Ev@plt>
    5809:	eb 03                	jmp    580e <_ZNSt6localeC1Ev@plt+0x371e>
    580b:	48 89 c3             	mov    %rax,%rbx
    580e:	48 8d 84 24 a0 00 00 	lea    0xa0(%rsp),%rax
    5815:	00 
    5816:	48 89 c7             	mov    %rax,%rdi
    5819:	e8 e2 c5 ff ff       	callq  1e00 <_ZNSt7__cxx1112basic_stringIcSt11char_traitsIcESaIcEED1Ev@plt>
    581e:	eb 03                	jmp    5823 <_ZNSt6localeC1Ev@plt+0x3733>
    5820:	48 89 c3             	mov    %rax,%rbx
    5823:	48 8d 84 24 80 00 00 	lea    0x80(%rsp),%rax
    582a:	00 
    582b:	48 89 c7             	mov    %rax,%rdi
    582e:	e8 cd c5 ff ff       	callq  1e00 <_ZNSt7__cxx1112basic_stringIcSt11char_traitsIcESaIcEED1Ev@plt>
    5833:	eb 03                	jmp    5838 <_ZNSt6localeC1Ev@plt+0x3748>
    5835:	48 89 c3             	mov    %rax,%rbx
    5838:	48 8d 44 24 10       	lea    0x10(%rsp),%rax
    583d:	48 89 c7             	mov    %rax,%rdi
    5840:	e8 ab c6 ff ff       	callq  1ef0 <_ZNSaIcED1Ev@plt>
    5845:	48 89 dd             	mov    %rbx,%rbp
    5848:	eb 03                	jmp    584d <_ZNSt6localeC1Ev@plt+0x375d>
    584a:	48 89 c5             	mov    %rax,%rbp
    584d:	48 8d 9c 24 90 03 00 	lea    0x390(%rsp),%rbx
    5854:	00 
    5855:	48 81 c3 c0 08 00 00 	add    $0x8c0,%rbx
    585c:	48 8d 84 24 90 03 00 	lea    0x390(%rsp),%rax
    5863:	00 
    5864:	48 39 c3             	cmp    %rax,%rbx
    5867:	74 0e                	je     5877 <_ZNSt6localeC1Ev@plt+0x3787>
    5869:	48 83 eb 20          	sub    $0x20,%rbx
    586d:	48 89 df             	mov    %rbx,%rdi
    5870:	e8 8b c5 ff ff       	callq  1e00 <_ZNSt7__cxx1112basic_stringIcSt11char_traitsIcESaIcEED1Ev@plt>
    5875:	eb e5                	jmp    585c <_ZNSt6localeC1Ev@plt+0x376c>
    5877:	48 89 eb             	mov    %rbp,%rbx
    587a:	eb 03                	jmp    587f <_ZNSt6localeC1Ev@plt+0x378f>
    587c:	48 89 c3             	mov    %rax,%rbx
    587f:	48 8d 84 24 80 01 00 	lea    0x180(%rsp),%rax
    5886:	00 
    5887:	48 89 c7             	mov    %rax,%rdi
    588a:	e8 d1 c4 ff ff       	callq  1d60 <_ZNSt14basic_ifstreamIcSt11char_traitsIcEED1Ev@plt>
    588f:	eb 03                	jmp    5894 <_ZNSt6localeC1Ev@plt+0x37a4>
    5891:	48 89 c3             	mov    %rax,%rbx
    5894:	48 8d 44 24 60       	lea    0x60(%rsp),%rax
    5899:	48 89 c7             	mov    %rax,%rdi
    589c:	e8 5f c5 ff ff       	callq  1e00 <_ZNSt7__cxx1112basic_stringIcSt11char_traitsIcESaIcEED1Ev@plt>
    58a1:	48 8d 44 24 40       	lea    0x40(%rsp),%rax
    58a6:	48 89 c7             	mov    %rax,%rdi
    58a9:	e8 52 c5 ff ff       	callq  1e00 <_ZNSt7__cxx1112basic_stringIcSt11char_traitsIcESaIcEED1Ev@plt>
    58ae:	48 8d 44 24 20       	lea    0x20(%rsp),%rax
    58b3:	48 89 c7             	mov    %rax,%rdi
    58b6:	e8 45 c5 ff ff       	callq  1e00 <_ZNSt7__cxx1112basic_stringIcSt11char_traitsIcESaIcEED1Ev@plt>
    58bb:	48 89 d8             	mov    %rbx,%rax
    58be:	48 89 c7             	mov    %rax,%rdi
    58c1:	e8 ca c7 ff ff       	callq  2090 <_Unwind_Resume@plt>
    58c6:	e8 45 c6 ff ff       	callq  1f10 <__stack_chk_fail@plt>
    58cb:	48 81 c4 68 0c 00 00 	add    $0xc68,%rsp
    58d2:	5b                   	pop    %rbx
    58d3:	5d                   	pop    %rbp
    58d4:	41 5c                	pop    %r12
    58d6:	41 5d                	pop    %r13
    58d8:	41 5e                	pop    %r14
    58da:	41 5f                	pop    %r15
    58dc:	c3                   	retq   
    58dd:	48 83 ec 18          	sub    $0x18,%rsp
    58e1:	89 7c 24 0c          	mov    %edi,0xc(%rsp)
    58e5:	89 74 24 08          	mov    %esi,0x8(%rsp)
    58e9:	83 7c 24 0c 01       	cmpl   $0x1,0xc(%rsp)
    58ee:	75 33                	jne    5923 <_ZNSt6localeC1Ev@plt+0x3833>
    58f0:	81 7c 24 08 ff ff 00 	cmpl   $0xffff,0x8(%rsp)
    58f7:	00 
    58f8:	75 29                	jne    5923 <_ZNSt6localeC1Ev@plt+0x3833>
    58fa:	48 8d 3d 70 48 20 00 	lea    0x204870(%rip),%rdi        # 20a171 <_ZSt4cout@@GLIBCXX_3.4+0x111>
    5901:	e8 0a c7 ff ff       	callq  2010 <_ZNSt8ios_base4InitC1Ev@plt>
    5906:	48 8d 15 fb 46 20 00 	lea    0x2046fb(%rip),%rdx        # 20a008 <_ZTISt16invalid_argument@@GLIBCXX_3.4+0x498>
    590d:	48 8d 35 5d 48 20 00 	lea    0x20485d(%rip),%rsi        # 20a171 <_ZSt4cout@@GLIBCXX_3.4+0x111>
    5914:	48 8b 05 dd 46 20 00 	mov    0x2046dd(%rip),%rax        # 209ff8 <_ZTISt16invalid_argument@@GLIBCXX_3.4+0x488>
    591b:	48 89 c7             	mov    %rax,%rdi
    591e:	e8 6d c5 ff ff       	callq  1e90 <__cxa_atexit@plt>
    5923:	90                   	nop
    5924:	48 83 c4 18          	add    $0x18,%rsp
    5928:	c3                   	retq   
    5929:	48 83 ec 08          	sub    $0x8,%rsp
    592d:	be ff ff 00 00       	mov    $0xffff,%esi
    5932:	bf 01 00 00 00       	mov    $0x1,%edi
    5937:	e8 a1 ff ff ff       	callq  58dd <_ZNSt6localeC1Ev@plt+0x37ed>
    593c:	48 83 c4 08          	add    $0x8,%rsp
    5940:	c3                   	retq   
    5941:	c3                   	retq   
    5942:	48 83 ec 28          	sub    $0x28,%rsp
    5946:	48 89 7c 24 18       	mov    %rdi,0x18(%rsp)
    594b:	48 89 74 24 10       	mov    %rsi,0x10(%rsp)
    5950:	48 89 54 24 08       	mov    %rdx,0x8(%rsp)
    5955:	48 83 7c 24 08 00    	cmpq   $0x0,0x8(%rsp)
    595b:	75 07                	jne    5964 <_ZNSt6localeC1Ev@plt+0x3874>
    595d:	b8 00 00 00 00       	mov    $0x0,%eax
    5962:	eb 1a                	jmp    597e <_ZNSt6localeC1Ev@plt+0x388e>
    5964:	48 8b 54 24 08       	mov    0x8(%rsp),%rdx
    5969:	48 8b 4c 24 10       	mov    0x10(%rsp),%rcx
    596e:	48 8b 44 24 18       	mov    0x18(%rsp),%rax
    5973:	48 89 ce             	mov    %rcx,%rsi
    5976:	48 89 c7             	mov    %rax,%rdi
    5979:	e8 32 c4 ff ff       	callq  1db0 <memcmp@plt>
    597e:	48 83 c4 28          	add    $0x28,%rsp
    5982:	c3                   	retq   
    5983:	90                   	nop
    5984:	48 83 ec 18          	sub    $0x18,%rsp
    5988:	48 89 7c 24 08       	mov    %rdi,0x8(%rsp)
    598d:	89 f0                	mov    %esi,%eax
    598f:	88 44 24 04          	mov    %al,0x4(%rsp)
    5993:	48 8b 44 24 08       	mov    0x8(%rsp),%rax
    5998:	48 8b 00             	mov    (%rax),%rax
    599b:	48 83 c0 20          	add    $0x20,%rax
    599f:	48 8b 00             	mov    (%rax),%rax
    59a2:	0f be 4c 24 04       	movsbl 0x4(%rsp),%ecx
    59a7:	48 8b 54 24 08       	mov    0x8(%rsp),%rdx
    59ac:	89 ce                	mov    %ecx,%esi
    59ae:	48 89 d7             	mov    %rdx,%rdi
    59b1:	ff d0                	callq  *%rax
    59b3:	48 83 c4 18          	add    $0x18,%rsp
    59b7:	c3                   	retq   
    59b8:	53                   	push   %rbx
    59b9:	48 83 ec 30          	sub    $0x30,%rsp
    59bd:	48 89 7c 24 18       	mov    %rdi,0x18(%rsp)
    59c2:	48 89 74 24 10       	mov    %rsi,0x10(%rsp)
    59c7:	48 89 54 24 08       	mov    %rdx,0x8(%rsp)
    59cc:	64 48 8b 04 25 28 00 	mov    %fs:0x28,%rax
    59d3:	00 00 
    59d5:	48 89 44 24 28       	mov    %rax,0x28(%rsp)
    59da:	31 c0                	xor    %eax,%eax
    59dc:	e8 60 ff ff ff       	callq  5941 <_ZNSt6localeC1Ev@plt+0x3851>
    59e1:	48 8b 54 24 08       	mov    0x8(%rsp),%rdx
    59e6:	48 8b 4c 24 10       	mov    0x10(%rsp),%rcx
    59eb:	48 8b 44 24 18       	mov    0x18(%rsp),%rax
    59f0:	48 83 ec 08          	sub    $0x8,%rsp
    59f4:	53                   	push   %rbx
    59f5:	48 89 ce             	mov    %rcx,%rsi
    59f8:	48 89 c7             	mov    %rax,%rdi
    59fb:	e8 18 01 00 00       	callq  5b18 <_ZNSt6localeC1Ev@plt+0x3a28>
    5a00:	48 83 c4 10          	add    $0x10,%rsp
    5a04:	48 8b 5c 24 28       	mov    0x28(%rsp),%rbx
    5a09:	64 48 33 1c 25 28 00 	xor    %fs:0x28,%rbx
    5a10:	00 00 
    5a12:	74 05                	je     5a19 <_ZNSt6localeC1Ev@plt+0x3929>
    5a14:	e8 f7 c4 ff ff       	callq  1f10 <__stack_chk_fail@plt>
    5a19:	48 83 c4 30          	add    $0x30,%rsp
    5a1d:	5b                   	pop    %rbx
    5a1e:	c3                   	retq   
    5a1f:	48 83 ec 48          	sub    $0x48,%rsp
    5a23:	48 89 7c 24 08       	mov    %rdi,0x8(%rsp)
    5a28:	48 89 34 24          	mov    %rsi,(%rsp)
    5a2c:	64 48 8b 04 25 28 00 	mov    %fs:0x28,%rax
    5a33:	00 00 
    5a35:	48 89 44 24 38       	mov    %rax,0x38(%rsp)
    5a3a:	31 c0                	xor    %eax,%eax
    5a3c:	48 8b 14 24          	mov    (%rsp),%rdx
    5a40:	48 8d 44 24 18       	lea    0x18(%rsp),%rax
    5a45:	48 89 d6             	mov    %rdx,%rsi
    5a48:	48 89 c7             	mov    %rax,%rdi
    5a4b:	e8 d2 01 00 00       	callq  5c22 <_ZNSt6localeC1Ev@plt+0x3b32>
    5a50:	48 8b 44 24 08       	mov    0x8(%rsp),%rax
    5a55:	48 89 c7             	mov    %rax,%rdi
    5a58:	e8 97 01 00 00       	callq  5bf4 <_ZNSt6localeC1Ev@plt+0x3b04>
    5a5d:	48 89 44 24 20       	mov    %rax,0x20(%rsp)
    5a62:	48 89 54 24 28       	mov    %rdx,0x28(%rsp)
    5a67:	48 8b 54 24 18       	mov    0x18(%rsp),%rdx
    5a6c:	48 8d 44 24 20       	lea    0x20(%rsp),%rax
    5a71:	48 89 d6             	mov    %rdx,%rsi
    5a74:	48 89 c7             	mov    %rax,%rdi
    5a77:	e8 bf 01 00 00       	callq  5c3b <_ZNSt6localeC1Ev@plt+0x3b4b>
    5a7c:	90                   	nop
    5a7d:	48 8b 44 24 38       	mov    0x38(%rsp),%rax
    5a82:	64 48 33 04 25 28 00 	xor    %fs:0x28,%rax
    5a89:	00 00 
    5a8b:	74 05                	je     5a92 <_ZNSt6localeC1Ev@plt+0x39a2>
    5a8d:	e8 7e c4 ff ff       	callq  1f10 <__stack_chk_fail@plt>
    5a92:	48 83 c4 48          	add    $0x48,%rsp
    5a96:	c3                   	retq   
    5a97:	55                   	push   %rbp
    5a98:	53                   	push   %rbx
    5a99:	48 83 ec 18          	sub    $0x18,%rsp
    5a9d:	48 89 7c 24 08       	mov    %rdi,0x8(%rsp)
    5aa2:	48 89 34 24          	mov    %rsi,(%rsp)
    5aa6:	48 8b 44 24 08       	mov    0x8(%rsp),%rax
    5aab:	48 89 c7             	mov    %rax,%rdi
    5aae:	e8 6d c3 ff ff       	callq  1e20 <_ZNKSt7__cxx1112basic_stringIcSt11char_traitsIcESaIcEE4sizeEv@plt>
    5ab3:	48 89 c3             	mov    %rax,%rbx
    5ab6:	48 8b 04 24          	mov    (%rsp),%rax
    5aba:	48 89 c7             	mov    %rax,%rdi
    5abd:	e8 5e c3 ff ff       	callq  1e20 <_ZNKSt7__cxx1112basic_stringIcSt11char_traitsIcESaIcEE4sizeEv@plt>
    5ac2:	48 39 c3             	cmp    %rax,%rbx
    5ac5:	75 45                	jne    5b0c <_ZNSt6localeC1Ev@plt+0x3a1c>
    5ac7:	48 8b 44 24 08       	mov    0x8(%rsp),%rax
    5acc:	48 89 c7             	mov    %rax,%rdi
    5acf:	e8 4c c3 ff ff       	callq  1e20 <_ZNKSt7__cxx1112basic_stringIcSt11char_traitsIcESaIcEE4sizeEv@plt>
    5ad4:	48 89 c5             	mov    %rax,%rbp
    5ad7:	48 8b 04 24          	mov    (%rsp),%rax
    5adb:	48 89 c7             	mov    %rax,%rdi
    5ade:	e8 8d c4 ff ff       	callq  1f70 <_ZNKSt7__cxx1112basic_stringIcSt11char_traitsIcESaIcEE4dataEv@plt>
    5ae3:	48 89 c3             	mov    %rax,%rbx
    5ae6:	48 8b 44 24 08       	mov    0x8(%rsp),%rax
    5aeb:	48 89 c7             	mov    %rax,%rdi
    5aee:	e8 7d c4 ff ff       	callq  1f70 <_ZNKSt7__cxx1112basic_stringIcSt11char_traitsIcESaIcEE4dataEv@plt>
    5af3:	48 89 ea             	mov    %rbp,%rdx
    5af6:	48 89 de             	mov    %rbx,%rsi
    5af9:	48 89 c7             	mov    %rax,%rdi
    5afc:	e8 41 fe ff ff       	callq  5942 <_ZNSt6localeC1Ev@plt+0x3852>
    5b01:	85 c0                	test   %eax,%eax
    5b03:	75 07                	jne    5b0c <_ZNSt6localeC1Ev@plt+0x3a1c>
    5b05:	b8 01 00 00 00       	mov    $0x1,%eax
    5b0a:	eb 05                	jmp    5b11 <_ZNSt6localeC1Ev@plt+0x3a21>
    5b0c:	b8 00 00 00 00       	mov    $0x0,%eax
    5b11:	48 83 c4 18          	add    $0x18,%rsp
    5b15:	5b                   	pop    %rbx
    5b16:	5d                   	pop    %rbp
    5b17:	c3                   	retq   
    5b18:	48 83 ec 48          	sub    $0x48,%rsp
    5b1c:	48 89 7c 24 18       	mov    %rdi,0x18(%rsp)
    5b21:	48 89 74 24 10       	mov    %rsi,0x10(%rsp)
    5b26:	48 89 54 24 08       	mov    %rdx,0x8(%rsp)
    5b2b:	64 48 8b 04 25 28 00 	mov    %fs:0x28,%rax
    5b32:	00 00 
    5b34:	48 89 44 24 38       	mov    %rax,0x38(%rsp)
    5b39:	31 c0                	xor    %eax,%eax
    5b3b:	48 8b 54 24 10       	mov    0x10(%rsp),%rdx
    5b40:	48 8b 44 24 18       	mov    0x18(%rsp),%rax
    5b45:	48 89 d6             	mov    %rdx,%rsi
    5b48:	48 89 c7             	mov    %rax,%rdi
    5b4b:	e8 4a 01 00 00       	callq  5c9a <_ZNSt6localeC1Ev@plt+0x3baa>
    5b50:	48 89 44 24 28       	mov    %rax,0x28(%rsp)
    5b55:	48 83 7c 24 28 00    	cmpq   $0x0,0x28(%rsp)
    5b5b:	7e 78                	jle    5bd5 <_ZNSt6localeC1Ev@plt+0x3ae5>
    5b5d:	48 8b 44 24 28       	mov    0x28(%rsp),%rax
    5b62:	48 d1 f8             	sar    %rax
    5b65:	48 89 44 24 30       	mov    %rax,0x30(%rsp)
    5b6a:	48 8b 44 24 18       	mov    0x18(%rsp),%rax
    5b6f:	48 89 44 24 20       	mov    %rax,0x20(%rsp)
    5b74:	48 8b 54 24 30       	mov    0x30(%rsp),%rdx
    5b79:	48 8d 44 24 20       	lea    0x20(%rsp),%rax
    5b7e:	48 89 d6             	mov    %rdx,%rsi
    5b81:	48 89 c7             	mov    %rax,%rdi
    5b84:	e8 74 01 00 00       	callq  5cfd <_ZNSt6localeC1Ev@plt+0x3c0d>
    5b89:	48 8b 44 24 20       	mov    0x20(%rsp),%rax
    5b8e:	48 8b 54 24 08       	mov    0x8(%rsp),%rdx
    5b93:	48 89 c6             	mov    %rax,%rsi
    5b96:	48 8d 7c 24 50       	lea    0x50(%rsp),%rdi
    5b9b:	e8 cc 01 00 00       	callq  5d6c <_ZNSt6localeC1Ev@plt+0x3c7c>
    5ba0:	84 c0                	test   %al,%al
    5ba2:	74 25                	je     5bc9 <_ZNSt6localeC1Ev@plt+0x3ad9>
    5ba4:	48 8b 44 24 20       	mov    0x20(%rsp),%rax
    5ba9:	48 89 44 24 18       	mov    %rax,0x18(%rsp)
    5bae:	48 83 44 24 18 01    	addq   $0x1,0x18(%rsp)
    5bb4:	48 8b 44 24 28       	mov    0x28(%rsp),%rax
    5bb9:	48 2b 44 24 30       	sub    0x30(%rsp),%rax
    5bbe:	48 83 e8 01          	sub    $0x1,%rax
    5bc2:	48 89 44 24 28       	mov    %rax,0x28(%rsp)
    5bc7:	eb 8c                	jmp    5b55 <_ZNSt6localeC1Ev@plt+0x3a65>
    5bc9:	48 8b 44 24 30       	mov    0x30(%rsp),%rax
    5bce:	48 89 44 24 28       	mov    %rax,0x28(%rsp)
    5bd3:	eb 80                	jmp    5b55 <_ZNSt6localeC1Ev@plt+0x3a65>
    5bd5:	48 8b 44 24 18       	mov    0x18(%rsp),%rax
    5bda:	48 8b 4c 24 38       	mov    0x38(%rsp),%rcx
    5bdf:	64 48 33 0c 25 28 00 	xor    %fs:0x28,%rcx
    5be6:	00 00 
    5be8:	74 05                	je     5bef <_ZNSt6localeC1Ev@plt+0x3aff>
    5bea:	e8 21 c3 ff ff       	callq  1f10 <__stack_chk_fail@plt>
    5bef:	48 83 c4 48          	add    $0x48,%rsp
    5bf3:	c3                   	retq   
    5bf4:	48 83 ec 18          	sub    $0x18,%rsp
    5bf8:	48 89 7c 24 08       	mov    %rdi,0x8(%rsp)
    5bfd:	48 8b 44 24 08       	mov    0x8(%rsp),%rax
    5c02:	48 89 c7             	mov    %rax,%rdi
    5c05:	e8 87 01 00 00       	callq  5d91 <_ZNSt6localeC1Ev@plt+0x3ca1>
    5c0a:	48 89 c2             	mov    %rax,%rdx
    5c0d:	48 8b 44 24 08       	mov    0x8(%rsp),%rax
    5c12:	48 89 d6             	mov    %rdx,%rsi
    5c15:	48 89 c7             	mov    %rax,%rdi
    5c18:	e8 7f 01 00 00       	callq  5d9c <_ZNSt6localeC1Ev@plt+0x3cac>
    5c1d:	48 83 c4 18          	add    $0x18,%rsp
    5c21:	c3                   	retq   
    5c22:	48 89 7c 24 f8       	mov    %rdi,-0x8(%rsp)
    5c27:	48 89 74 24 f0       	mov    %rsi,-0x10(%rsp)
    5c2c:	48 8b 44 24 f8       	mov    -0x8(%rsp),%rax
    5c31:	48 8b 54 24 f0       	mov    -0x10(%rsp),%rdx
    5c36:	48 89 10             	mov    %rdx,(%rax)
    5c39:	90                   	nop
    5c3a:	c3                   	retq   
    5c3b:	55                   	push   %rbp
    5c3c:	53                   	push   %rbx
    5c3d:	48 83 ec 18          	sub    $0x18,%rsp
    5c41:	48 89 7c 24 08       	mov    %rdi,0x8(%rsp)
    5c46:	48 89 34 24          	mov    %rsi,(%rsp)
    5c4a:	48 8b 44 24 08       	mov    0x8(%rsp),%rax
    5c4f:	48 89 c7             	mov    %rax,%rdi
    5c52:	e8 64 01 00 00       	callq  5dbb <_ZNSt6localeC1Ev@plt+0x3ccb>
    5c57:	48 89 c5             	mov    %rax,%rbp
    5c5a:	48 8b 44 24 08       	mov    0x8(%rsp),%rax
    5c5f:	48 89 c7             	mov    %rax,%rdi
    5c62:	e8 6f 01 00 00       	callq  5dd6 <_ZNSt6localeC1Ev@plt+0x3ce6>
    5c67:	48 89 c3             	mov    %rax,%rbx
    5c6a:	48 8b 44 24 08       	mov    0x8(%rsp),%rax
    5c6f:	48 89 c7             	mov    %rax,%rdi
    5c72:	e8 44 01 00 00       	callq  5dbb <_ZNSt6localeC1Ev@plt+0x3ccb>
    5c77:	48 89 c7             	mov    %rax,%rdi
    5c7a:	48 8b 04 24          	mov    (%rsp),%rax
    5c7e:	48 89 c1             	mov    %rax,%rcx
    5c81:	48 89 ea             	mov    %rbp,%rdx
    5c84:	48 89 de             	mov    %rbx,%rsi
    5c87:	e8 65 01 00 00       	callq  5df1 <_ZNSt6localeC1Ev@plt+0x3d01>
    5c8c:	90                   	nop
    5c8d:	48 83 c4 18          	add    $0x18,%rsp
    5c91:	5b                   	pop    %rbx
    5c92:	5d                   	pop    %rbp
    5c93:	c3                   	retq   
    5c94:	48 89 7c 24 f8       	mov    %rdi,-0x8(%rsp)
    5c99:	c3                   	retq   
    5c9a:	53                   	push   %rbx
    5c9b:	48 83 ec 20          	sub    $0x20,%rsp
    5c9f:	48 89 7c 24 08       	mov    %rdi,0x8(%rsp)
    5ca4:	48 89 34 24          	mov    %rsi,(%rsp)
    5ca8:	64 48 8b 04 25 28 00 	mov    %fs:0x28,%rax
    5caf:	00 00 
    5cb1:	48 89 44 24 18       	mov    %rax,0x18(%rsp)
    5cb6:	31 c0                	xor    %eax,%eax
    5cb8:	48 8d 44 24 08       	lea    0x8(%rsp),%rax
    5cbd:	48 89 c7             	mov    %rax,%rdi
    5cc0:	e8 cf ff ff ff       	callq  5c94 <_ZNSt6localeC1Ev@plt+0x3ba4>
    5cc5:	48 8b 44 24 08       	mov    0x8(%rsp),%rax
    5cca:	48 8b 14 24          	mov    (%rsp),%rdx
    5cce:	48 83 ec 08          	sub    $0x8,%rsp
    5cd2:	53                   	push   %rbx
    5cd3:	48 89 d6             	mov    %rdx,%rsi
    5cd6:	48 89 c7             	mov    %rax,%rdi
    5cd9:	e8 a0 01 00 00       	callq  5e7e <_ZNSt6localeC1Ev@plt+0x3d8e>
    5cde:	48 83 c4 10          	add    $0x10,%rsp
    5ce2:	48 8b 4c 24 18       	mov    0x18(%rsp),%rcx
    5ce7:	64 48 33 0c 25 28 00 	xor    %fs:0x28,%rcx
    5cee:	00 00 
    5cf0:	74 05                	je     5cf7 <_ZNSt6localeC1Ev@plt+0x3c07>
    5cf2:	e8 19 c2 ff ff       	callq  1f10 <__stack_chk_fail@plt>
    5cf7:	48 83 c4 20          	add    $0x20,%rsp
    5cfb:	5b                   	pop    %rbx
    5cfc:	c3                   	retq   
    5cfd:	53                   	push   %rbx
    5cfe:	48 83 ec 30          	sub    $0x30,%rsp
    5d02:	48 89 7c 24 08       	mov    %rdi,0x8(%rsp)
    5d07:	48 89 34 24          	mov    %rsi,(%rsp)
    5d0b:	64 48 8b 04 25 28 00 	mov    %fs:0x28,%rax
    5d12:	00 00 
    5d14:	48 89 44 24 28       	mov    %rax,0x28(%rsp)
    5d19:	31 c0                	xor    %eax,%eax
    5d1b:	48 8b 04 24          	mov    (%rsp),%rax
    5d1f:	48 89 44 24 20       	mov    %rax,0x20(%rsp)
    5d24:	48 8b 44 24 08       	mov    0x8(%rsp),%rax
    5d29:	48 89 c7             	mov    %rax,%rdi
    5d2c:	e8 63 ff ff ff       	callq  5c94 <_ZNSt6localeC1Ev@plt+0x3ba4>
    5d31:	48 8b 54 24 20       	mov    0x20(%rsp),%rdx
    5d36:	48 8b 44 24 08       	mov    0x8(%rsp),%rax
    5d3b:	48 83 ec 08          	sub    $0x8,%rsp
    5d3f:	53                   	push   %rbx
    5d40:	48 89 d6             	mov    %rdx,%rsi
    5d43:	48 89 c7             	mov    %rax,%rdi
    5d46:	e8 4e 01 00 00       	callq  5e99 <_ZNSt6localeC1Ev@plt+0x3da9>
    5d4b:	48 83 c4 10          	add    $0x10,%rsp
    5d4f:	90                   	nop
    5d50:	48 8b 44 24 28       	mov    0x28(%rsp),%rax
    5d55:	64 48 33 04 25 28 00 	xor    %fs:0x28,%rax
    5d5c:	00 00 
    5d5e:	74 05                	je     5d65 <_ZNSt6localeC1Ev@plt+0x3c75>
    5d60:	e8 ab c1 ff ff       	callq  1f10 <__stack_chk_fail@plt>
    5d65:	48 83 c4 30          	add    $0x30,%rsp
    5d69:	5b                   	pop    %rbx
    5d6a:	c3                   	retq   
    5d6b:	90                   	nop
    5d6c:	48 89 7c 24 f8       	mov    %rdi,-0x8(%rsp)
    5d71:	48 89 74 24 f0       	mov    %rsi,-0x10(%rsp)
    5d76:	48 89 54 24 e8       	mov    %rdx,-0x18(%rsp)
    5d7b:	48 8b 44 24 f0       	mov    -0x10(%rsp),%rax
    5d80:	0f b6 10             	movzbl (%rax),%edx
    5d83:	48 8b 44 24 e8       	mov    -0x18(%rsp),%rax
    5d88:	0f b6 00             	movzbl (%rax),%eax
    5d8b:	38 c2                	cmp    %al,%dl
    5d8d:	0f 9c c0             	setl   %al
    5d90:	c3                   	retq   
    5d91:	48 89 7c 24 f8       	mov    %rdi,-0x8(%rsp)
    5d96:	b8 00 00 00 00       	mov    $0x0,%eax
    5d9b:	c3                   	retq   
    5d9c:	48 83 ec 18          	sub    $0x18,%rsp
    5da0:	48 89 7c 24 08       	mov    %rdi,0x8(%rsp)
    5da5:	48 89 34 24          	mov    %rsi,(%rsp)
    5da9:	48 8b 44 24 08       	mov    0x8(%rsp),%rax
    5dae:	48 89 c7             	mov    %rax,%rdi
    5db1:	e8 07 01 00 00       	callq  5ebd <_ZNSt6localeC1Ev@plt+0x3dcd>
    5db6:	48 83 c4 18          	add    $0x18,%rsp
    5dba:	c3                   	retq   
    5dbb:	48 83 ec 18          	sub    $0x18,%rsp
    5dbf:	48 89 7c 24 08       	mov    %rdi,0x8(%rsp)
    5dc4:	48 8b 44 24 08       	mov    0x8(%rsp),%rax
    5dc9:	48 89 c7             	mov    %rax,%rdi
    5dcc:	e8 47 01 00 00       	callq  5f18 <_ZNSt6localeC1Ev@plt+0x3e28>
    5dd1:	48 83 c4 18          	add    $0x18,%rsp
    5dd5:	c3                   	retq   
    5dd6:	48 83 ec 18          	sub    $0x18,%rsp
    5dda:	48 89 7c 24 08       	mov    %rdi,0x8(%rsp)
    5ddf:	48 8b 44 24 08       	mov    0x8(%rsp),%rax
    5de4:	48 89 c7             	mov    %rax,%rdi
    5de7:	e8 47 01 00 00       	callq  5f33 <_ZNSt6localeC1Ev@plt+0x3e43>
    5dec:	48 83 c4 18          	add    $0x18,%rsp
    5df0:	c3                   	retq   
    5df1:	55                   	push   %rbp
    5df2:	53                   	push   %rbx
    5df3:	48 83 ec 28          	sub    $0x28,%rsp
    5df7:	48 89 7c 24 18       	mov    %rdi,0x18(%rsp)
    5dfc:	48 89 74 24 10       	mov    %rsi,0x10(%rsp)
    5e01:	48 89 54 24 08       	mov    %rdx,0x8(%rsp)
    5e06:	48 89 0c 24          	mov    %rcx,(%rsp)
    5e0a:	48 8d 54 24 10       	lea    0x10(%rsp),%rdx
    5e0f:	48 8d 44 24 18       	lea    0x18(%rsp),%rax
    5e14:	48 89 d6             	mov    %rdx,%rsi
    5e17:	48 89 c7             	mov    %rax,%rdi
    5e1a:	e8 2f 01 00 00       	callq  5f4e <_ZNSt6localeC1Ev@plt+0x3e5e>
    5e1f:	84 c0                	test   %al,%al
    5e21:	74 4f                	je     5e72 <_ZNSt6localeC1Ev@plt+0x3d82>
    5e23:	48 8d 44 24 18       	lea    0x18(%rsp),%rax
    5e28:	48 89 c7             	mov    %rax,%rdi
    5e2b:	e8 78 01 00 00       	callq  5fa8 <_ZNSt6localeC1Ev@plt+0x3eb8>
    5e30:	0f b6 00             	movzbl (%rax),%eax
    5e33:	0f be d8             	movsbl %al,%ebx
    5e36:	48 8d 44 24 08       	lea    0x8(%rsp),%rax
    5e3b:	48 89 c7             	mov    %rax,%rdi
    5e3e:	e8 65 01 00 00       	callq  5fa8 <_ZNSt6localeC1Ev@plt+0x3eb8>
    5e43:	48 89 c5             	mov    %rax,%rbp
    5e46:	48 89 e0             	mov    %rsp,%rax
    5e49:	89 de                	mov    %ebx,%esi
    5e4b:	48 89 c7             	mov    %rax,%rdi
    5e4e:	e8 63 01 00 00       	callq  5fb6 <_ZNSt6localeC1Ev@plt+0x3ec6>
    5e53:	88 45 00             	mov    %al,0x0(%rbp)
    5e56:	48 8d 44 24 18       	lea    0x18(%rsp),%rax
    5e5b:	48 89 c7             	mov    %rax,%rdi
    5e5e:	e8 25 01 00 00       	callq  5f88 <_ZNSt6localeC1Ev@plt+0x3e98>
    5e63:	48 8d 44 24 08       	lea    0x8(%rsp),%rax
    5e68:	48 89 c7             	mov    %rax,%rdi
    5e6b:	e8 18 01 00 00       	callq  5f88 <_ZNSt6localeC1Ev@plt+0x3e98>
    5e70:	eb 98                	jmp    5e0a <_ZNSt6localeC1Ev@plt+0x3d1a>
    5e72:	48 8b 44 24 08       	mov    0x8(%rsp),%rax
    5e77:	48 83 c4 28          	add    $0x28,%rsp
    5e7b:	5b                   	pop    %rbx
    5e7c:	5d                   	pop    %rbp
    5e7d:	c3                   	retq   
    5e7e:	48 89 7c 24 f8       	mov    %rdi,-0x8(%rsp)
    5e83:	48 89 74 24 f0       	mov    %rsi,-0x10(%rsp)
    5e88:	48 8b 54 24 f0       	mov    -0x10(%rsp),%rdx
    5e8d:	48 8b 44 24 f8       	mov    -0x8(%rsp),%rax
    5e92:	48 29 c2             	sub    %rax,%rdx
    5e95:	48 89 d0             	mov    %rdx,%rax
    5e98:	c3                   	retq   
    5e99:	48 89 7c 24 f8       	mov    %rdi,-0x8(%rsp)
    5e9e:	48 89 74 24 f0       	mov    %rsi,-0x10(%rsp)
    5ea3:	48 8b 44 24 f8       	mov    -0x8(%rsp),%rax
    5ea8:	48 8b 10             	mov    (%rax),%rdx
    5eab:	48 8b 44 24 f0       	mov    -0x10(%rsp),%rax
    5eb0:	48 01 c2             	add    %rax,%rdx
    5eb3:	48 8b 44 24 f8       	mov    -0x8(%rsp),%rax
    5eb8:	48 89 10             	mov    %rdx,(%rax)
    5ebb:	90                   	nop
    5ebc:	c3                   	retq   
    5ebd:	48 83 ec 38          	sub    $0x38,%rsp
    5ec1:	48 89 7c 24 08       	mov    %rdi,0x8(%rsp)
    5ec6:	64 48 8b 04 25 28 00 	mov    %fs:0x28,%rax
    5ecd:	00 00 
    5ecf:	48 89 44 24 28       	mov    %rax,0x28(%rsp)
    5ed4:	31 c0                	xor    %eax,%eax
    5ed6:	48 8b 54 24 08       	mov    0x8(%rsp),%rdx
    5edb:	48 8d 44 24 10       	lea    0x10(%rsp),%rax
    5ee0:	48 83 ec 08          	sub    $0x8,%rsp
    5ee4:	51                   	push   %rcx
    5ee5:	48 89 d6             	mov    %rdx,%rsi
    5ee8:	48 89 c7             	mov    %rax,%rdi
    5eeb:	e8 f2 00 00 00       	callq  5fe2 <_ZNSt6localeC1Ev@plt+0x3ef2>
    5ef0:	48 83 c4 10          	add    $0x10,%rsp
    5ef4:	48 8b 44 24 10       	mov    0x10(%rsp),%rax
    5ef9:	48 8b 54 24 18       	mov    0x18(%rsp),%rdx
    5efe:	48 8b 4c 24 28       	mov    0x28(%rsp),%rcx
    5f03:	64 48 33 0c 25 28 00 	xor    %fs:0x28,%rcx
    5f0a:	00 00 
    5f0c:	74 05                	je     5f13 <_ZNSt6localeC1Ev@plt+0x3e23>
    5f0e:	e8 fd bf ff ff       	callq  1f10 <__stack_chk_fail@plt>
    5f13:	48 83 c4 38          	add    $0x38,%rsp
    5f17:	c3                   	retq   
    5f18:	48 83 ec 18          	sub    $0x18,%rsp
    5f1c:	48 89 7c 24 08       	mov    %rdi,0x8(%rsp)
    5f21:	48 8b 44 24 08       	mov    0x8(%rsp),%rax
    5f26:	48 89 c7             	mov    %rax,%rdi
    5f29:	e8 fa 00 00 00       	callq  6028 <_ZNSt6localeC1Ev@plt+0x3f38>
    5f2e:	48 83 c4 18          	add    $0x18,%rsp
    5f32:	c3                   	retq   
    5f33:	48 83 ec 18          	sub    $0x18,%rsp
    5f37:	48 89 7c 24 08       	mov    %rdi,0x8(%rsp)
    5f3c:	48 8b 44 24 08       	mov    0x8(%rsp),%rax
    5f41:	48 89 c7             	mov    %rax,%rdi
    5f44:	e8 ed 00 00 00       	callq  6036 <_ZNSt6localeC1Ev@plt+0x3f46>
    5f49:	48 83 c4 18          	add    $0x18,%rsp
    5f4d:	c3                   	retq   
    5f4e:	53                   	push   %rbx
    5f4f:	48 83 ec 10          	sub    $0x10,%rsp
    5f53:	48 89 7c 24 08       	mov    %rdi,0x8(%rsp)
    5f58:	48 89 34 24          	mov    %rsi,(%rsp)
    5f5c:	48 8b 44 24 08       	mov    0x8(%rsp),%rax
    5f61:	48 89 c7             	mov    %rax,%rdi
    5f64:	e8 dd 00 00 00       	callq  6046 <_ZNSt6localeC1Ev@plt+0x3f56>
    5f69:	48 8b 18             	mov    (%rax),%rbx
    5f6c:	48 8b 04 24          	mov    (%rsp),%rax
    5f70:	48 89 c7             	mov    %rax,%rdi
    5f73:	e8 ce 00 00 00       	callq  6046 <_ZNSt6localeC1Ev@plt+0x3f56>
    5f78:	48 8b 00             	mov    (%rax),%rax
    5f7b:	48 39 c3             	cmp    %rax,%rbx
    5f7e:	0f 95 c0             	setne  %al
    5f81:	48 83 c4 10          	add    $0x10,%rsp
    5f85:	5b                   	pop    %rbx
    5f86:	c3                   	retq   
    5f87:	90                   	nop
    5f88:	48 89 7c 24 f8       	mov    %rdi,-0x8(%rsp)
    5f8d:	48 8b 44 24 f8       	mov    -0x8(%rsp),%rax
    5f92:	48 8b 00             	mov    (%rax),%rax
    5f95:	48 8d 50 01          	lea    0x1(%rax),%rdx
    5f99:	48 8b 44 24 f8       	mov    -0x8(%rsp),%rax
    5f9e:	48 89 10             	mov    %rdx,(%rax)
    5fa1:	48 8b 44 24 f8       	mov    -0x8(%rsp),%rax
    5fa6:	c3                   	retq   
    5fa7:	90                   	nop
    5fa8:	48 89 7c 24 f8       	mov    %rdi,-0x8(%rsp)
    5fad:	48 8b 44 24 f8       	mov    -0x8(%rsp),%rax
    5fb2:	48 8b 00             	mov    (%rax),%rax
    5fb5:	c3                   	retq   
    5fb6:	48 83 ec 18          	sub    $0x18,%rsp
    5fba:	48 89 7c 24 08       	mov    %rdi,0x8(%rsp)
    5fbf:	89 f0                	mov    %esi,%eax
    5fc1:	88 44 24 04          	mov    %al,0x4(%rsp)
    5fc5:	48 8b 44 24 08       	mov    0x8(%rsp),%rax
    5fca:	48 8b 10             	mov    (%rax),%rdx
    5fcd:	0f be 44 24 04       	movsbl 0x4(%rsp),%eax
    5fd2:	48 89 d6             	mov    %rdx,%rsi
    5fd5:	89 c7                	mov    %eax,%edi
    5fd7:	e8 75 00 00 00       	callq  6051 <_ZNSt6localeC1Ev@plt+0x3f61>
    5fdc:	48 83 c4 18          	add    $0x18,%rsp
    5fe0:	c3                   	retq   
    5fe1:	90                   	nop
    5fe2:	55                   	push   %rbp
    5fe3:	53                   	push   %rbx
    5fe4:	48 83 ec 18          	sub    $0x18,%rsp
    5fe8:	48 89 7c 24 08       	mov    %rdi,0x8(%rsp)
    5fed:	48 89 34 24          	mov    %rsi,(%rsp)
    5ff1:	48 8b 5c 24 08       	mov    0x8(%rsp),%rbx
    5ff6:	48 8b 04 24          	mov    (%rsp),%rax
    5ffa:	48 89 c7             	mov    %rax,%rdi
    5ffd:	e8 9b 00 00 00       	callq  609d <_ZNSt6localeC1Ev@plt+0x3fad>
    6002:	48 89 c5             	mov    %rax,%rbp
    6005:	48 8b 04 24          	mov    (%rsp),%rax
    6009:	48 89 c7             	mov    %rax,%rdi
    600c:	e8 71 00 00 00       	callq  6082 <_ZNSt6localeC1Ev@plt+0x3f92>
    6011:	48 89 ea             	mov    %rbp,%rdx
    6014:	48 89 c6             	mov    %rax,%rsi
    6017:	48 89 df             	mov    %rbx,%rdi
    601a:	e8 99 00 00 00       	callq  60b8 <_ZNSt6localeC1Ev@plt+0x3fc8>
    601f:	90                   	nop
    6020:	48 83 c4 18          	add    $0x18,%rsp
    6024:	5b                   	pop    %rbx
    6025:	5d                   	pop    %rbp
    6026:	c3                   	retq   
    6027:	90                   	nop
    6028:	48 89 7c 24 f8       	mov    %rdi,-0x8(%rsp)
    602d:	48 8b 44 24 f8       	mov    -0x8(%rsp),%rax
    6032:	48 8b 00             	mov    (%rax),%rax
    6035:	c3                   	retq   
    6036:	48 89 7c 24 f8       	mov    %rdi,-0x8(%rsp)
    603b:	48 8b 44 24 f8       	mov    -0x8(%rsp),%rax
    6040:	48 8b 40 08          	mov    0x8(%rax),%rax
    6044:	c3                   	retq   
    6045:	90                   	nop
    6046:	48 89 7c 24 f8       	mov    %rdi,-0x8(%rsp)
    604b:	48 8b 44 24 f8       	mov    -0x8(%rsp),%rax
    6050:	c3                   	retq   
    6051:	48 83 ec 18          	sub    $0x18,%rsp
    6055:	89 f8                	mov    %edi,%eax
    6057:	48 89 34 24          	mov    %rsi,(%rsp)
    605b:	88 44 24 0c          	mov    %al,0xc(%rsp)
    605f:	48 8b 04 24          	mov    (%rsp),%rax
    6063:	48 89 c7             	mov    %rax,%rdi
    6066:	e8 25 bd ff ff       	callq  1d90 <_ZSt9use_facetISt5ctypeIcEERKT_RKSt6locale@plt>
    606b:	48 89 c2             	mov    %rax,%rdx
    606e:	0f be 44 24 0c       	movsbl 0xc(%rsp),%eax
    6073:	89 c6                	mov    %eax,%esi
    6075:	48 89 d7             	mov    %rdx,%rdi
    6078:	e8 07 f9 ff ff       	callq  5984 <_ZNSt6localeC1Ev@plt+0x3894>
    607d:	48 83 c4 18          	add    $0x18,%rsp
    6081:	c3                   	retq   
    6082:	48 83 ec 18          	sub    $0x18,%rsp
    6086:	48 89 7c 24 08       	mov    %rdi,0x8(%rsp)
    608b:	48 8b 44 24 08       	mov    0x8(%rsp),%rax
    6090:	48 89 c7             	mov    %rax,%rdi
    6093:	e8 53 00 00 00       	callq  60eb <_ZNSt6localeC1Ev@plt+0x3ffb>
    6098:	48 83 c4 18          	add    $0x18,%rsp
    609c:	c3                   	retq   
    609d:	48 83 ec 18          	sub    $0x18,%rsp
    60a1:	48 89 7c 24 08       	mov    %rdi,0x8(%rsp)
    60a6:	48 8b 44 24 08       	mov    0x8(%rsp),%rax
